///////////////////////////////////////////////////////////////////////////////
//
// IAR C/C++ Compiler V10.30.1.6000 for 8051              25/Nov/2021  09:31:08
// Copyright 2004-2018 IAR Systems AB.
// PC-locked license - IAR Embedded Workbench for 8051
//
//    Core               =  plain
//    Code model         =  banked
//    Data model         =  large
//    Calling convention =  xdata reentrant
//    Constant location  =  data_rom
//    Dptr setup         =  1,16
//                          
//    Source file        =  
//        F:\2workspace\doorlock-CC2530\ZigBee-DoorLock-2021.09.27\Projects\zstack\AT-command\ATApp\Source\Controller\AT_pwr_single_bus.c
//    Command line       =  
//        -f C:\Users\ADMINI~1\AppData\Local\Temp\EW9E5B.tmp
//        (F:\2workspace\doorlock-CC2530\ZigBee-DoorLock-2021.09.27\Projects\zstack\AT-command\ATApp\Source\Controller\AT_pwr_single_bus.c
//        -D WDT_IN_PM1 -D ZIGBEEPRO -D INTER_PAN -D ZIGBEE_FREQ_AGILITY -D
//        DISABLE_GREENPOWER_BASIC_PROXY -D REFLECTOR -D HAL_UART=FALSE -D
//        HAL_LED=FALSE -D HAL_KEY=FALSE -D SECURE=1 -D TC_LINKKEY_JOIN -D
//        NV_INIT -D NV_RESTORE -D POWER_SAVING -D NWK_AUTO_POLL -D xZTOOL_P1
//        -D xMT_TASK -D xMT_APP_FUNC -D xMT_SYS_FUNC -D xMT_ZDO_FUNC -D
//        xMT_ZDO_MGMT -D xMT_APP_CNF_FUNC -D xLEGACY_LCD_DEBUG -D
//        xLCD_SUPPORTED=DEBUG -D MULTICAST_ENABLED=FALSE -D ZCL_READ -D
//        ZCL_WRITE -D ZCL_DISCOVER -D ZCL_BASIC -D ZCL_IDENTIFY -D ZCL_SCENES
//        -D ZCL_GROUPS -D BDB_REPORTING -D ZCL_DOORLOCK -D ZCL_DOORLOCK_EXT -D
//        ISR_KEYINTERRUPT -lC
//        F:\2workspace\doorlock-CC2530\ZigBee-DoorLock-2021.09.27\Projects\zstack\AT-command\ATApp\CC2530DB\EndDeviceEB\List
//        -lA
//        F:\2workspace\doorlock-CC2530\ZigBee-DoorLock-2021.09.27\Projects\zstack\AT-command\ATApp\CC2530DB\EndDeviceEB\List
//        --diag_suppress Pe001,Pa010 -o
//        F:\2workspace\doorlock-CC2530\ZigBee-DoorLock-2021.09.27\Projects\zstack\AT-command\ATApp\CC2530DB\EndDeviceEB\Obj
//        -e --debug --core=plain --dptr=16,1 --data_model=large
//        --code_model=banked --calling_convention=xdata_reentrant
//        --place_constants=data_rom --nr_virtual_regs 16 -f
//        F:\2workspace\doorlock-CC2530\ZigBee-DoorLock-2021.09.27\Projects\zstack\AT-command\ATApp\CC2530DB\..\..\..\Tools\CC2530DB\f8wEndev.cfg
//        (-DCPU32MHZ -DROOT=__near_func -DMAC_CFG_TX_DATA_MAX=3
//        -DMAC_CFG_TX_MAX=6 -DMAC_CFG_RX_MAX=3) -f
//        F:\2workspace\doorlock-CC2530\ZigBee-DoorLock-2021.09.27\Projects\zstack\AT-command\ATApp\CC2530DB\..\..\..\Tools\CC2530DB\f8wConfig.cfg
//        (-DZIGBEEPRO -DSECURE=1 -DZG_SECURE_DYNAMIC=0 -DREFLECTOR
//        -DDEFAULT_CHANLIST=0x00000800 -DZDAPP_CONFIG_PAN_ID=0xFFFF
//        -DNWK_START_DELAY=100 -DEXTENDED_JOINING_RANDOM_MASK=0x007F
//        -DBEACON_REQUEST_DELAY=100 -DBEACON_REQ_DELAY_MASK=0x00FF
//        -DLINK_STATUS_JITTER_MASK=0x007F -DROUTE_EXPIRY_TIME=30
//        -DAPSC_ACK_WAIT_DURATION_POLLED=3000 -DNWK_INDIRECT_MSG_TIMEOUT=7
//        -DMAX_RREQ_ENTRIES=8 -DAPSC_MAX_FRAME_RETRIES=3
//        -DNWK_MAX_DATA_RETRIES=2 -DMAX_POLL_FAILURE_RETRIES=2 -DMAX_BCAST=9
//        -DAPS_MAX_GROUPS=10 -DMAX_RTG_ENTRIES=15 -DNWK_MAX_BINDING_ENTRIES=4
//        -DMAX_BINDING_CLUSTER_IDS=4 -DDEFAULT_KEY={0}
//        -DMAC_MAX_FRAME_SIZE=116 -DZDNWKMGR_MIN_TRANSMISSIONS=20
//        "-DCONST=const __code" -DGENERIC=__generic -DRFD_RCVC_ALWAYS_ON=FALSE
//        -DPOLL_RATE=300 -DQUEUED_POLL_RATE=100 -DRESPONSE_POLL_RATE=100
//        -DREJOIN_POLL_RATE=440 -DREJOIN_BACKOFF=900000 -DREJOIN_SCAN=900000)
//        -f
//        F:\2workspace\doorlock-CC2530\ZigBee-DoorLock-2021.09.27\Projects\zstack\AT-command\ATApp\CC2530DB\..\..\..\Tools\CC2530DB\f8wZCL.cfg
//        -I
//        F:\2workspace\doorlock-CC2530\ZigBee-DoorLock-2021.09.27\Projects\zstack\AT-command\ATApp\CC2530DB\
//        -I
//        F:\2workspace\doorlock-CC2530\ZigBee-DoorLock-2021.09.27\Projects\zstack\AT-command\ATApp\CC2530DB\..\Source\
//        -I
//        F:\2workspace\doorlock-CC2530\ZigBee-DoorLock-2021.09.27\Projects\zstack\AT-command\ATApp\CC2530DB\..\Source\ZCL\
//        -I
//        F:\2workspace\doorlock-CC2530\ZigBee-DoorLock-2021.09.27\Projects\zstack\AT-command\ATApp\CC2530DB\..\Source\UserAPI\
//        -I
//        F:\2workspace\doorlock-CC2530\ZigBee-DoorLock-2021.09.27\Projects\zstack\AT-command\ATApp\CC2530DB\..\Source\Controller\
//        -I
//        F:\2workspace\doorlock-CC2530\ZigBee-DoorLock-2021.09.27\Projects\zstack\AT-command\ATApp\CC2530DB\..\..\..\ZMain\TI2530DB\
//        -I
//        F:\2workspace\doorlock-CC2530\ZigBee-DoorLock-2021.09.27\Projects\zstack\AT-command\ATApp\CC2530DB\..\..\..\..\..\Components\hal\include\
//        -I
//        F:\2workspace\doorlock-CC2530\ZigBee-DoorLock-2021.09.27\Projects\zstack\AT-command\ATApp\CC2530DB\..\..\..\..\..\Components\hal\target\CC2530EB\
//        -I
//        F:\2workspace\doorlock-CC2530\ZigBee-DoorLock-2021.09.27\Projects\zstack\AT-command\ATApp\CC2530DB\..\..\..\..\..\Components\mac\include\
//        -I
//        F:\2workspace\doorlock-CC2530\ZigBee-DoorLock-2021.09.27\Projects\zstack\AT-command\ATApp\CC2530DB\..\..\..\..\..\Components\mac\high_level\
//        -I
//        F:\2workspace\doorlock-CC2530\ZigBee-DoorLock-2021.09.27\Projects\zstack\AT-command\ATApp\CC2530DB\..\..\..\..\..\Components\mac\low_level\srf04\
//        -I
//        F:\2workspace\doorlock-CC2530\ZigBee-DoorLock-2021.09.27\Projects\zstack\AT-command\ATApp\CC2530DB\..\..\..\..\..\Components\mac\low_level\srf04\single_chip\
//        -I
//        F:\2workspace\doorlock-CC2530\ZigBee-DoorLock-2021.09.27\Projects\zstack\AT-command\ATApp\CC2530DB\..\..\..\..\..\Components\mt\
//        -I
//        F:\2workspace\doorlock-CC2530\ZigBee-DoorLock-2021.09.27\Projects\zstack\AT-command\ATApp\CC2530DB\..\..\..\..\..\Components\osal\include\
//        -I
//        F:\2workspace\doorlock-CC2530\ZigBee-DoorLock-2021.09.27\Projects\zstack\AT-command\ATApp\CC2530DB\..\..\..\..\..\Components\services\saddr\
//        -I
//        F:\2workspace\doorlock-CC2530\ZigBee-DoorLock-2021.09.27\Projects\zstack\AT-command\ATApp\CC2530DB\..\..\..\..\..\Components\services\sdata\
//        -I
//        F:\2workspace\doorlock-CC2530\ZigBee-DoorLock-2021.09.27\Projects\zstack\AT-command\ATApp\CC2530DB\..\..\..\..\..\Components\stack\af\
//        -I
//        F:\2workspace\doorlock-CC2530\ZigBee-DoorLock-2021.09.27\Projects\zstack\AT-command\ATApp\CC2530DB\..\..\..\..\..\Components\stack\bdb\
//        -I
//        F:\2workspace\doorlock-CC2530\ZigBee-DoorLock-2021.09.27\Projects\zstack\AT-command\ATApp\CC2530DB\..\..\..\..\..\Components\stack\gp\
//        -I
//        F:\2workspace\doorlock-CC2530\ZigBee-DoorLock-2021.09.27\Projects\zstack\AT-command\ATApp\CC2530DB\..\..\..\..\..\Components\stack\nwk\
//        -I
//        F:\2workspace\doorlock-CC2530\ZigBee-DoorLock-2021.09.27\Projects\zstack\AT-command\ATApp\CC2530DB\..\..\..\..\..\Components\stack\sapi\
//        -I
//        F:\2workspace\doorlock-CC2530\ZigBee-DoorLock-2021.09.27\Projects\zstack\AT-command\ATApp\CC2530DB\..\..\..\..\..\Components\stack\sec\
//        -I
//        F:\2workspace\doorlock-CC2530\ZigBee-DoorLock-2021.09.27\Projects\zstack\AT-command\ATApp\CC2530DB\..\..\..\..\..\Components\stack\sys\
//        -I
//        F:\2workspace\doorlock-CC2530\ZigBee-DoorLock-2021.09.27\Projects\zstack\AT-command\ATApp\CC2530DB\..\..\..\..\..\Components\stack\zcl\
//        -I
//        F:\2workspace\doorlock-CC2530\ZigBee-DoorLock-2021.09.27\Projects\zstack\AT-command\ATApp\CC2530DB\..\..\..\..\..\Components\stack\zdo\
//        -I
//        F:\2workspace\doorlock-CC2530\ZigBee-DoorLock-2021.09.27\Projects\zstack\AT-command\ATApp\CC2530DB\..\..\..\..\..\Components\zmac\
//        -I
//        F:\2workspace\doorlock-CC2530\ZigBee-DoorLock-2021.09.27\Projects\zstack\AT-command\ATApp\CC2530DB\..\..\..\..\..\Components\zmac\f8w\
//        -Ohz --require_prototypes)
//    Locale             =  Chinese (Simplified)_CHN.936
//    List file          =  
//        F:\2workspace\doorlock-CC2530\ZigBee-DoorLock-2021.09.27\Projects\zstack\AT-command\ATApp\CC2530DB\EndDeviceEB\List\AT_pwr_single_bus.s51
//
///////////////////////////////////////////////////////////////////////////////

        NAME AT_pwr_single_bus

        RTMODEL "__SystemLibrary", "CLib"
        RTMODEL "__calling_convention", "xdata_reentrant"
        RTMODEL "__code_model", "banked"
        RTMODEL "__core", "plain"
        RTMODEL "__data_model", "large"
        RTMODEL "__dptr_size", "16"
        RTMODEL "__extended_stack", "disabled"
        RTMODEL "__location_for_constants", "data"
        RTMODEL "__number_of_dptrs", "1"
        RTMODEL "__register_banks", "*"
        RTMODEL "__rt_version", "1"

        RSEG DOVERLAY:DATA:NOROOT(0)
        RSEG IOVERLAY:IDATA:NOROOT(0)
        RSEG ISTACK:IDATA:NOROOT(0)
        RSEG PSTACK:XDATA:NOROOT(0)
        RSEG XSTACK:XDATA:NOROOT(0)

        EXTERN ?V0
        EXTERN ?V1
        EXTERN ?V2
        EXTERN ?V3
        EXTERN ?V4
        EXTERN ?V5
        EXTERN ?BANKED_ENTER_XDATA
        EXTERN ?BANKED_LEAVE_XDATA
        EXTERN ?BDISPATCH
        EXTERN ?BRET
        EXTERN ?DEALLOC_XSTACK8
        EXTERN ?INTERRUPT_ENTER_XSP
        EXTERN ?INTERRUPT_LEAVE_XSP
        EXTERN ?PUSH_XSTACK_I_TWO
        EXTERN ?S_SHL
        EXTERN __INIT_XDATA_Z

        PUBLIC `??AT_pwr_single_bus_init::?relay`
        FUNCTION `??AT_pwr_single_bus_init::?relay`,0203H
        FUNCTION `??AT_pwr_single_bus_input::?relay`,0203H
        PUBLIC `??AT_pwr_single_bus_send_buf::?relay`
        FUNCTION `??AT_pwr_single_bus_send_buf::?relay`,0203H
        PUBWEAK `??pwr_single_bus_Isr::??INTVEC 51`
        PUBLIC AT_pwr_single_bus_init
        FUNCTION AT_pwr_single_bus_init,021203H
        ARGFRAME XSTACK, 0, STACK
        LOCFRAME ISTACK, 2, STACK
        FUNCTION AT_pwr_single_bus_input,0203H
        ARGFRAME XSTACK, 14, STACK
        ARGFRAME IOVERLAY, 0, STATIC
        ARGFRAME DOVERLAY, 0, STATIC
        PUBLIC AT_pwr_single_bus_send_buf
        FUNCTION AT_pwr_single_bus_send_buf,0a1203H
        ARGFRAME XSTACK, 0, STACK
        LOCFRAME XSTACK, 16, STACK
        PUBWEAK IEN2
        PUBWEAK IP0
        PUBWEAK IP1
        PUBWEAK P2DIR
        PUBWEAK P2IEN
        PUBWEAK P2IFG
        PUBWEAK P2INP
        PUBWEAK P2SEL
        PUBWEAK PICTL
        PUBWEAK WDCTL
        PUBWEAK _A_IEN0
        PUBWEAK _A_IRCON
        PUBWEAK _A_IRCON2
        PUBWEAK _A_P2
        PUBLIC pwr_single_bus_Isr
        FUNCTION pwr_single_bus_Isr,0a1233H
        ARGFRAME XSTACK, 0, STACK
        LOCFRAME ISTACK, 2, STACK
        LOCFRAME XSTACK, 15, STACK
        PUBLIC pwr_single_bus_rcv_bit
        PUBLIC pwr_single_bus_rcv_buf
        PUBLIC pwr_single_bus_rcv_high
        PUBLIC pwr_single_bus_rcv_len
        PUBLIC pwr_single_bus_rcv_low
        PUBLIC pwr_single_bus_rcv_total
        
          CFI Names cfiNames0
          CFI StackFrame CFA_SP SP IDATA
          CFI StackFrame CFA_PSP16 PSP16 XDATA
          CFI StackFrame CFA_XSP16 XSP16 XDATA
          CFI StaticOverlayFrame CFA_IOVERLAY IOVERLAY
          CFI StaticOverlayFrame CFA_DOVERLAY DOVERLAY
          CFI Resource `PSW.CY`:1, `B.BR0`:1, `B.BR1`:1, `B.BR2`:1, `B.BR3`:1
          CFI Resource `B.BR4`:1, `B.BR5`:1, `B.BR6`:1, `B.BR7`:1, `VB.BR8`:1
          CFI Resource `VB.BR9`:1, `VB.BR10`:1, `VB.BR11`:1, `VB.BR12`:1
          CFI Resource `VB.BR13`:1, `VB.BR14`:1, `VB.BR15`:1, VB:8, B:8, A:8
          CFI Resource PSW:8, DPL0:8, DPH0:8, R0:8, R1:8, R2:8, R3:8, R4:8, R5:8
          CFI Resource R6:8, R7:8, V0:8, V1:8, V2:8, V3:8, V4:8, V5:8, V6:8, V7:8
          CFI Resource V8:8, V9:8, V10:8, V11:8, V12:8, V13:8, V14:8, V15:8, SP:8
          CFI Resource PSPH:8, PSPL:8, PSP16:16, XSPH:8, XSPL:8, XSP16:16
          CFI VirtualResource ?RET:24
          CFI Resource ?BRET_EXT:8
          CFI VirtualResource ?RET_HIGH:8, ?RET_LOW:8
          CFI ResourceParts PSP16 PSPH, PSPL
          CFI ResourceParts XSP16 XSPH, XSPL
          CFI ResourceParts ?RET ?BRET_EXT, ?RET_HIGH, ?RET_LOW
          CFI EndNames cfiNames0
        
          CFI Common cfiCommon0 Using cfiNames0
          CFI CodeAlign 1
          CFI DataAlign -1
          CFI ReturnAddress ?RET CODE
          CFI CFA_DOVERLAY Used
          CFI CFA_IOVERLAY Used
          CFI CFA_SP SP+-3
          CFI CFA_PSP16 PSP16+0
          CFI CFA_XSP16 XSP16+0
          CFI `PSW.CY` SameValue
          CFI `B.BR0` SameValue
          CFI `B.BR1` SameValue
          CFI `B.BR2` SameValue
          CFI `B.BR3` SameValue
          CFI `B.BR4` SameValue
          CFI `B.BR5` SameValue
          CFI `B.BR6` SameValue
          CFI `B.BR7` SameValue
          CFI `VB.BR8` SameValue
          CFI `VB.BR9` SameValue
          CFI `VB.BR10` SameValue
          CFI `VB.BR11` SameValue
          CFI `VB.BR12` SameValue
          CFI `VB.BR13` SameValue
          CFI `VB.BR14` SameValue
          CFI `VB.BR15` SameValue
          CFI VB SameValue
          CFI B Undefined
          CFI A Undefined
          CFI PSW SameValue
          CFI DPL0 SameValue
          CFI DPH0 SameValue
          CFI R0 Undefined
          CFI R1 Undefined
          CFI R2 Undefined
          CFI R3 Undefined
          CFI R4 Undefined
          CFI R5 Undefined
          CFI R6 SameValue
          CFI R7 SameValue
          CFI V0 SameValue
          CFI V1 SameValue
          CFI V2 SameValue
          CFI V3 SameValue
          CFI V4 SameValue
          CFI V5 SameValue
          CFI V6 SameValue
          CFI V7 SameValue
          CFI V8 SameValue
          CFI V9 SameValue
          CFI V10 SameValue
          CFI V11 SameValue
          CFI V12 SameValue
          CFI V13 SameValue
          CFI V14 SameValue
          CFI V15 SameValue
          CFI PSPH Undefined
          CFI PSPL Undefined
          CFI XSPH Undefined
          CFI XSPL Undefined
          CFI ?RET Concat
          CFI ?BRET_EXT Frame(CFA_SP, 3)
          CFI ?RET_HIGH Frame(CFA_SP, 2)
          CFI ?RET_LOW Frame(CFA_SP, 1)
          CFI EndCommon cfiCommon0
        
        
          CFI Common cfiCommon1 Using cfiNames0
          CFI CodeAlign 1
          CFI DataAlign -1
          CFI ReturnAddress ?RET CODE
          CFI CFA_DOVERLAY Used
          CFI CFA_IOVERLAY Used
          CFI CFA_SP SP+-2
          CFI CFA_PSP16 PSP16+0
          CFI CFA_XSP16 XSP16+0
          CFI `PSW.CY` SameValue
          CFI `B.BR0` SameValue
          CFI `B.BR1` SameValue
          CFI `B.BR2` SameValue
          CFI `B.BR3` SameValue
          CFI `B.BR4` SameValue
          CFI `B.BR5` SameValue
          CFI `B.BR6` SameValue
          CFI `B.BR7` SameValue
          CFI `VB.BR8` SameValue
          CFI `VB.BR9` SameValue
          CFI `VB.BR10` SameValue
          CFI `VB.BR11` SameValue
          CFI `VB.BR12` SameValue
          CFI `VB.BR13` SameValue
          CFI `VB.BR14` SameValue
          CFI `VB.BR15` SameValue
          CFI VB SameValue
          CFI B SameValue
          CFI A SameValue
          CFI PSW SameValue
          CFI DPL0 SameValue
          CFI DPH0 SameValue
          CFI R0 SameValue
          CFI R1 SameValue
          CFI R2 SameValue
          CFI R3 SameValue
          CFI R4 SameValue
          CFI R5 SameValue
          CFI R6 SameValue
          CFI R7 SameValue
          CFI V0 SameValue
          CFI V1 SameValue
          CFI V2 SameValue
          CFI V3 SameValue
          CFI V4 SameValue
          CFI V5 SameValue
          CFI V6 SameValue
          CFI V7 SameValue
          CFI V8 SameValue
          CFI V9 SameValue
          CFI V10 SameValue
          CFI V11 SameValue
          CFI V12 SameValue
          CFI V13 SameValue
          CFI V14 SameValue
          CFI V15 SameValue
          CFI PSPH Undefined
          CFI PSPL Undefined
          CFI XSPH Undefined
          CFI XSPL Undefined
          CFI ?RET Concat
          CFI ?BRET_EXT SameValue
          CFI ?RET_HIGH Frame(CFA_SP, 2)
          CFI ?RET_LOW Frame(CFA_SP, 1)
          CFI EndCommon cfiCommon1
        
AT_Timer4_Set_Clear_Start_US SYMBOL "AT_Timer4_Set_Clear_Start_US"
`??AT_Timer4_Set_Clear_Start_US::?relay` SYMBOL "?relay", AT_Timer4_Set_Clear_Start_US
AT_Timer4_Stop_Get  SYMBOL "AT_Timer4_Stop_Get"
`??AT_Timer4_Stop_Get::?relay` SYMBOL "?relay", AT_Timer4_Stop_Get
Onboard_wait        SYMBOL "Onboard_wait"
`??Onboard_wait::?relay` SYMBOL "?relay", Onboard_wait
printf              SYMBOL "printf"
`??printf::?relay`  SYMBOL "?relay", printf
AT_pwr_single_bus_init SYMBOL "AT_pwr_single_bus_init"
`??AT_pwr_single_bus_init::?relay` SYMBOL "?relay", AT_pwr_single_bus_init
AT_pwr_single_bus_send_buf SYMBOL "AT_pwr_single_bus_send_buf"
`??AT_pwr_single_bus_send_buf::?relay` SYMBOL "?relay", AT_pwr_single_bus_send_buf
pwr_single_bus_Isr  SYMBOL "pwr_single_bus_Isr"
`??pwr_single_bus_Isr::??INTVEC 51` SYMBOL "??INTVEC 51", pwr_single_bus_Isr

        EXTERN `??AT_Timer4_Set_Clear_Start_US::?relay`
        FUNCTION `??AT_Timer4_Set_Clear_Start_US::?relay`,00H
        EXTERN `??AT_Timer4_Stop_Get::?relay`
        FUNCTION `??AT_Timer4_Stop_Get::?relay`,00H
        EXTERN `??Onboard_wait::?relay`
        FUNCTION `??Onboard_wait::?relay`,00H
        EXTERN `??printf::?relay`
        FUNCTION `??printf::?relay`,00H
        EXTERN AT_Timer4_Set_Clear_Start_US
        FUNCTION AT_Timer4_Set_Clear_Start_US,0202H
        ARGFRAME ISTACK, 0, STACK
        ARGFRAME PSTACK, 0, STACK
        ARGFRAME XSTACK, 15, STACK
        ARGFRAME IOVERLAY, 0, STATIC
        ARGFRAME DOVERLAY, 0, STATIC
        EXTERN AT_Timer4_Stop_Get
        FUNCTION AT_Timer4_Stop_Get,0202H
        ARGFRAME ISTACK, 0, STACK
        ARGFRAME PSTACK, 0, STACK
        ARGFRAME XSTACK, 15, STACK
        ARGFRAME IOVERLAY, 0, STATIC
        ARGFRAME DOVERLAY, 0, STATIC
        EXTERN Onboard_wait
        FUNCTION Onboard_wait,0202H
        ARGFRAME ISTACK, 0, STACK
        ARGFRAME PSTACK, 0, STACK
        ARGFRAME XSTACK, 14, STACK
        ARGFRAME IOVERLAY, 0, STATIC
        ARGFRAME DOVERLAY, 0, STATIC
        EXTERN halSleepPconValue
        EXTERN printf
        FUNCTION printf,0202H
        ARGFRAME ISTACK, 0, STACK
        ARGFRAME PSTACK, 0, STACK
        ARGFRAME XSTACK, 16, STACK
        ARGFRAME IOVERLAY, 0, STATIC
        ARGFRAME DOVERLAY, 0, STATIC
        EXTERN tim4_tick_peroid

// F:\2workspace\doorlock-CC2530\ZigBee-DoorLock-2021.09.27\Projects\zstack\AT-command\ATApp\Source\Controller\AT_pwr_single_bus.c
//    1 /******************************************************************************
//    2   Filename:       AT_single_bus.c
//    3   Author:         Yang Wang
//    4 ******************************************************************************/
//    5 #include "AT_pwr_single_bus.h"

        ASEGN SFR_AN:DATA:NOROOT,08bH
// unsigned char volatile __sfr P2IFG
P2IFG:
        DATA8
        DS 1

        ASEGN SFR_AN:DATA:NOROOT,08cH
// unsigned char volatile __sfr PICTL
PICTL:
        DATA8
        DS 1

        ASEGN SFR_AN:DATA:NOROOT,09aH
// unsigned char volatile __sfr IEN2
IEN2:
        DATA8
        DS 1

        ASEGN SFR_AN:DATA:NOROOT,0a0H
// union <unnamed> volatile __sfr _A_P2
_A_P2:
        DATA8
        DS 1

        ASEGN SFR_AN:DATA:NOROOT,0a8H
// union <unnamed> volatile __sfr _A_IEN0
_A_IEN0:
        DATA8
        DS 1

        ASEGN SFR_AN:DATA:NOROOT,0a9H
// unsigned char volatile __sfr IP0
IP0:
        DATA8
        DS 1

        ASEGN SFR_AN:DATA:NOROOT,0acH
// unsigned char volatile __sfr P2IEN
P2IEN:
        DATA8
        DS 1

        ASEGN SFR_AN:DATA:NOROOT,0b9H
// unsigned char volatile __sfr IP1
IP1:
        DATA8
        DS 1

        ASEGN SFR_AN:DATA:NOROOT,0c0H
// union <unnamed> volatile __sfr _A_IRCON
_A_IRCON:
        DATA8
        DS 1

        ASEGN SFR_AN:DATA:NOROOT,0c9H
// unsigned char volatile __sfr WDCTL
WDCTL:
        DATA8
        DS 1

        ASEGN SFR_AN:DATA:NOROOT,0e8H
// union <unnamed> volatile __sfr _A_IRCON2
_A_IRCON2:
        DATA8
        DS 1

        ASEGN SFR_AN:DATA:NOROOT,0f5H
// unsigned char volatile __sfr P2SEL
P2SEL:
        DATA8
        DS 1

        ASEGN SFR_AN:DATA:NOROOT,0f7H
// unsigned char volatile __sfr P2INP
P2INP:
        DATA8
        DS 1

        ASEGN SFR_AN:DATA:NOROOT,0ffH
// unsigned char volatile __sfr P2DIR
P2DIR:
        DATA8
        DS 1
//    6 #include "AT_doorlock.h"
//    7 #include "AT_timer4.h"
//    8 #include "zcl_doorlock.h"
//    9 #include "OnBoard.h"
//   10 #include "AT_printf.h"
//   11 

        RSEG XDATA_Z:XDATA:NOROOT(0)
        DATA8
//   12 uint8 pwr_single_bus_rcv_buf[PWR_SINGLE_BUS_RCV_MAX] = {0x00};
pwr_single_bus_rcv_buf:
        DS 100
        REQUIRE __INIT_XDATA_Z

        RSEG XDATA_Z:XDATA:NOROOT(0)
        DATA8
//   13 uint8 pwr_single_bus_rcv_len = 0;
pwr_single_bus_rcv_len:
        DS 1
        REQUIRE __INIT_XDATA_Z

        RSEG XDATA_Z:XDATA:NOROOT(0)
        DATA8
//   14 uint8 pwr_single_bus_rcv_bit = 0;
pwr_single_bus_rcv_bit:
        DS 1
        REQUIRE __INIT_XDATA_Z
//   15 

        RSEG XDATA_Z:XDATA:NOROOT(0)
        DATA16
//   16 uint16 pwr_single_bus_rcv_total = 0;
pwr_single_bus_rcv_total:
        DS 2
        REQUIRE __INIT_XDATA_Z

        RSEG XDATA_Z:XDATA:NOROOT(0)
        DATA16
//   17 uint16 pwr_single_bus_rcv_high = 0;
pwr_single_bus_rcv_high:
        DS 2
        REQUIRE __INIT_XDATA_Z

        RSEG XDATA_Z:XDATA:NOROOT(0)
        DATA16
//   18 uint16 pwr_single_bus_rcv_low = 0;
pwr_single_bus_rcv_low:
        DS 2
        REQUIRE __INIT_XDATA_Z
//   19 
//   20 static void AT_pwr_single_bus_input(void);
//   21 static void AT_pwr_single_bus_output(void);
//   22 static void AT_pwr_single_bus_send_byte(uint8 dataByte);
//   23 

        RSEG BANKED_CODE:HUGECODE:NOROOT(0)
//   24 static void AT_pwr_single_bus_input(void)
AT_pwr_single_bus_input:
          CFI Block cfiBlock0 Using cfiCommon0
          CFI Function AT_pwr_single_bus_input
        CODE
//   25 {
        ; Saved register size: 0
        ; Auto size: 0
//   26   PWR_SINGLE_BUS_SEL &= ~PWR_SINGLE_BUS_BV;
        ANL       0xf5,#0xfe
//   27   PWR_SINGLE_BUS_DIR &= ~PWR_SINGLE_BUS_BV;
        ANL       0xff,#0xfe
//   28   PWR_SINGLE_BUS_INP &= ~PWR_SINGLE_BUS_BV;
        ANL       0xf7,#0xfe
//   29 
//   30   P2IFG = 0x00;
        MOV       0x8b,#0x0
//   31   P2IF  = 0x00;
        CLR       0xe8.0
//   32 
//   33   IEN2  |= BV(1); // enable port interrupt
        ORL       0x9a,#0x2
//   34   P2IEN |= PWR_SINGLE_BUS_BV; // enable pin interrupt
        ORL       0xac,#0x1
//   35 
//   36   P2INP &= ~BV(7); // pull up
        ANL       0xf7,#0x7f
//   37   PICTL |=  PWR_SINGLE_BUS_EDGE_BV; // falling edge
        ORL       0x8c,#0x8
//   38 }
        LJMP      ?BRET
          CFI EndBlock cfiBlock0
        REQUIRE P2SEL
        REQUIRE P2DIR
        REQUIRE P2INP
        REQUIRE P2IFG
        REQUIRE _A_IRCON2
        REQUIRE IEN2
        REQUIRE P2IEN
        REQUIRE PICTL
//   39 static void AT_pwr_single_bus_output(void)
//   40 {
//   41   PWR_SINGLE_BUS_SEL &= ~PWR_SINGLE_BUS_BV;
//   42   PWR_SINGLE_BUS_DIR |=  PWR_SINGLE_BUS_BV;
//   43 
//   44   IEN2  &= ~BV(1); // disable port interrupt
//   45   P2IEN &= ~PWR_SINGLE_BUS_BV; // disable pin interrupt
//   46 }

        RSEG BANKED_CODE:HUGECODE:NOROOT(0)
//   47 void AT_pwr_single_bus_init(void)
AT_pwr_single_bus_init:
          CFI Block cfiBlock1 Using cfiCommon0
          CFI Function AT_pwr_single_bus_init
        CODE
//   48 {
        FUNCALL AT_pwr_single_bus_init, AT_pwr_single_bus_input
        LOCFRAME ISTACK, 2, STACK
        LOCFRAME PSTACK, 0, STACK
        LOCFRAME XSTACK, 0, STACK
        LOCFRAME IOVERLAY, 0, STATIC
        LOCFRAME DOVERLAY, 0, STATIC
        ARGFRAME ISTACK, 2, STACK
        ARGFRAME PSTACK, 0, STACK
        ARGFRAME XSTACK, 0, STACK
        ARGFRAME IOVERLAY, 0, STATIC
        ARGFRAME DOVERLAY, 0, STATIC
        PUSH      DPL
          CFI DPL0 Frame(CFA_SP, 4)
          CFI CFA_SP SP+-4
        PUSH      DPH
          CFI DPH0 Frame(CFA_SP, 5)
          CFI CFA_SP SP+-5
        ; Saved register size: 2
        ; Auto size: 0
//   49   AT_pwr_single_bus_input();
        ; Setup parameters for call to function AT_pwr_single_bus_input
        LCALL     `??AT_pwr_single_bus_input::?relay`; Banked call to: AT_pwr_single_bus_input
//   50 
//   51   // set IPG1(ADC/P1/P2INT) to the highest priority
//   52   IP1 = 0x12;         //interrupt priority
        MOV       0xb9,#0x12
//   53   IP0 = 0x10;
        MOV       0xa9,#0x10
//   54 }
        POP       DPH
          CFI DPH0 SameValue
          CFI CFA_SP SP+-4
        POP       DPL
          CFI DPL0 SameValue
          CFI CFA_SP SP+-3
        LJMP      ?BRET
          CFI EndBlock cfiBlock1
        REQUIRE IP1
        REQUIRE IP0
//   55 static void AT_pwr_single_bus_send_byte(uint8 dataByte)
//   56 {
//   57   uint8 i;
//   58 
//   59   for(i=0; i<8; i++)
//   60   {
//   61     if(dataByte & 0x01)
//   62     {
//   63       PWR_SINGLE_BUS_PIN = PWR_SINGLE_BUS_HIGH;
//   64       MicroWait(191); // more close to 160 us
//   65 
//   66       PWR_SINGLE_BUS_PIN = PWR_SINGLE_BUS_LOW;
//   67       MicroWait(92); // more close to 80 us
//   68     }
//   69     else
//   70     {
//   71       PWR_SINGLE_BUS_PIN = PWR_SINGLE_BUS_HIGH;
//   72       MicroWait(92); // more close to 80 us
//   73 
//   74       PWR_SINGLE_BUS_PIN = PWR_SINGLE_BUS_LOW;
//   75       MicroWait(191); // more close to 160 us
//   76     }
//   77 
//   78     dataByte >>= 1;
//   79   }
//   80 }

        RSEG BANKED_CODE:HUGECODE:NOROOT(0)
//   81 void AT_pwr_single_bus_send_buf(uint8 *buf, uint8 len)
AT_pwr_single_bus_send_buf:
          CFI Block cfiBlock2 Using cfiCommon0
          CFI Function AT_pwr_single_bus_send_buf
        CODE
//   82 {
        FUNCALL AT_pwr_single_bus_send_buf, printf
        LOCFRAME ISTACK, 0, STACK
        LOCFRAME PSTACK, 0, STACK
        LOCFRAME XSTACK, 16, STACK
        LOCFRAME IOVERLAY, 0, STATIC
        LOCFRAME DOVERLAY, 0, STATIC
        ARGFRAME ISTACK, 0, STACK
        ARGFRAME PSTACK, 0, STACK
        ARGFRAME XSTACK, 16, STACK
        ARGFRAME IOVERLAY, 0, STATIC
        ARGFRAME DOVERLAY, 0, STATIC
        FUNCALL AT_pwr_single_bus_send_buf, printf
        LOCFRAME ISTACK, 0, STACK
        LOCFRAME PSTACK, 0, STACK
        LOCFRAME XSTACK, 16, STACK
        LOCFRAME IOVERLAY, 0, STATIC
        LOCFRAME DOVERLAY, 0, STATIC
        ARGFRAME ISTACK, 0, STACK
        ARGFRAME PSTACK, 0, STACK
        ARGFRAME XSTACK, 16, STACK
        ARGFRAME IOVERLAY, 0, STATIC
        ARGFRAME DOVERLAY, 0, STATIC
        FUNCALL AT_pwr_single_bus_send_buf, printf
        LOCFRAME ISTACK, 0, STACK
        LOCFRAME PSTACK, 0, STACK
        LOCFRAME XSTACK, 14, STACK
        LOCFRAME IOVERLAY, 0, STATIC
        LOCFRAME DOVERLAY, 0, STATIC
        ARGFRAME ISTACK, 0, STACK
        ARGFRAME PSTACK, 0, STACK
        ARGFRAME XSTACK, 14, STACK
        ARGFRAME IOVERLAY, 0, STATIC
        ARGFRAME DOVERLAY, 0, STATIC
        FUNCALL AT_pwr_single_bus_send_buf, Onboard_wait
        LOCFRAME ISTACK, 0, STACK
        LOCFRAME PSTACK, 0, STACK
        LOCFRAME XSTACK, 14, STACK
        LOCFRAME IOVERLAY, 0, STATIC
        LOCFRAME DOVERLAY, 0, STATIC
        ARGFRAME ISTACK, 0, STACK
        ARGFRAME PSTACK, 0, STACK
        ARGFRAME XSTACK, 14, STACK
        ARGFRAME IOVERLAY, 0, STATIC
        ARGFRAME DOVERLAY, 0, STATIC
        FUNCALL AT_pwr_single_bus_send_buf, Onboard_wait
        LOCFRAME ISTACK, 0, STACK
        LOCFRAME PSTACK, 0, STACK
        LOCFRAME XSTACK, 14, STACK
        LOCFRAME IOVERLAY, 0, STATIC
        LOCFRAME DOVERLAY, 0, STATIC
        ARGFRAME ISTACK, 0, STACK
        ARGFRAME PSTACK, 0, STACK
        ARGFRAME XSTACK, 14, STACK
        ARGFRAME IOVERLAY, 0, STATIC
        ARGFRAME DOVERLAY, 0, STATIC
        FUNCALL AT_pwr_single_bus_send_buf, Onboard_wait
        LOCFRAME ISTACK, 0, STACK
        LOCFRAME PSTACK, 0, STACK
        LOCFRAME XSTACK, 14, STACK
        LOCFRAME IOVERLAY, 0, STATIC
        LOCFRAME DOVERLAY, 0, STATIC
        ARGFRAME ISTACK, 0, STACK
        ARGFRAME PSTACK, 0, STACK
        ARGFRAME XSTACK, 14, STACK
        ARGFRAME IOVERLAY, 0, STATIC
        ARGFRAME DOVERLAY, 0, STATIC
        FUNCALL AT_pwr_single_bus_send_buf, Onboard_wait
        LOCFRAME ISTACK, 0, STACK
        LOCFRAME PSTACK, 0, STACK
        LOCFRAME XSTACK, 14, STACK
        LOCFRAME IOVERLAY, 0, STATIC
        LOCFRAME DOVERLAY, 0, STATIC
        ARGFRAME ISTACK, 0, STACK
        ARGFRAME PSTACK, 0, STACK
        ARGFRAME XSTACK, 14, STACK
        ARGFRAME IOVERLAY, 0, STATIC
        ARGFRAME DOVERLAY, 0, STATIC
        FUNCALL AT_pwr_single_bus_send_buf, Onboard_wait
        LOCFRAME ISTACK, 0, STACK
        LOCFRAME PSTACK, 0, STACK
        LOCFRAME XSTACK, 14, STACK
        LOCFRAME IOVERLAY, 0, STATIC
        LOCFRAME DOVERLAY, 0, STATIC
        ARGFRAME ISTACK, 0, STACK
        ARGFRAME PSTACK, 0, STACK
        ARGFRAME XSTACK, 14, STACK
        ARGFRAME IOVERLAY, 0, STATIC
        ARGFRAME DOVERLAY, 0, STATIC
        FUNCALL AT_pwr_single_bus_send_buf, AT_pwr_single_bus_input
        LOCFRAME ISTACK, 0, STACK
        LOCFRAME PSTACK, 0, STACK
        LOCFRAME XSTACK, 14, STACK
        LOCFRAME IOVERLAY, 0, STATIC
        LOCFRAME DOVERLAY, 0, STATIC
        ARGFRAME ISTACK, 0, STACK
        ARGFRAME PSTACK, 0, STACK
        ARGFRAME XSTACK, 14, STACK
        ARGFRAME IOVERLAY, 0, STATIC
        ARGFRAME DOVERLAY, 0, STATIC
        REQUIRE ?V0
        REQUIRE ?V1
        REQUIRE ?V2
        REQUIRE ?V3
        REQUIRE ?V4
        REQUIRE ?V5
        MOV       A,#-0xe
        LCALL     ?BANKED_ENTER_XDATA
          CFI DPH0 load(1, XDATA, add(CFA_XSP16, literal(-1)))
          CFI DPL0 load(1, XDATA, add(CFA_XSP16, literal(-2)))
          CFI ?BRET_EXT load(1, XDATA, add(CFA_XSP16, literal(-3)))
          CFI ?RET_HIGH load(1, XDATA, add(CFA_XSP16, literal(-4)))
          CFI ?RET_LOW load(1, XDATA, add(CFA_XSP16, literal(-5)))
          CFI R7 load(1, XDATA, add(CFA_XSP16, literal(-6)))
          CFI V5 load(1, XDATA, add(CFA_XSP16, literal(-7)))
          CFI V4 load(1, XDATA, add(CFA_XSP16, literal(-8)))
          CFI V3 load(1, XDATA, add(CFA_XSP16, literal(-9)))
          CFI V2 load(1, XDATA, add(CFA_XSP16, literal(-10)))
          CFI V1 load(1, XDATA, add(CFA_XSP16, literal(-11)))
          CFI V0 load(1, XDATA, add(CFA_XSP16, literal(-12)))
          CFI VB load(1, XDATA, add(CFA_XSP16, literal(-13)))
          CFI R6 load(1, XDATA, add(CFA_XSP16, literal(-14)))
          CFI CFA_SP SP+0
          CFI CFA_XSP16 add(XSP16, 14)
        ; Saved register size: 14
        ; Auto size: 0
        MOV       A,R2
        MOV       R6,A
        MOV       A,R3
        MOV       R7,A
        MOV       ?V3,R1
//   83   uint8 i;
//   84 
//   85   printf("|down|-----|%02d bytes|: ", len);
        ; Setup parameters for call to function printf
        MOV       A,R1
        MOV       ?V0,A
        MOV       ?V1,#0x0
        MOV       R0,#?V0
        LCALL     ?PUSH_XSTACK_I_TWO
          CFI CFA_XSP16 add(XSP16, 16)
        MOV       R2,#`?<Constant "|down|-----|%02d byte...">` & 0xff
        MOV       R3,#(`?<Constant "|down|-----|%02d byte...">` >> 8) & 0xff
        LCALL     `??printf::?relay`; Banked call to: printf
        MOV       A,#0x2
        LCALL     ?DEALLOC_XSTACK8
          CFI CFA_XSP16 add(XSP16, 14)
//   86   for(i=0; i<len; i++)
        MOV       ?V0,#0x0
        SJMP      ??AT_pwr_single_bus_send_buf_0
//   87   {
//   88     printf("%02X ", buf[i]);
??AT_pwr_single_bus_send_buf_1:
        ; Setup parameters for call to function printf
        LCALL     ?Subroutine0 & 0xFFFF
//   89   }
??CrossCallReturnLabel_0:
        MOV       ?V4,A
        MOV       ?V5,#0x0
        MOV       R0,#?V4
        LCALL     ?PUSH_XSTACK_I_TWO
          CFI CFA_XSP16 add(XSP16, 16)
        MOV       R2,#`?<Constant "%02X ">` & 0xff
        MOV       R3,#(`?<Constant "%02X ">` >> 8) & 0xff
        LCALL     `??printf::?relay`; Banked call to: printf
        MOV       A,#0x2
        LCALL     ?DEALLOC_XSTACK8
          CFI CFA_XSP16 add(XSP16, 14)
        INC       ?V0
??AT_pwr_single_bus_send_buf_0:
        MOV       A,?V0
        CLR       C
        SUBB      A,?V3
        JC        ??AT_pwr_single_bus_send_buf_1
//   90   printf("\r\n");
        ; Setup parameters for call to function printf
        MOV       R2,#`?<Constant "\\r\\n">` & 0xff
        MOV       R3,#(`?<Constant "\\r\\n">` >> 8) & 0xff
        LCALL     `??printf::?relay`; Banked call to: printf
//   91 
//   92   AT_pwr_single_bus_output();
        ANL       0xf5,#0xfe
        ORL       0xff,#0x1
        ANL       0x9a,#0xfd
        ANL       0xac,#0xfe
//   93 
//   94   PWR_SINGLE_BUS_PIN = PWR_SINGLE_BUS_LOW;
        CLR       0xa0.0
//   95   MicroWait(4900); // more close to 4 ms
        ; Setup parameters for call to function Onboard_wait
        MOV       R2,#0x24
        MOV       R3,#0x13
        LCALL     `??Onboard_wait::?relay`; Banked call to: Onboard_wait
//   96 
//   97   for(i=0; i<len; i++)
        MOV       ?V0,#0x0
        SJMP      ??AT_pwr_single_bus_send_buf_2
//   98   {
??AT_pwr_single_bus_send_buf_3:
        ; Setup parameters for call to function Onboard_wait
        MOV       R2,#0x5c
        MOV       R3,#0x0
        LCALL     `??Onboard_wait::?relay`; Banked call to: Onboard_wait
        CLR       0xa0.0
        ; Setup parameters for call to function Onboard_wait
        MOV       R2,#-0x41
??AT_pwr_single_bus_send_buf_4:
        MOV       R3,#0x0
        LCALL     `??Onboard_wait::?relay`; Banked call to: Onboard_wait
        MOV       A,?V1
        CLR       C
        RRC       A
        MOV       ?V1,A
        DEC       ?V2
        MOV       A,?V2
        JNZ       ??AT_pwr_single_bus_send_buf_5
//   99     AT_pwr_single_bus_send_byte(buf[i]);
        INC       ?V0
??AT_pwr_single_bus_send_buf_2:
        MOV       A,?V0
        CLR       C
        SUBB      A,?V3
        JNC       ??AT_pwr_single_bus_send_buf_6
        LCALL     ?Subroutine0 & 0xFFFF
??CrossCallReturnLabel_1:
        MOV       ?V1,A
        MOV       ?V2,#0x8
??AT_pwr_single_bus_send_buf_5:
        MOV       A,?V1
        MOV       C,0xE0 /* A   */.0
        SETB      0xa0.0
        JNC       ??AT_pwr_single_bus_send_buf_3
        ; Setup parameters for call to function Onboard_wait
        MOV       R2,#-0x41
        MOV       R3,#0x0
        LCALL     `??Onboard_wait::?relay`; Banked call to: Onboard_wait
        CLR       0xa0.0
        ; Setup parameters for call to function Onboard_wait
        MOV       R2,#0x5c
        SJMP      ??AT_pwr_single_bus_send_buf_4
//  100   }
//  101 
//  102   PWR_SINGLE_BUS_PIN = PWR_SINGLE_BUS_HIGH;
??AT_pwr_single_bus_send_buf_6:
        SETB      0xa0.0
//  103 
//  104   AT_pwr_single_bus_input();
        ; Setup parameters for call to function AT_pwr_single_bus_input
        LCALL     `??AT_pwr_single_bus_input::?relay`; Banked call to: AT_pwr_single_bus_input
//  105 }
        MOV       R7,#0x6
        LJMP      ?BANKED_LEAVE_XDATA
          CFI EndBlock cfiBlock2
        REQUIRE _A_P2
        REQUIRE P2SEL
        REQUIRE P2DIR
        REQUIRE IEN2
        REQUIRE P2IEN

        RSEG BANKED_CODE:HUGECODE:NOROOT(0)
?Subroutine0:
          CFI Block cfiCond3 Using cfiCommon0
          CFI Function AT_pwr_single_bus_send_buf
          CFI Conditional ??CrossCallReturnLabel_0
          CFI R6 load(1, XDATA, add(CFA_XSP16, literal(-14)))
          CFI VB load(1, XDATA, add(CFA_XSP16, literal(-13)))
          CFI V0 load(1, XDATA, add(CFA_XSP16, literal(-12)))
          CFI V1 load(1, XDATA, add(CFA_XSP16, literal(-11)))
          CFI V2 load(1, XDATA, add(CFA_XSP16, literal(-10)))
          CFI V3 load(1, XDATA, add(CFA_XSP16, literal(-9)))
          CFI V4 load(1, XDATA, add(CFA_XSP16, literal(-8)))
          CFI V5 load(1, XDATA, add(CFA_XSP16, literal(-7)))
          CFI R7 load(1, XDATA, add(CFA_XSP16, literal(-6)))
          CFI ?RET_LOW load(1, XDATA, add(CFA_XSP16, literal(-5)))
          CFI ?RET_HIGH load(1, XDATA, add(CFA_XSP16, literal(-4)))
          CFI ?BRET_EXT load(1, XDATA, add(CFA_XSP16, literal(-3)))
          CFI DPL0 load(1, XDATA, add(CFA_XSP16, literal(-2)))
          CFI DPH0 load(1, XDATA, add(CFA_XSP16, literal(-1)))
          CFI CFA_SP SP+-2
          CFI CFA_XSP16 add(XSP16, 14)
          CFI Block cfiCond4 Using cfiCommon0
          CFI (cfiCond4) Function AT_pwr_single_bus_send_buf
          CFI (cfiCond4) Conditional ??CrossCallReturnLabel_1
          CFI (cfiCond4) R6 load(1, XDATA, add(CFA_XSP16, literal(-14)))
          CFI (cfiCond4) VB load(1, XDATA, add(CFA_XSP16, literal(-13)))
          CFI (cfiCond4) V0 load(1, XDATA, add(CFA_XSP16, literal(-12)))
          CFI (cfiCond4) V1 load(1, XDATA, add(CFA_XSP16, literal(-11)))
          CFI (cfiCond4) V2 load(1, XDATA, add(CFA_XSP16, literal(-10)))
          CFI (cfiCond4) V3 load(1, XDATA, add(CFA_XSP16, literal(-9)))
          CFI (cfiCond4) V4 load(1, XDATA, add(CFA_XSP16, literal(-8)))
          CFI (cfiCond4) V5 load(1, XDATA, add(CFA_XSP16, literal(-7)))
          CFI (cfiCond4) R7 load(1, XDATA, add(CFA_XSP16, literal(-6)))
          CFI (cfiCond4) ?RET_LOW load(1, XDATA, add(CFA_XSP16, literal(-5)))
          CFI (cfiCond4) ?RET_HIGH load(1, XDATA, add(CFA_XSP16, literal(-4)))
          CFI (cfiCond4) ?BRET_EXT load(1, XDATA, add(CFA_XSP16, literal(-3)))
          CFI (cfiCond4) DPL0 load(1, XDATA, add(CFA_XSP16, literal(-2)))
          CFI (cfiCond4) DPH0 load(1, XDATA, add(CFA_XSP16, literal(-1)))
          CFI (cfiCond4) CFA_SP SP+-2
          CFI (cfiCond4) CFA_XSP16 add(XSP16, 14)
          CFI Block cfiPicker5 Using cfiCommon1
          CFI (cfiPicker5) NoFunction
          CFI (cfiPicker5) Picker
        MOV       R0,?V0
        MOV       A,R6
        ADD       A,R0
        MOV       DPL,A
        CLR       A
        ADDC      A,R7
        MOV       DPH,A
        MOVX      A,@DPTR
        RET
          CFI EndBlock cfiCond3
          CFI EndBlock cfiCond4
          CFI EndBlock cfiPicker5
//  106 

        RSEG NEAR_CODE:CODE:NOROOT(0)
//  107 HAL_ISR_FUNCTION( pwr_single_bus_Isr, P2INT_VECTOR )
pwr_single_bus_Isr:
          CFI Block cfiBlock6 Using cfiCommon1
          CFI Function pwr_single_bus_Isr
        CODE
//  108 {
        FUNCALL pwr_single_bus_Isr, AT_Timer4_Set_Clear_Start_US
        LOCFRAME ISTACK, 0, STACK
        LOCFRAME PSTACK, 0, STACK
        LOCFRAME XSTACK, 15, STACK
        LOCFRAME IOVERLAY, 0, STATIC
        LOCFRAME DOVERLAY, 0, STATIC
        ARGFRAME ISTACK, 0, STACK
        ARGFRAME PSTACK, 0, STACK
        ARGFRAME XSTACK, 15, STACK
        ARGFRAME IOVERLAY, 0, STATIC
        ARGFRAME DOVERLAY, 0, STATIC
        FUNCALL pwr_single_bus_Isr, AT_Timer4_Stop_Get
        LOCFRAME ISTACK, 0, STACK
        LOCFRAME PSTACK, 0, STACK
        LOCFRAME XSTACK, 15, STACK
        LOCFRAME IOVERLAY, 0, STATIC
        LOCFRAME DOVERLAY, 0, STATIC
        ARGFRAME ISTACK, 0, STACK
        ARGFRAME PSTACK, 0, STACK
        ARGFRAME XSTACK, 15, STACK
        ARGFRAME IOVERLAY, 0, STATIC
        ARGFRAME DOVERLAY, 0, STATIC
        FUNCALL pwr_single_bus_Isr, AT_Timer4_Set_Clear_Start_US
        LOCFRAME ISTACK, 0, STACK
        LOCFRAME PSTACK, 0, STACK
        LOCFRAME XSTACK, 15, STACK
        LOCFRAME IOVERLAY, 0, STATIC
        LOCFRAME DOVERLAY, 0, STATIC
        ARGFRAME ISTACK, 0, STACK
        ARGFRAME PSTACK, 0, STACK
        ARGFRAME XSTACK, 15, STACK
        ARGFRAME IOVERLAY, 0, STATIC
        ARGFRAME DOVERLAY, 0, STATIC
        FUNCALL pwr_single_bus_Isr, AT_Timer4_Stop_Get
        LOCFRAME ISTACK, 0, STACK
        LOCFRAME PSTACK, 0, STACK
        LOCFRAME XSTACK, 15, STACK
        LOCFRAME IOVERLAY, 0, STATIC
        LOCFRAME DOVERLAY, 0, STATIC
        ARGFRAME ISTACK, 0, STACK
        ARGFRAME PSTACK, 0, STACK
        ARGFRAME XSTACK, 15, STACK
        ARGFRAME IOVERLAY, 0, STATIC
        ARGFRAME DOVERLAY, 0, STATIC
        FUNCALL pwr_single_bus_Isr, AT_Timer4_Set_Clear_Start_US
        LOCFRAME ISTACK, 0, STACK
        LOCFRAME PSTACK, 0, STACK
        LOCFRAME XSTACK, 15, STACK
        LOCFRAME IOVERLAY, 0, STATIC
        LOCFRAME DOVERLAY, 0, STATIC
        ARGFRAME ISTACK, 0, STACK
        ARGFRAME PSTACK, 0, STACK
        ARGFRAME XSTACK, 15, STACK
        ARGFRAME IOVERLAY, 0, STATIC
        ARGFRAME DOVERLAY, 0, STATIC
        FUNCALL pwr_single_bus_Isr, AT_Timer4_Stop_Get
        LOCFRAME ISTACK, 0, STACK
        LOCFRAME PSTACK, 0, STACK
        LOCFRAME XSTACK, 15, STACK
        LOCFRAME IOVERLAY, 0, STATIC
        LOCFRAME DOVERLAY, 0, STATIC
        ARGFRAME ISTACK, 0, STACK
        ARGFRAME PSTACK, 0, STACK
        ARGFRAME XSTACK, 15, STACK
        ARGFRAME IOVERLAY, 0, STATIC
        ARGFRAME DOVERLAY, 0, STATIC
        REQUIRE ?V0
        REQUIRE ?V1
        PUSH      A
          CFI A Frame(CFA_SP, 3)
          CFI CFA_SP SP+-3
        MOV       A,#-0xf
        LCALL     ?INTERRUPT_ENTER_XSP
          CFI B load(1, XDATA, add(CFA_XSP16, literal(-1)))
          CFI VB load(1, XDATA, add(CFA_XSP16, literal(-2)))
          CFI PSW load(1, XDATA, add(CFA_XSP16, literal(-3)))
          CFI DPL0 load(1, XDATA, add(CFA_XSP16, literal(-4)))
          CFI DPH0 load(1, XDATA, add(CFA_XSP16, literal(-5)))
          CFI R7 load(1, XDATA, add(CFA_XSP16, literal(-6)))
          CFI R6 load(1, XDATA, add(CFA_XSP16, literal(-7)))
          CFI R5 load(1, XDATA, add(CFA_XSP16, literal(-8)))
          CFI R4 load(1, XDATA, add(CFA_XSP16, literal(-9)))
          CFI V1 load(1, XDATA, add(CFA_XSP16, literal(-10)))
          CFI V0 load(1, XDATA, add(CFA_XSP16, literal(-11)))
          CFI R3 load(1, XDATA, add(CFA_XSP16, literal(-12)))
          CFI R2 load(1, XDATA, add(CFA_XSP16, literal(-13)))
          CFI R1 load(1, XDATA, add(CFA_XSP16, literal(-14)))
          CFI R0 load(1, XDATA, add(CFA_XSP16, literal(-15)))
          CFI CFA_XSP16 add(XSP16, 15)
        ; Saved register size: 15
        ; Auto size: 0
//  109   HAL_ENTER_ISR();
        MOV       C,0xa8.7
        CLR       A
        RLC       A
        MOV       R6,A
        SETB      0xa8.7
//  110 
//  111   IEN2  &= ~BV(1); // disable port interrupt
        ANL       0x9a,#0xfd
//  112   P2IEN &= ~PWR_SINGLE_BUS_BV; // disable pin interrupt
        ANL       0xac,#0xfe
//  113 
//  114   if(PWR_SINGLE_BUS_PIN)
        MOV       C,0xa0.0
        JC        ??pwr_single_bus_Isr_0
//  115   {
//  116     goto pwr_isr_exit;
//  117   }
//  118 
//  119   // start to capture the head (4 ms)
//  120   AT_Timer4_Set_Clear_Start_US(0xFA);    //(250*7)*4=7000
        ; Setup parameters for call to function AT_Timer4_Set_Clear_Start_US
        MOV       R1,#-0x6
        LCALL     `??AT_Timer4_Set_Clear_Start_US::?relay`; Banked call to: AT_Timer4_Set_Clear_Start_US
//  121   while(1)
//  122   {
//  123 #ifdef WDT_IN_PM1
//  124     WatchDogClear();
??pwr_single_bus_Isr_1:
        LCALL     ?Subroutine1
//  125 #endif
//  126     if(T4IF)
??CrossCallReturnLabel_2:
        MOV       C,0xc0.4
        JNC       ??pwr_single_bus_Isr_2
//  127     {
//  128       if(tim4_tick_peroid==7)    //overflow
        MOV       DPTR,#tim4_tick_peroid
        MOVX      A,@DPTR
        XRL       A,#0x7
        JZ        ??pwr_single_bus_Isr_3
//  129       {
//  130         T4IF = 0;
//  131         goto pwr_isr_exit;
//  132       }
//  133       T4IF = 0;
        CLR       0xc0.4
//  134       
//  135     }
//  136     if(PWR_SINGLE_BUS_PIN)
??pwr_single_bus_Isr_2:
        MOV       C,0xa0.0
        JNC       ??pwr_single_bus_Isr_1
//  137       break;
//  138   }
//  139   pwr_single_bus_rcv_low = AT_Timer4_Stop_Get()+tim4_tick_peroid*256;
        ; Setup parameters for call to function AT_Timer4_Stop_Get
        LCALL     `??AT_Timer4_Stop_Get::?relay`; Banked call to: AT_Timer4_Stop_Get
        MOV       A,R1
        MOV       R2,A
        MOV       DPTR,#tim4_tick_peroid
        MOVX      A,@DPTR
        MOV       R0,A
        CLR       A
        XCH       A,R0
        MOV       R1,A
        MOV       A,R2
        ADD       A,R0
        MOV       DPTR,#pwr_single_bus_rcv_low
        MOVX      @DPTR,A
        INC       DPTR
        MOV       A,R1
        MOVX      @DPTR,A
//  140   if(pwr_single_bus_rcv_low < 500)      //现在的每次计数相当于原来的4个计数
        MOV       DPTR,#pwr_single_bus_rcv_low
        MOVX      A,@DPTR
        SUBB      A,#-0xc
        INC       DPTR
        MOVX      A,@DPTR
        SUBB      A,#0x1
        JC        ??pwr_single_bus_Isr_0
//  141   {
//  142     goto pwr_isr_exit;
//  143   }
//  144 
//  145   pwr_single_bus_rcv_len = 0;
        MOV       DPTR,#pwr_single_bus_rcv_len
        CLR       A
        MOVX      @DPTR,A
//  146   pwr_single_bus_rcv_bit = 0;
        MOV       DPTR,#pwr_single_bus_rcv_bit
        SJMP      ??pwr_single_bus_Isr_4
//  147 
//  148   // start to capture data
//  149   while(1)
//  150   {
//  151 #ifdef WDT_IN_PM1
//  152     WatchDogClear();
//  153 #endif
//  154 
//  155     // get high level time
//  156     AT_Timer4_Set_Clear_Start_US(100);
//  157     while(PWR_SINGLE_BUS_PIN)
//  158     {
//  159       if(T4IF)
//  160       {
//  161         T4IF = 0;
//  162 
//  163         if((pwr_single_bus_rcv_len > 0) && (pwr_single_bus_rcv_bit == 0))
//  164         {
//  165           //osal_set_event(zclDoorLock_TaskID, DOORLOCK_HANDLE_RSP_EVT);
//  166           for(uint8 i=0;i!=pwr_single_bus_rcv_bit;++i)
//  167             printf("%02x\r\n",pwr_single_bus_rcv_buf[i]);
//  168           goto pwr_isr_exit;
//  169         }
//  170 
//  171         goto pwr_isr_exit;
//  172       }
//  173     }
//  174     pwr_single_bus_rcv_high = AT_Timer4_Stop_Get();
//  175 
//  176     // get low level time
//  177     AT_Timer4_Set_Clear_Start_US(100);
//  178     while(!PWR_SINGLE_BUS_PIN)
//  179     {
//  180       if(T4IF)
//  181       {
//  182         T4IF = 0;
//  183         goto pwr_isr_exit;
//  184       }
//  185     }
//  186     pwr_single_bus_rcv_low = AT_Timer4_Stop_Get();
//  187 
//  188     // check the total time
//  189     pwr_single_bus_rcv_total = pwr_single_bus_rcv_high + pwr_single_bus_rcv_low;
//  190     if ((pwr_single_bus_rcv_total < 30) || (pwr_single_bus_rcv_total > 87))
//  191       goto pwr_isr_exit; // tolerance of 30%
//  192 
//  193     // save the data bit
//  194     if(pwr_single_bus_rcv_high > pwr_single_bus_rcv_low)
//  195       pwr_single_bus_rcv_buf[pwr_single_bus_rcv_len] |= BV(pwr_single_bus_rcv_bit++);
//  196     else
//  197       pwr_single_bus_rcv_buf[pwr_single_bus_rcv_len] &= ~BV(pwr_single_bus_rcv_bit++);
??pwr_single_bus_Isr_5:
        MOV       A,R4
        CPL       A
        MOV       R2,A
        MOV       DPL,R0
        MOV       DPH,R1
        MOVX      A,@DPTR
        ANL       A,R2
??pwr_single_bus_Isr_6:
        MOVX      @DPTR,A
        MOV       DPTR,#pwr_single_bus_rcv_bit
        MOVX      A,@DPTR
        INC       A
        MOVX      @DPTR,A
//  198 
//  199     // increase the index
//  200     if(pwr_single_bus_rcv_bit == 8) // get a whole byte (8 bits)
        MOVX      A,@DPTR
        XRL       A,#0x8
        JNZ       ??pwr_single_bus_Isr_7
//  201     {
//  202       pwr_single_bus_rcv_bit = 0;
        CLR       A
        MOVX      @DPTR,A
//  203       pwr_single_bus_rcv_len++;
        MOV       DPTR,#pwr_single_bus_rcv_len
        MOVX      A,@DPTR
        INC       A
??pwr_single_bus_Isr_4:
        MOVX      @DPTR,A
//  204     }
??pwr_single_bus_Isr_7:
        LCALL     ?Subroutine1
??CrossCallReturnLabel_3:
        ; Setup parameters for call to function AT_Timer4_Set_Clear_Start_US
        MOV       R1,#0x64
        LCALL     `??AT_Timer4_Set_Clear_Start_US::?relay`; Banked call to: AT_Timer4_Set_Clear_Start_US
??pwr_single_bus_Isr_8:
        MOV       C,0xa0.0
        JNC       ??pwr_single_bus_Isr_9
        MOV       C,0xc0.4
        JNC       ??pwr_single_bus_Isr_8
??pwr_single_bus_Isr_3:
        CLR       0xc0.4
//  205   }
//  206 
//  207 pwr_isr_exit:
//  208 
//  209   IEN2  |= BV(1); // enable port interrupt
??pwr_single_bus_Isr_0:
        ORL       0x9a,#0x2
//  210   P2IEN |= PWR_SINGLE_BUS_BV; // enable pin interrupt
        ORL       0xac,#0x1
//  211 
//  212   P2IFG = 0x00;
        MOV       0x8b,#0x0
//  213   P2IF = 0x00;
        CLR       0xe8.0
//  214 
//  215   CLEAR_SLEEP_MODE();
        MOV       halSleepPconValue,#0x0
//  216   HAL_EXIT_ISR();
        MOV       A,R6
        MOV       C,0xE0 /* A   */.0
        MOV       0xa8.7,C
//  217 }
        MOV       R7,#0x2
        LJMP      ?INTERRUPT_LEAVE_XSP
??pwr_single_bus_Isr_9:
        ; Setup parameters for call to function AT_Timer4_Stop_Get
        LCALL     `??AT_Timer4_Stop_Get::?relay`; Banked call to: AT_Timer4_Stop_Get
        MOV       A,R1
        MOV       DPTR,#pwr_single_bus_rcv_high
        MOVX      @DPTR,A
        INC       DPTR
        CLR       A
        MOVX      @DPTR,A
        ; Setup parameters for call to function AT_Timer4_Set_Clear_Start_US
        MOV       R1,#0x64
        LCALL     `??AT_Timer4_Set_Clear_Start_US::?relay`; Banked call to: AT_Timer4_Set_Clear_Start_US
??pwr_single_bus_Isr_10:
        MOV       C,0xa0.0
        JC        ??pwr_single_bus_Isr_11
        MOV       C,0xc0.4
        JNC       ??pwr_single_bus_Isr_10
        SJMP      ??pwr_single_bus_Isr_3
??pwr_single_bus_Isr_11:
        ; Setup parameters for call to function AT_Timer4_Stop_Get
        LCALL     `??AT_Timer4_Stop_Get::?relay`; Banked call to: AT_Timer4_Stop_Get
        MOV       A,R1
        MOV       DPTR,#pwr_single_bus_rcv_low
        MOVX      @DPTR,A
        INC       DPTR
        CLR       A
        MOVX      @DPTR,A
        MOV       DPTR,#pwr_single_bus_rcv_high
        MOVX      A,@DPTR
        MOV       R0,A
        INC       DPTR
        MOVX      A,@DPTR
        MOV       R1,A
        MOV       DPTR,#pwr_single_bus_rcv_low
        MOVX      A,@DPTR
        ADD       A,R0
        MOV       R0,A
        CLR       A
        ADDC      A,R1
        MOV       R1,A
        MOV       DPTR,#pwr_single_bus_rcv_total
        MOV       A,R0
        MOVX      @DPTR,A
        INC       DPTR
        MOV       A,R1
        MOVX      @DPTR,A
        MOV       DPTR,#pwr_single_bus_rcv_total
        MOVX      A,@DPTR
        ADD       A,#-0x1e
        MOV       R0,A
        INC       DPTR
        MOVX      A,@DPTR
        ADDC      A,#-0x1
        MOV       R1,A
        CLR       C
        MOV       A,R0
        SUBB      A,#0x3a
        MOV       A,R1
        SUBB      A,#0x0
        JNC       ??pwr_single_bus_Isr_0
        MOV       ?V0,#0x1
        MOV       ?V1,#0x0
        MOV       DPTR,#pwr_single_bus_rcv_bit
        MOVX      A,@DPTR
        MOV       R0,#?V0
        LCALL     ?S_SHL
        MOV       A,?V0
        MOV       R4,A
        MOV       DPTR,#pwr_single_bus_rcv_len
        MOVX      A,@DPTR
        MOV       R0,A
        MOV       A,#pwr_single_bus_rcv_buf & 0xff
        ADD       A,R0
        MOV       R0,A
        CLR       A
        ADDC      A,#(pwr_single_bus_rcv_buf >> 8) & 0xff
        MOV       R1,A
        MOV       DPTR,#pwr_single_bus_rcv_low
        PUSH      DPL
          CFI CFA_SP SP+-4
        MOV       DPTR,#pwr_single_bus_rcv_high
        MOVX      A,@DPTR
        MOV       R2,A
        INC       DPTR
        MOVX      A,@DPTR
        MOV       R3,A
        MOV       DPH,#(pwr_single_bus_rcv_low >> 8) & 0xff
        POP       DPL
          CFI CFA_SP SP+-3
        CLR       C
        MOVX      A,@DPTR
        SUBB      A,R2
        INC       DPTR
        MOVX      A,@DPTR
        SUBB      A,R3
        JC        $+5
        LJMP      ??pwr_single_bus_Isr_5
        MOV       DPL,R0
        MOV       DPH,R1
        MOVX      A,@DPTR
        ORL       A,R4
        LJMP      ??pwr_single_bus_Isr_6
          CFI EndBlock cfiBlock6
        REQUIRE _A_IEN0
        REQUIRE IEN2
        REQUIRE P2IEN
        REQUIRE _A_P2
        REQUIRE WDCTL
        REQUIRE _A_IRCON
        REQUIRE P2IFG
        REQUIRE _A_IRCON2

        RSEG NEAR_CODE:CODE:NOROOT(0)
?Subroutine1:
          CFI Block cfiCond7 Using cfiCommon1
          CFI Function pwr_single_bus_Isr
          CFI Conditional ??CrossCallReturnLabel_2
          CFI A Frame(CFA_SP, 3)
          CFI R0 load(1, XDATA, add(CFA_XSP16, literal(-15)))
          CFI R1 load(1, XDATA, add(CFA_XSP16, literal(-14)))
          CFI R2 load(1, XDATA, add(CFA_XSP16, literal(-13)))
          CFI R3 load(1, XDATA, add(CFA_XSP16, literal(-12)))
          CFI V0 load(1, XDATA, add(CFA_XSP16, literal(-11)))
          CFI V1 load(1, XDATA, add(CFA_XSP16, literal(-10)))
          CFI R4 load(1, XDATA, add(CFA_XSP16, literal(-9)))
          CFI R5 load(1, XDATA, add(CFA_XSP16, literal(-8)))
          CFI R6 load(1, XDATA, add(CFA_XSP16, literal(-7)))
          CFI R7 load(1, XDATA, add(CFA_XSP16, literal(-6)))
          CFI DPH0 load(1, XDATA, add(CFA_XSP16, literal(-5)))
          CFI DPL0 load(1, XDATA, add(CFA_XSP16, literal(-4)))
          CFI PSW load(1, XDATA, add(CFA_XSP16, literal(-3)))
          CFI VB load(1, XDATA, add(CFA_XSP16, literal(-2)))
          CFI B load(1, XDATA, add(CFA_XSP16, literal(-1)))
          CFI CFA_SP SP+-5
          CFI CFA_XSP16 add(XSP16, 15)
          CFI Block cfiCond8 Using cfiCommon1
          CFI (cfiCond8) Function pwr_single_bus_Isr
          CFI (cfiCond8) Conditional ??CrossCallReturnLabel_3
          CFI (cfiCond8) A Frame(CFA_SP, 3)
          CFI (cfiCond8) R0 load(1, XDATA, add(CFA_XSP16, literal(-15)))
          CFI (cfiCond8) R1 load(1, XDATA, add(CFA_XSP16, literal(-14)))
          CFI (cfiCond8) R2 load(1, XDATA, add(CFA_XSP16, literal(-13)))
          CFI (cfiCond8) R3 load(1, XDATA, add(CFA_XSP16, literal(-12)))
          CFI (cfiCond8) V0 load(1, XDATA, add(CFA_XSP16, literal(-11)))
          CFI (cfiCond8) V1 load(1, XDATA, add(CFA_XSP16, literal(-10)))
          CFI (cfiCond8) R4 load(1, XDATA, add(CFA_XSP16, literal(-9)))
          CFI (cfiCond8) R5 load(1, XDATA, add(CFA_XSP16, literal(-8)))
          CFI (cfiCond8) R6 load(1, XDATA, add(CFA_XSP16, literal(-7)))
          CFI (cfiCond8) R7 load(1, XDATA, add(CFA_XSP16, literal(-6)))
          CFI (cfiCond8) DPH0 load(1, XDATA, add(CFA_XSP16, literal(-5)))
          CFI (cfiCond8) DPL0 load(1, XDATA, add(CFA_XSP16, literal(-4)))
          CFI (cfiCond8) PSW load(1, XDATA, add(CFA_XSP16, literal(-3)))
          CFI (cfiCond8) VB load(1, XDATA, add(CFA_XSP16, literal(-2)))
          CFI (cfiCond8) B load(1, XDATA, add(CFA_XSP16, literal(-1)))
          CFI (cfiCond8) CFA_SP SP+-5
          CFI (cfiCond8) CFA_XSP16 add(XSP16, 15)
          CFI Block cfiPicker9 Using cfiCommon1
          CFI (cfiPicker9) NoFunction
          CFI (cfiPicker9) Picker
        MOV       A,0xc9
        ANL       A,#0xf
        ORL       A,#0xa0
        MOV       0xc9,A
        MOV       A,0xc9
        ANL       A,#0xf
        ORL       A,#0x50
        MOV       0xc9,A
        RET
          CFI EndBlock cfiCond7
          CFI EndBlock cfiCond8
          CFI EndBlock cfiPicker9

        COMMON INTVEC:CODE:ROOT(0)
        ORG 51
`??pwr_single_bus_Isr::??INTVEC 51`:
        LJMP       (pwr_single_bus_Isr)

        RSEG BANK_RELAYS:CODE:REORDER:NOROOT(0)
`??AT_pwr_single_bus_input::?relay`:
        CODE
        LCALL   ?BDISPATCH
        DATA24
        DC24    AT_pwr_single_bus_input

        RSEG BANK_RELAYS:CODE:REORDER:NOROOT(0)
`??AT_pwr_single_bus_init::?relay`:
        CODE
        LCALL   ?BDISPATCH
        DATA24
        DC24    AT_pwr_single_bus_init

        RSEG BANK_RELAYS:CODE:REORDER:NOROOT(0)
`??AT_pwr_single_bus_send_buf::?relay`:
        CODE
        LCALL   ?BDISPATCH
        DATA24
        DC24    AT_pwr_single_bus_send_buf

        RSEG XDATA_ROM_C:CONST:REORDER:NOROOT(0)
        DATA8
`?<Constant "|down|-----|%02d byte...">`:
        DB "|down|-----|%02d bytes|: "

        RSEG XDATA_ROM_C:CONST:REORDER:NOROOT(0)
        DATA8
`?<Constant "%02X ">`:
        DB "%02X "

        RSEG XDATA_ROM_C:CONST:REORDER:NOROOT(0)
        DATA8
`?<Constant "\\r\\n">`:
        DB "\015\012"

        RSEG XDATA_ROM_C:CONST:REORDER:NOROOT(0)
        DATA8
        DB "%02x\015\012"

        END
// 
// 243 bytes in segment BANKED_CODE
//  18 bytes in segment BANK_RELAYS
//   3 bytes in segment INTVEC
// 334 bytes in segment NEAR_CODE
//  14 bytes in segment SFR_AN
//  42 bytes in segment XDATA_ROM_C
// 108 bytes in segment XDATA_Z
// 
// 352 bytes of CODE     memory (+  3 bytes shared)
//  42 bytes of CONST    memory
//   0 bytes of DATA     memory (+ 14 bytes shared)
// 243 bytes of HUGECODE memory
// 108 bytes of XDATA    memory
//
//Errors: none
//Warnings: none
