///////////////////////////////////////////////////////////////////////////////
//
// IAR C/C++ Compiler V10.30.1.6000 for 8051              30/Nov/2021  19:12:52
// Copyright 2004-2018 IAR Systems AB.
// PC-locked license - IAR Embedded Workbench for 8051
//
//    Core               =  plain
//    Code model         =  banked
//    Data model         =  large
//    Calling convention =  xdata reentrant
//    Constant location  =  data_rom
//    Dptr setup         =  1,16
//                          
//    Source file        =  
//        F:\2workspace\doorlock-CC2530\ZigBee-DoorLock-2021.09.27\Projects\zstack\AT-command\ATApp\Source\Controller\AT_pwr_single_bus.c
//    Command line       =  
//        -f C:\Users\ADMINI~1\AppData\Local\Temp\EW5D2B.tmp
//        (F:\2workspace\doorlock-CC2530\ZigBee-DoorLock-2021.09.27\Projects\zstack\AT-command\ATApp\Source\Controller\AT_pwr_single_bus.c
//        -D WDT_IN_PM1 -D ZIGBEEPRO -D INTER_PAN -D ZIGBEE_FREQ_AGILITY -D
//        DISABLE_GREENPOWER_BASIC_PROXY -D REFLECTOR -D HAL_UART=FALSE -D
//        HAL_LED=FALSE -D HAL_KEY=FALSE -D SECURE=1 -D TC_LINKKEY_JOIN -D
//        NV_INIT -D NV_RESTORE -D POWER_SAVING -D NWK_AUTO_POLL -D xZTOOL_P1
//        -D xMT_TASK -D xMT_APP_FUNC -D xMT_SYS_FUNC -D xMT_ZDO_FUNC -D
//        xMT_ZDO_MGMT -D xMT_APP_CNF_FUNC -D xLEGACY_LCD_DEBUG -D
//        xLCD_SUPPORTED=DEBUG -D MULTICAST_ENABLED=FALSE -D ZCL_READ -D
//        ZCL_WRITE -D ZCL_DISCOVER -D ZCL_BASIC -D ZCL_IDENTIFY -D ZCL_SCENES
//        -D ZCL_GROUPS -D BDB_REPORTING -D ZCL_DOORLOCK -D ZCL_DOORLOCK_EXT -D
//        ISR_KEYINTERRUPT -lC
//        F:\2workspace\doorlock-CC2530\ZigBee-DoorLock-2021.09.27\Projects\zstack\AT-command\ATApp\CC2530DB\EndDeviceEB\List
//        -lA
//        F:\2workspace\doorlock-CC2530\ZigBee-DoorLock-2021.09.27\Projects\zstack\AT-command\ATApp\CC2530DB\EndDeviceEB\List
//        --diag_suppress Pe001,Pa010 -o
//        F:\2workspace\doorlock-CC2530\ZigBee-DoorLock-2021.09.27\Projects\zstack\AT-command\ATApp\CC2530DB\EndDeviceEB\Obj
//        -e --debug --core=plain --dptr=16,1 --data_model=large
//        --code_model=banked --calling_convention=xdata_reentrant
//        --place_constants=data_rom --nr_virtual_regs 16 -f
//        F:\2workspace\doorlock-CC2530\ZigBee-DoorLock-2021.09.27\Projects\zstack\AT-command\ATApp\CC2530DB\..\..\..\Tools\CC2530DB\f8wEndev.cfg
//        (-DCPU32MHZ -DROOT=__near_func -DMAC_CFG_TX_DATA_MAX=3
//        -DMAC_CFG_TX_MAX=6 -DMAC_CFG_RX_MAX=3) -f
//        F:\2workspace\doorlock-CC2530\ZigBee-DoorLock-2021.09.27\Projects\zstack\AT-command\ATApp\CC2530DB\..\..\..\Tools\CC2530DB\f8wConfig.cfg
//        (-DZIGBEEPRO -DSECURE=1 -DZG_SECURE_DYNAMIC=0 -DREFLECTOR
//        -DDEFAULT_CHANLIST=0x00000800 -DZDAPP_CONFIG_PAN_ID=0xFFFF
//        -DNWK_START_DELAY=100 -DEXTENDED_JOINING_RANDOM_MASK=0x007F
//        -DBEACON_REQUEST_DELAY=100 -DBEACON_REQ_DELAY_MASK=0x00FF
//        -DLINK_STATUS_JITTER_MASK=0x007F -DROUTE_EXPIRY_TIME=30
//        -DAPSC_ACK_WAIT_DURATION_POLLED=3000 -DNWK_INDIRECT_MSG_TIMEOUT=7
//        -DMAX_RREQ_ENTRIES=8 -DAPSC_MAX_FRAME_RETRIES=3
//        -DNWK_MAX_DATA_RETRIES=2 -DMAX_POLL_FAILURE_RETRIES=2 -DMAX_BCAST=9
//        -DAPS_MAX_GROUPS=10 -DMAX_RTG_ENTRIES=15 -DNWK_MAX_BINDING_ENTRIES=4
//        -DMAX_BINDING_CLUSTER_IDS=4 -DDEFAULT_KEY={0}
//        -DMAC_MAX_FRAME_SIZE=116 -DZDNWKMGR_MIN_TRANSMISSIONS=20
//        "-DCONST=const __code" -DGENERIC=__generic -DRFD_RCVC_ALWAYS_ON=FALSE
//        -DPOLL_RATE=300 -DQUEUED_POLL_RATE=100 -DRESPONSE_POLL_RATE=100
//        -DREJOIN_POLL_RATE=440 -DREJOIN_BACKOFF=900000 -DREJOIN_SCAN=900000)
//        -f
//        F:\2workspace\doorlock-CC2530\ZigBee-DoorLock-2021.09.27\Projects\zstack\AT-command\ATApp\CC2530DB\..\..\..\Tools\CC2530DB\f8wZCL.cfg
//        -I
//        F:\2workspace\doorlock-CC2530\ZigBee-DoorLock-2021.09.27\Projects\zstack\AT-command\ATApp\CC2530DB\
//        -I
//        F:\2workspace\doorlock-CC2530\ZigBee-DoorLock-2021.09.27\Projects\zstack\AT-command\ATApp\CC2530DB\..\Source\
//        -I
//        F:\2workspace\doorlock-CC2530\ZigBee-DoorLock-2021.09.27\Projects\zstack\AT-command\ATApp\CC2530DB\..\Source\ZCL\
//        -I
//        F:\2workspace\doorlock-CC2530\ZigBee-DoorLock-2021.09.27\Projects\zstack\AT-command\ATApp\CC2530DB\..\Source\UserAPI\
//        -I
//        F:\2workspace\doorlock-CC2530\ZigBee-DoorLock-2021.09.27\Projects\zstack\AT-command\ATApp\CC2530DB\..\Source\Controller\
//        -I
//        F:\2workspace\doorlock-CC2530\ZigBee-DoorLock-2021.09.27\Projects\zstack\AT-command\ATApp\CC2530DB\..\..\..\ZMain\TI2530DB\
//        -I
//        F:\2workspace\doorlock-CC2530\ZigBee-DoorLock-2021.09.27\Projects\zstack\AT-command\ATApp\CC2530DB\..\..\..\..\..\Components\hal\include\
//        -I
//        F:\2workspace\doorlock-CC2530\ZigBee-DoorLock-2021.09.27\Projects\zstack\AT-command\ATApp\CC2530DB\..\..\..\..\..\Components\hal\target\CC2530EB\
//        -I
//        F:\2workspace\doorlock-CC2530\ZigBee-DoorLock-2021.09.27\Projects\zstack\AT-command\ATApp\CC2530DB\..\..\..\..\..\Components\mac\include\
//        -I
//        F:\2workspace\doorlock-CC2530\ZigBee-DoorLock-2021.09.27\Projects\zstack\AT-command\ATApp\CC2530DB\..\..\..\..\..\Components\mac\high_level\
//        -I
//        F:\2workspace\doorlock-CC2530\ZigBee-DoorLock-2021.09.27\Projects\zstack\AT-command\ATApp\CC2530DB\..\..\..\..\..\Components\mac\low_level\srf04\
//        -I
//        F:\2workspace\doorlock-CC2530\ZigBee-DoorLock-2021.09.27\Projects\zstack\AT-command\ATApp\CC2530DB\..\..\..\..\..\Components\mac\low_level\srf04\single_chip\
//        -I
//        F:\2workspace\doorlock-CC2530\ZigBee-DoorLock-2021.09.27\Projects\zstack\AT-command\ATApp\CC2530DB\..\..\..\..\..\Components\mt\
//        -I
//        F:\2workspace\doorlock-CC2530\ZigBee-DoorLock-2021.09.27\Projects\zstack\AT-command\ATApp\CC2530DB\..\..\..\..\..\Components\osal\include\
//        -I
//        F:\2workspace\doorlock-CC2530\ZigBee-DoorLock-2021.09.27\Projects\zstack\AT-command\ATApp\CC2530DB\..\..\..\..\..\Components\services\saddr\
//        -I
//        F:\2workspace\doorlock-CC2530\ZigBee-DoorLock-2021.09.27\Projects\zstack\AT-command\ATApp\CC2530DB\..\..\..\..\..\Components\services\sdata\
//        -I
//        F:\2workspace\doorlock-CC2530\ZigBee-DoorLock-2021.09.27\Projects\zstack\AT-command\ATApp\CC2530DB\..\..\..\..\..\Components\stack\af\
//        -I
//        F:\2workspace\doorlock-CC2530\ZigBee-DoorLock-2021.09.27\Projects\zstack\AT-command\ATApp\CC2530DB\..\..\..\..\..\Components\stack\bdb\
//        -I
//        F:\2workspace\doorlock-CC2530\ZigBee-DoorLock-2021.09.27\Projects\zstack\AT-command\ATApp\CC2530DB\..\..\..\..\..\Components\stack\gp\
//        -I
//        F:\2workspace\doorlock-CC2530\ZigBee-DoorLock-2021.09.27\Projects\zstack\AT-command\ATApp\CC2530DB\..\..\..\..\..\Components\stack\nwk\
//        -I
//        F:\2workspace\doorlock-CC2530\ZigBee-DoorLock-2021.09.27\Projects\zstack\AT-command\ATApp\CC2530DB\..\..\..\..\..\Components\stack\sapi\
//        -I
//        F:\2workspace\doorlock-CC2530\ZigBee-DoorLock-2021.09.27\Projects\zstack\AT-command\ATApp\CC2530DB\..\..\..\..\..\Components\stack\sec\
//        -I
//        F:\2workspace\doorlock-CC2530\ZigBee-DoorLock-2021.09.27\Projects\zstack\AT-command\ATApp\CC2530DB\..\..\..\..\..\Components\stack\sys\
//        -I
//        F:\2workspace\doorlock-CC2530\ZigBee-DoorLock-2021.09.27\Projects\zstack\AT-command\ATApp\CC2530DB\..\..\..\..\..\Components\stack\zcl\
//        -I
//        F:\2workspace\doorlock-CC2530\ZigBee-DoorLock-2021.09.27\Projects\zstack\AT-command\ATApp\CC2530DB\..\..\..\..\..\Components\stack\zdo\
//        -I
//        F:\2workspace\doorlock-CC2530\ZigBee-DoorLock-2021.09.27\Projects\zstack\AT-command\ATApp\CC2530DB\..\..\..\..\..\Components\zmac\
//        -I
//        F:\2workspace\doorlock-CC2530\ZigBee-DoorLock-2021.09.27\Projects\zstack\AT-command\ATApp\CC2530DB\..\..\..\..\..\Components\zmac\f8w\
//        -Ohz --require_prototypes)
//    Locale             =  Chinese (Simplified)_CHN.936
//    List file          =  
//        F:\2workspace\doorlock-CC2530\ZigBee-DoorLock-2021.09.27\Projects\zstack\AT-command\ATApp\CC2530DB\EndDeviceEB\List\AT_pwr_single_bus.s51
//
///////////////////////////////////////////////////////////////////////////////

        NAME AT_pwr_single_bus

        RTMODEL "__SystemLibrary", "CLib"
        RTMODEL "__calling_convention", "xdata_reentrant"
        RTMODEL "__code_model", "banked"
        RTMODEL "__core", "plain"
        RTMODEL "__data_model", "large"
        RTMODEL "__dptr_size", "16"
        RTMODEL "__extended_stack", "disabled"
        RTMODEL "__location_for_constants", "data"
        RTMODEL "__number_of_dptrs", "1"
        RTMODEL "__register_banks", "*"
        RTMODEL "__rt_version", "1"

        RSEG DOVERLAY:DATA:NOROOT(0)
        RSEG IOVERLAY:IDATA:NOROOT(0)
        RSEG ISTACK:IDATA:NOROOT(0)
        RSEG PSTACK:XDATA:NOROOT(0)
        RSEG XSTACK:XDATA:NOROOT(0)

        EXTERN ?V0
        EXTERN ?V1
        EXTERN ?V2
        EXTERN ?V3
        EXTERN ?V4
        EXTERN ?V5
        EXTERN ?V6
        EXTERN ?V7
        EXTERN ?ALLOC_XSTACK8
        EXTERN ?BANKED_ENTER_XDATA
        EXTERN ?BANKED_LEAVE_XDATA
        EXTERN ?BDISPATCH
        EXTERN ?BRET
        EXTERN ?DEALLOC_XSTACK8
        EXTERN ?INTERRUPT_ENTER_XSP
        EXTERN ?INTERRUPT_LEAVE_XSP
        EXTERN ?L_ADD
        EXTERN ?L_MOV_TO_X
        EXTERN ?L_SHL
        EXTERN ?PUSH_XSTACK_I_ONE
        EXTERN ?PUSH_XSTACK_I_TWO
        EXTERN ?S_SHL
        EXTERN ?XSP
        EXTERN ?XSTACK_DISP0_8
        EXTERN ?XSTACK_DISP101_8
        EXTERN ?XSTACK_DISP102_8
        EXTERN __INIT_XDATA_Z

        PUBLIC `??AT_pwr_single_bus_init::?relay`
        FUNCTION `??AT_pwr_single_bus_init::?relay`,0203H
        FUNCTION `??AT_pwr_single_bus_input::?relay`,0203H
        PUBLIC `??AT_pwr_single_bus_send_buf::?relay`
        FUNCTION `??AT_pwr_single_bus_send_buf::?relay`,0203H
        FUNCTION `??pwr_senddata::?relay`,0203H
        PUBWEAK `??pwr_single_bus_Isr::??INTVEC 51`
        PUBLIC AT_pwr_single_bus_init
        FUNCTION AT_pwr_single_bus_init,021203H
        ARGFRAME XSTACK, 0, STACK
        LOCFRAME ISTACK, 2, STACK
        FUNCTION AT_pwr_single_bus_input,0203H
        ARGFRAME XSTACK, 14, STACK
        ARGFRAME IOVERLAY, 0, STATIC
        ARGFRAME DOVERLAY, 0, STATIC
        PUBLIC AT_pwr_single_bus_send_buf
        FUNCTION AT_pwr_single_bus_send_buf,0a1203H
        ARGFRAME XSTACK, 0, STACK
        LOCFRAME XSTACK, 16, STACK
        PUBWEAK IEN2
        PUBWEAK IP0
        PUBWEAK IP1
        PUBWEAK P2DIR
        PUBWEAK P2IEN
        PUBWEAK P2IFG
        PUBWEAK P2INP
        PUBWEAK P2SEL
        PUBWEAK PICTL
        PUBWEAK WDCTL
        PUBWEAK _A_IEN0
        PUBWEAK _A_IRCON
        PUBWEAK _A_IRCON2
        PUBWEAK _A_P2
        FUNCTION pwr_senddata,0a1203H
        ARGFRAME XSTACK, 15, STACK
        ARGFRAME IOVERLAY, 0, STATIC
        ARGFRAME DOVERLAY, 0, STATIC
        LOCFRAME ISTACK, 1, STACK
        LOCFRAME XSTACK, 41, STACK
        PUBLIC pwr_single_bus_Isr
        FUNCTION pwr_single_bus_Isr,0a1233H
        ARGFRAME XSTACK, 0, STACK
        LOCFRAME ISTACK, 2, STACK
        LOCFRAME XSTACK, 15, STACK
        PUBLIC pwr_single_bus_rcv_bit
        PUBLIC pwr_single_bus_rcv_buf
        PUBLIC pwr_single_bus_rcv_high
        PUBLIC pwr_single_bus_rcv_len
        PUBLIC pwr_single_bus_rcv_low
        PUBLIC pwr_single_bus_rcv_total
        
          CFI Names cfiNames0
          CFI StackFrame CFA_SP SP IDATA
          CFI StackFrame CFA_PSP16 PSP16 XDATA
          CFI StackFrame CFA_XSP16 XSP16 XDATA
          CFI StaticOverlayFrame CFA_IOVERLAY IOVERLAY
          CFI StaticOverlayFrame CFA_DOVERLAY DOVERLAY
          CFI Resource `PSW.CY`:1, `B.BR0`:1, `B.BR1`:1, `B.BR2`:1, `B.BR3`:1
          CFI Resource `B.BR4`:1, `B.BR5`:1, `B.BR6`:1, `B.BR7`:1, `VB.BR8`:1
          CFI Resource `VB.BR9`:1, `VB.BR10`:1, `VB.BR11`:1, `VB.BR12`:1
          CFI Resource `VB.BR13`:1, `VB.BR14`:1, `VB.BR15`:1, VB:8, B:8, A:8
          CFI Resource PSW:8, DPL0:8, DPH0:8, R0:8, R1:8, R2:8, R3:8, R4:8, R5:8
          CFI Resource R6:8, R7:8, V0:8, V1:8, V2:8, V3:8, V4:8, V5:8, V6:8, V7:8
          CFI Resource V8:8, V9:8, V10:8, V11:8, V12:8, V13:8, V14:8, V15:8, SP:8
          CFI Resource PSPH:8, PSPL:8, PSP16:16, XSPH:8, XSPL:8, XSP16:16
          CFI VirtualResource ?RET:24
          CFI Resource ?BRET_EXT:8
          CFI VirtualResource ?RET_HIGH:8, ?RET_LOW:8
          CFI ResourceParts PSP16 PSPH, PSPL
          CFI ResourceParts XSP16 XSPH, XSPL
          CFI ResourceParts ?RET ?BRET_EXT, ?RET_HIGH, ?RET_LOW
          CFI EndNames cfiNames0
        
          CFI Common cfiCommon0 Using cfiNames0
          CFI CodeAlign 1
          CFI DataAlign -1
          CFI ReturnAddress ?RET CODE
          CFI CFA_DOVERLAY Used
          CFI CFA_IOVERLAY Used
          CFI CFA_SP SP+-3
          CFI CFA_PSP16 PSP16+0
          CFI CFA_XSP16 XSP16+0
          CFI `PSW.CY` SameValue
          CFI `B.BR0` SameValue
          CFI `B.BR1` SameValue
          CFI `B.BR2` SameValue
          CFI `B.BR3` SameValue
          CFI `B.BR4` SameValue
          CFI `B.BR5` SameValue
          CFI `B.BR6` SameValue
          CFI `B.BR7` SameValue
          CFI `VB.BR8` SameValue
          CFI `VB.BR9` SameValue
          CFI `VB.BR10` SameValue
          CFI `VB.BR11` SameValue
          CFI `VB.BR12` SameValue
          CFI `VB.BR13` SameValue
          CFI `VB.BR14` SameValue
          CFI `VB.BR15` SameValue
          CFI VB SameValue
          CFI B Undefined
          CFI A Undefined
          CFI PSW SameValue
          CFI DPL0 SameValue
          CFI DPH0 SameValue
          CFI R0 Undefined
          CFI R1 Undefined
          CFI R2 Undefined
          CFI R3 Undefined
          CFI R4 Undefined
          CFI R5 Undefined
          CFI R6 SameValue
          CFI R7 SameValue
          CFI V0 SameValue
          CFI V1 SameValue
          CFI V2 SameValue
          CFI V3 SameValue
          CFI V4 SameValue
          CFI V5 SameValue
          CFI V6 SameValue
          CFI V7 SameValue
          CFI V8 SameValue
          CFI V9 SameValue
          CFI V10 SameValue
          CFI V11 SameValue
          CFI V12 SameValue
          CFI V13 SameValue
          CFI V14 SameValue
          CFI V15 SameValue
          CFI PSPH Undefined
          CFI PSPL Undefined
          CFI XSPH Undefined
          CFI XSPL Undefined
          CFI ?RET Concat
          CFI ?BRET_EXT Frame(CFA_SP, 3)
          CFI ?RET_HIGH Frame(CFA_SP, 2)
          CFI ?RET_LOW Frame(CFA_SP, 1)
          CFI EndCommon cfiCommon0
        
        
          CFI Common cfiCommon1 Using cfiNames0
          CFI CodeAlign 1
          CFI DataAlign -1
          CFI ReturnAddress ?RET CODE
          CFI CFA_DOVERLAY Used
          CFI CFA_IOVERLAY Used
          CFI CFA_SP SP+-2
          CFI CFA_PSP16 PSP16+0
          CFI CFA_XSP16 XSP16+0
          CFI `PSW.CY` SameValue
          CFI `B.BR0` SameValue
          CFI `B.BR1` SameValue
          CFI `B.BR2` SameValue
          CFI `B.BR3` SameValue
          CFI `B.BR4` SameValue
          CFI `B.BR5` SameValue
          CFI `B.BR6` SameValue
          CFI `B.BR7` SameValue
          CFI `VB.BR8` SameValue
          CFI `VB.BR9` SameValue
          CFI `VB.BR10` SameValue
          CFI `VB.BR11` SameValue
          CFI `VB.BR12` SameValue
          CFI `VB.BR13` SameValue
          CFI `VB.BR14` SameValue
          CFI `VB.BR15` SameValue
          CFI VB SameValue
          CFI B SameValue
          CFI A SameValue
          CFI PSW SameValue
          CFI DPL0 SameValue
          CFI DPH0 SameValue
          CFI R0 SameValue
          CFI R1 SameValue
          CFI R2 SameValue
          CFI R3 SameValue
          CFI R4 SameValue
          CFI R5 SameValue
          CFI R6 SameValue
          CFI R7 SameValue
          CFI V0 SameValue
          CFI V1 SameValue
          CFI V2 SameValue
          CFI V3 SameValue
          CFI V4 SameValue
          CFI V5 SameValue
          CFI V6 SameValue
          CFI V7 SameValue
          CFI V8 SameValue
          CFI V9 SameValue
          CFI V10 SameValue
          CFI V11 SameValue
          CFI V12 SameValue
          CFI V13 SameValue
          CFI V14 SameValue
          CFI V15 SameValue
          CFI PSPH Undefined
          CFI PSPL Undefined
          CFI XSPH Undefined
          CFI XSPL Undefined
          CFI ?RET Concat
          CFI ?BRET_EXT SameValue
          CFI ?RET_HIGH Frame(CFA_SP, 2)
          CFI ?RET_LOW Frame(CFA_SP, 1)
          CFI EndCommon cfiCommon1
        
AT_Timer4_Set_Clear_Start_US SYMBOL "AT_Timer4_Set_Clear_Start_US"
`??AT_Timer4_Set_Clear_Start_US::?relay` SYMBOL "?relay", AT_Timer4_Set_Clear_Start_US
AT_Timer4_Stop_Get  SYMBOL "AT_Timer4_Stop_Get"
`??AT_Timer4_Stop_Get::?relay` SYMBOL "?relay", AT_Timer4_Stop_Get
Onboard_wait        SYMBOL "Onboard_wait"
`??Onboard_wait::?relay` SYMBOL "?relay", Onboard_wait
osal_mem_alloc      SYMBOL "osal_mem_alloc"
`??osal_mem_alloc::?relay` SYMBOL "?relay", osal_mem_alloc
osal_mem_free       SYMBOL "osal_mem_free"
`??osal_mem_free::?relay` SYMBOL "?relay", osal_mem_free
printf              SYMBOL "printf"
`??printf::?relay`  SYMBOL "?relay", printf
zclClosures_SendDoorLockOperationEventNotification SYMBOL "zclClosures_SendDoorLockOperationEventNotification"
??zclClosures_SendDoorLockOperationEventNotific SYMBOL "?relay", zclClosures_SendDoorLockOperationEventNotification
AT_pwr_single_bus_init SYMBOL "AT_pwr_single_bus_init"
`??AT_pwr_single_bus_init::?relay` SYMBOL "?relay", AT_pwr_single_bus_init
AT_pwr_single_bus_send_buf SYMBOL "AT_pwr_single_bus_send_buf"
`??AT_pwr_single_bus_send_buf::?relay` SYMBOL "?relay", AT_pwr_single_bus_send_buf
pwr_single_bus_Isr  SYMBOL "pwr_single_bus_Isr"
`??pwr_single_bus_Isr::??INTVEC 51` SYMBOL "??INTVEC 51", pwr_single_bus_Isr

        EXTERN `??AT_Timer4_Set_Clear_Start_US::?relay`
        FUNCTION `??AT_Timer4_Set_Clear_Start_US::?relay`,00H
        EXTERN `??AT_Timer4_Stop_Get::?relay`
        FUNCTION `??AT_Timer4_Stop_Get::?relay`,00H
        EXTERN `??Onboard_wait::?relay`
        FUNCTION `??Onboard_wait::?relay`,00H
        EXTERN `??osal_mem_alloc::?relay`
        FUNCTION `??osal_mem_alloc::?relay`,00H
        EXTERN `??osal_mem_free::?relay`
        FUNCTION `??osal_mem_free::?relay`,00H
        EXTERN `??printf::?relay`
        FUNCTION `??printf::?relay`,00H
        EXTERN ??zclClosures_SendDoorLockOperationEventNotific
        FUNCTION ??zclClosures_SendDoorLockOperationEventNotific,00H
        EXTERN AT_Timer4_Set_Clear_Start_US
        FUNCTION AT_Timer4_Set_Clear_Start_US,0202H
        ARGFRAME ISTACK, 0, STACK
        ARGFRAME PSTACK, 0, STACK
        ARGFRAME XSTACK, 15, STACK
        ARGFRAME IOVERLAY, 0, STATIC
        ARGFRAME DOVERLAY, 0, STATIC
        EXTERN AT_Timer4_Stop_Get
        FUNCTION AT_Timer4_Stop_Get,0202H
        ARGFRAME ISTACK, 0, STACK
        ARGFRAME PSTACK, 0, STACK
        ARGFRAME XSTACK, 15, STACK
        ARGFRAME IOVERLAY, 0, STATIC
        ARGFRAME DOVERLAY, 0, STATIC
        EXTERN Onboard_wait
        FUNCTION Onboard_wait,0202H
        ARGFRAME ISTACK, 0, STACK
        ARGFRAME PSTACK, 0, STACK
        ARGFRAME XSTACK, 14, STACK
        ARGFRAME IOVERLAY, 0, STATIC
        ARGFRAME DOVERLAY, 0, STATIC
        EXTERN bdb_ZclTransactionSequenceNumber
        EXTERN halSleepPconValue
        EXTERN osal_mem_alloc
        FUNCTION osal_mem_alloc,0202H
        ARGFRAME ISTACK, 0, STACK
        ARGFRAME PSTACK, 0, STACK
        ARGFRAME XSTACK, 39, STACK
        ARGFRAME IOVERLAY, 0, STATIC
        ARGFRAME DOVERLAY, 0, STATIC
        EXTERN osal_mem_free
        FUNCTION osal_mem_free,0202H
        ARGFRAME ISTACK, 0, STACK
        ARGFRAME PSTACK, 0, STACK
        ARGFRAME XSTACK, 39, STACK
        ARGFRAME IOVERLAY, 0, STATIC
        ARGFRAME DOVERLAY, 0, STATIC
        EXTERN printf
        FUNCTION printf,0202H
        ARGFRAME ISTACK, 0, STACK
        ARGFRAME PSTACK, 0, STACK
        ARGFRAME XSTACK, 16, STACK
        ARGFRAME IOVERLAY, 0, STATIC
        ARGFRAME DOVERLAY, 0, STATIC
        EXTERN tim4_tick_peroid
        EXTERN zclClosures_SendDoorLockOperationEventNotification
        FUNCTION zclClosures_SendDoorLockOperationEventNotification,0202H
        ARGFRAME ISTACK, 0, STACK
        ARGFRAME PSTACK, 0, STACK
        ARGFRAME XSTACK, 41, STACK
        ARGFRAME IOVERLAY, 0, STATIC
        ARGFRAME DOVERLAY, 0, STATIC

// F:\2workspace\doorlock-CC2530\ZigBee-DoorLock-2021.09.27\Projects\zstack\AT-command\ATApp\Source\Controller\AT_pwr_single_bus.c
//    1 /******************************************************************************
//    2   Filename:       AT_single_bus.c
//    3   Author:         Yang Wang
//    4 ******************************************************************************/
//    5 #include "AT_pwr_single_bus.h"

        ASEGN SFR_AN:DATA:NOROOT,08bH
// unsigned char volatile __sfr P2IFG
P2IFG:
        DATA8
        DS 1

        ASEGN SFR_AN:DATA:NOROOT,08cH
// unsigned char volatile __sfr PICTL
PICTL:
        DATA8
        DS 1

        ASEGN SFR_AN:DATA:NOROOT,09aH
// unsigned char volatile __sfr IEN2
IEN2:
        DATA8
        DS 1

        ASEGN SFR_AN:DATA:NOROOT,0a0H
// union <unnamed> volatile __sfr _A_P2
_A_P2:
        DATA8
        DS 1

        ASEGN SFR_AN:DATA:NOROOT,0a8H
// union <unnamed> volatile __sfr _A_IEN0
_A_IEN0:
        DATA8
        DS 1

        ASEGN SFR_AN:DATA:NOROOT,0a9H
// unsigned char volatile __sfr IP0
IP0:
        DATA8
        DS 1

        ASEGN SFR_AN:DATA:NOROOT,0acH
// unsigned char volatile __sfr P2IEN
P2IEN:
        DATA8
        DS 1

        ASEGN SFR_AN:DATA:NOROOT,0b9H
// unsigned char volatile __sfr IP1
IP1:
        DATA8
        DS 1

        ASEGN SFR_AN:DATA:NOROOT,0c0H
// union <unnamed> volatile __sfr _A_IRCON
_A_IRCON:
        DATA8
        DS 1

        ASEGN SFR_AN:DATA:NOROOT,0c9H
// unsigned char volatile __sfr WDCTL
WDCTL:
        DATA8
        DS 1

        ASEGN SFR_AN:DATA:NOROOT,0e8H
// union <unnamed> volatile __sfr _A_IRCON2
_A_IRCON2:
        DATA8
        DS 1

        ASEGN SFR_AN:DATA:NOROOT,0f5H
// unsigned char volatile __sfr P2SEL
P2SEL:
        DATA8
        DS 1

        ASEGN SFR_AN:DATA:NOROOT,0f7H
// unsigned char volatile __sfr P2INP
P2INP:
        DATA8
        DS 1

        ASEGN SFR_AN:DATA:NOROOT,0ffH
// unsigned char volatile __sfr P2DIR
P2DIR:
        DATA8
        DS 1
//    6 #include "AT_doorlock.h"
//    7 #include "AT_timer4.h"
//    8 #include "zcl_doorlock.h"
//    9 #include "OnBoard.h"
//   10 #include "AT_printf.h"
//   11 #include "bdb.h"
//   12 

        RSEG XDATA_Z:XDATA:NOROOT(0)
        DATA8
//   13 uint8 pwr_single_bus_rcv_buf[PWR_SINGLE_BUS_RCV_MAX] = {0x00};
pwr_single_bus_rcv_buf:
        DS 10
        REQUIRE __INIT_XDATA_Z

        RSEG XDATA_Z:XDATA:NOROOT(0)
        DATA8
//   14 uint8 pwr_single_bus_rcv_len = 0;
pwr_single_bus_rcv_len:
        DS 1
        REQUIRE __INIT_XDATA_Z

        RSEG XDATA_Z:XDATA:NOROOT(0)
        DATA8
//   15 uint8 pwr_single_bus_rcv_bit = 0;
pwr_single_bus_rcv_bit:
        DS 1
        REQUIRE __INIT_XDATA_Z
//   16 

        RSEG XDATA_Z:XDATA:NOROOT(0)
        DATA16
//   17 uint16 pwr_single_bus_rcv_total = 0;
pwr_single_bus_rcv_total:
        DS 2
        REQUIRE __INIT_XDATA_Z

        RSEG XDATA_Z:XDATA:NOROOT(0)
        DATA16
//   18 uint16 pwr_single_bus_rcv_high = 0;
pwr_single_bus_rcv_high:
        DS 2
        REQUIRE __INIT_XDATA_Z

        RSEG XDATA_Z:XDATA:NOROOT(0)
        DATA16
//   19 uint16 pwr_single_bus_rcv_low = 0;
pwr_single_bus_rcv_low:
        DS 2
        REQUIRE __INIT_XDATA_Z
//   20 
//   21 static void AT_pwr_single_bus_input(void);
//   22 static void AT_pwr_single_bus_output(void);
//   23 static void AT_pwr_single_bus_send_byte(uint8 dataByte);
//   24 static void pwr_senddata(uint8* buf);
//   25 

        RSEG BANKED_CODE:HUGECODE:NOROOT(0)
//   26 static void AT_pwr_single_bus_input(void)
AT_pwr_single_bus_input:
          CFI Block cfiBlock0 Using cfiCommon0
          CFI Function AT_pwr_single_bus_input
        CODE
//   27 {
        ; Saved register size: 0
        ; Auto size: 0
//   28   PWR_SINGLE_BUS_SEL &= ~PWR_SINGLE_BUS_BV;
        ANL       0xf5,#0xfe
//   29   PWR_SINGLE_BUS_DIR &= ~PWR_SINGLE_BUS_BV;
        ANL       0xff,#0xfe
//   30   PWR_SINGLE_BUS_INP &= ~PWR_SINGLE_BUS_BV;
        ANL       0xf7,#0xfe
//   31 
//   32   P2IFG = 0x00;
        MOV       0x8b,#0x0
//   33   P2IF  = 0x00;
        CLR       0xe8.0
//   34 
//   35   IEN2  |= BV(1); // enable port interrupt
        ORL       0x9a,#0x2
//   36   P2IEN |= PWR_SINGLE_BUS_BV; // enable pin interrupt
        ORL       0xac,#0x1
//   37 
//   38   P2INP &= ~BV(7); // pull up
        ANL       0xf7,#0x7f
//   39   PICTL |=  PWR_SINGLE_BUS_EDGE_BV; // falling edge
        ORL       0x8c,#0x8
//   40 }
        LJMP      ?BRET
          CFI EndBlock cfiBlock0
        REQUIRE P2SEL
        REQUIRE P2DIR
        REQUIRE P2INP
        REQUIRE P2IFG
        REQUIRE _A_IRCON2
        REQUIRE IEN2
        REQUIRE P2IEN
        REQUIRE PICTL
//   41 static void AT_pwr_single_bus_output(void)
//   42 {
//   43   PWR_SINGLE_BUS_SEL &= ~PWR_SINGLE_BUS_BV;
//   44   PWR_SINGLE_BUS_DIR |=  PWR_SINGLE_BUS_BV;
//   45 
//   46   IEN2  &= ~BV(1); // disable port interrupt
//   47   P2IEN &= ~PWR_SINGLE_BUS_BV; // disable pin interrupt
//   48 }

        RSEG BANKED_CODE:HUGECODE:NOROOT(0)
//   49 void AT_pwr_single_bus_init(void)
AT_pwr_single_bus_init:
          CFI Block cfiBlock1 Using cfiCommon0
          CFI Function AT_pwr_single_bus_init
        CODE
//   50 {
        FUNCALL AT_pwr_single_bus_init, AT_pwr_single_bus_input
        LOCFRAME ISTACK, 2, STACK
        LOCFRAME PSTACK, 0, STACK
        LOCFRAME XSTACK, 0, STACK
        LOCFRAME IOVERLAY, 0, STATIC
        LOCFRAME DOVERLAY, 0, STATIC
        ARGFRAME ISTACK, 2, STACK
        ARGFRAME PSTACK, 0, STACK
        ARGFRAME XSTACK, 0, STACK
        ARGFRAME IOVERLAY, 0, STATIC
        ARGFRAME DOVERLAY, 0, STATIC
        PUSH      DPL
          CFI DPL0 Frame(CFA_SP, 4)
          CFI CFA_SP SP+-4
        PUSH      DPH
          CFI DPH0 Frame(CFA_SP, 5)
          CFI CFA_SP SP+-5
        ; Saved register size: 2
        ; Auto size: 0
//   51   AT_pwr_single_bus_input();
        ; Setup parameters for call to function AT_pwr_single_bus_input
        LCALL     `??AT_pwr_single_bus_input::?relay`; Banked call to: AT_pwr_single_bus_input
//   52 
//   53   // set IPG1(ADC/P1/P2INT) to the highest priority
//   54   IP1 = 0x12;         //interrupt priority
        MOV       0xb9,#0x12
//   55   IP0 = 0x10;
        MOV       0xa9,#0x10
//   56 }
        POP       DPH
          CFI DPH0 SameValue
          CFI CFA_SP SP+-4
        POP       DPL
          CFI DPL0 SameValue
          CFI CFA_SP SP+-3
        LJMP      ?BRET
          CFI EndBlock cfiBlock1
        REQUIRE IP1
        REQUIRE IP0
//   57 static void AT_pwr_single_bus_send_byte(uint8 dataByte)
//   58 {
//   59   uint8 i;
//   60 
//   61   for(i=0; i<8; i++)
//   62   {
//   63     if(dataByte & 0x01)
//   64     {
//   65       PWR_SINGLE_BUS_PIN = PWR_SINGLE_BUS_HIGH;
//   66       MicroWait(191); // more close to 160 us
//   67 
//   68       PWR_SINGLE_BUS_PIN = PWR_SINGLE_BUS_LOW;
//   69       MicroWait(92); // more close to 80 us
//   70     }
//   71     else
//   72     {
//   73       PWR_SINGLE_BUS_PIN = PWR_SINGLE_BUS_HIGH;
//   74       MicroWait(92); // more close to 80 us
//   75 
//   76       PWR_SINGLE_BUS_PIN = PWR_SINGLE_BUS_LOW;
//   77       MicroWait(191); // more close to 160 us
//   78     }
//   79 
//   80     dataByte >>= 1;
//   81   }
//   82 }

        RSEG BANKED_CODE:HUGECODE:NOROOT(0)
//   83 void AT_pwr_single_bus_send_buf(uint8 *buf, uint8 len)
AT_pwr_single_bus_send_buf:
          CFI Block cfiBlock2 Using cfiCommon0
          CFI Function AT_pwr_single_bus_send_buf
        CODE
//   84 {
        FUNCALL AT_pwr_single_bus_send_buf, printf
        LOCFRAME ISTACK, 0, STACK
        LOCFRAME PSTACK, 0, STACK
        LOCFRAME XSTACK, 16, STACK
        LOCFRAME IOVERLAY, 0, STATIC
        LOCFRAME DOVERLAY, 0, STATIC
        ARGFRAME ISTACK, 0, STACK
        ARGFRAME PSTACK, 0, STACK
        ARGFRAME XSTACK, 16, STACK
        ARGFRAME IOVERLAY, 0, STATIC
        ARGFRAME DOVERLAY, 0, STATIC
        FUNCALL AT_pwr_single_bus_send_buf, printf
        LOCFRAME ISTACK, 0, STACK
        LOCFRAME PSTACK, 0, STACK
        LOCFRAME XSTACK, 16, STACK
        LOCFRAME IOVERLAY, 0, STATIC
        LOCFRAME DOVERLAY, 0, STATIC
        ARGFRAME ISTACK, 0, STACK
        ARGFRAME PSTACK, 0, STACK
        ARGFRAME XSTACK, 16, STACK
        ARGFRAME IOVERLAY, 0, STATIC
        ARGFRAME DOVERLAY, 0, STATIC
        FUNCALL AT_pwr_single_bus_send_buf, printf
        LOCFRAME ISTACK, 0, STACK
        LOCFRAME PSTACK, 0, STACK
        LOCFRAME XSTACK, 14, STACK
        LOCFRAME IOVERLAY, 0, STATIC
        LOCFRAME DOVERLAY, 0, STATIC
        ARGFRAME ISTACK, 0, STACK
        ARGFRAME PSTACK, 0, STACK
        ARGFRAME XSTACK, 14, STACK
        ARGFRAME IOVERLAY, 0, STATIC
        ARGFRAME DOVERLAY, 0, STATIC
        FUNCALL AT_pwr_single_bus_send_buf, Onboard_wait
        LOCFRAME ISTACK, 0, STACK
        LOCFRAME PSTACK, 0, STACK
        LOCFRAME XSTACK, 14, STACK
        LOCFRAME IOVERLAY, 0, STATIC
        LOCFRAME DOVERLAY, 0, STATIC
        ARGFRAME ISTACK, 0, STACK
        ARGFRAME PSTACK, 0, STACK
        ARGFRAME XSTACK, 14, STACK
        ARGFRAME IOVERLAY, 0, STATIC
        ARGFRAME DOVERLAY, 0, STATIC
        FUNCALL AT_pwr_single_bus_send_buf, Onboard_wait
        LOCFRAME ISTACK, 0, STACK
        LOCFRAME PSTACK, 0, STACK
        LOCFRAME XSTACK, 14, STACK
        LOCFRAME IOVERLAY, 0, STATIC
        LOCFRAME DOVERLAY, 0, STATIC
        ARGFRAME ISTACK, 0, STACK
        ARGFRAME PSTACK, 0, STACK
        ARGFRAME XSTACK, 14, STACK
        ARGFRAME IOVERLAY, 0, STATIC
        ARGFRAME DOVERLAY, 0, STATIC
        FUNCALL AT_pwr_single_bus_send_buf, Onboard_wait
        LOCFRAME ISTACK, 0, STACK
        LOCFRAME PSTACK, 0, STACK
        LOCFRAME XSTACK, 14, STACK
        LOCFRAME IOVERLAY, 0, STATIC
        LOCFRAME DOVERLAY, 0, STATIC
        ARGFRAME ISTACK, 0, STACK
        ARGFRAME PSTACK, 0, STACK
        ARGFRAME XSTACK, 14, STACK
        ARGFRAME IOVERLAY, 0, STATIC
        ARGFRAME DOVERLAY, 0, STATIC
        FUNCALL AT_pwr_single_bus_send_buf, Onboard_wait
        LOCFRAME ISTACK, 0, STACK
        LOCFRAME PSTACK, 0, STACK
        LOCFRAME XSTACK, 14, STACK
        LOCFRAME IOVERLAY, 0, STATIC
        LOCFRAME DOVERLAY, 0, STATIC
        ARGFRAME ISTACK, 0, STACK
        ARGFRAME PSTACK, 0, STACK
        ARGFRAME XSTACK, 14, STACK
        ARGFRAME IOVERLAY, 0, STATIC
        ARGFRAME DOVERLAY, 0, STATIC
        FUNCALL AT_pwr_single_bus_send_buf, Onboard_wait
        LOCFRAME ISTACK, 0, STACK
        LOCFRAME PSTACK, 0, STACK
        LOCFRAME XSTACK, 14, STACK
        LOCFRAME IOVERLAY, 0, STATIC
        LOCFRAME DOVERLAY, 0, STATIC
        ARGFRAME ISTACK, 0, STACK
        ARGFRAME PSTACK, 0, STACK
        ARGFRAME XSTACK, 14, STACK
        ARGFRAME IOVERLAY, 0, STATIC
        ARGFRAME DOVERLAY, 0, STATIC
        FUNCALL AT_pwr_single_bus_send_buf, AT_pwr_single_bus_input
        LOCFRAME ISTACK, 0, STACK
        LOCFRAME PSTACK, 0, STACK
        LOCFRAME XSTACK, 14, STACK
        LOCFRAME IOVERLAY, 0, STATIC
        LOCFRAME DOVERLAY, 0, STATIC
        ARGFRAME ISTACK, 0, STACK
        ARGFRAME PSTACK, 0, STACK
        ARGFRAME XSTACK, 14, STACK
        ARGFRAME IOVERLAY, 0, STATIC
        ARGFRAME DOVERLAY, 0, STATIC
        REQUIRE ?V0
        REQUIRE ?V1
        REQUIRE ?V2
        REQUIRE ?V3
        REQUIRE ?V4
        REQUIRE ?V5
        MOV       A,#-0xe
        LCALL     ?BANKED_ENTER_XDATA
          CFI DPH0 load(1, XDATA, add(CFA_XSP16, literal(-1)))
          CFI DPL0 load(1, XDATA, add(CFA_XSP16, literal(-2)))
          CFI ?BRET_EXT load(1, XDATA, add(CFA_XSP16, literal(-3)))
          CFI ?RET_HIGH load(1, XDATA, add(CFA_XSP16, literal(-4)))
          CFI ?RET_LOW load(1, XDATA, add(CFA_XSP16, literal(-5)))
          CFI R7 load(1, XDATA, add(CFA_XSP16, literal(-6)))
          CFI V5 load(1, XDATA, add(CFA_XSP16, literal(-7)))
          CFI V4 load(1, XDATA, add(CFA_XSP16, literal(-8)))
          CFI V3 load(1, XDATA, add(CFA_XSP16, literal(-9)))
          CFI V2 load(1, XDATA, add(CFA_XSP16, literal(-10)))
          CFI V1 load(1, XDATA, add(CFA_XSP16, literal(-11)))
          CFI V0 load(1, XDATA, add(CFA_XSP16, literal(-12)))
          CFI VB load(1, XDATA, add(CFA_XSP16, literal(-13)))
          CFI R6 load(1, XDATA, add(CFA_XSP16, literal(-14)))
          CFI CFA_SP SP+0
          CFI CFA_XSP16 add(XSP16, 14)
        ; Saved register size: 14
        ; Auto size: 0
        MOV       A,R2
        MOV       R6,A
        MOV       A,R3
        MOV       R7,A
        MOV       ?V3,R1
//   85   uint8 i;
//   86 
//   87   printf("|down|-----|%02d bytes|: ", len);
        ; Setup parameters for call to function printf
        MOV       A,R1
        MOV       ?V0,A
        MOV       ?V1,#0x0
        MOV       R0,#?V0
        LCALL     ?PUSH_XSTACK_I_TWO
          CFI CFA_XSP16 add(XSP16, 16)
        MOV       R2,#`?<Constant "|down|-----|%02d byte...">` & 0xff
        MOV       R3,#(`?<Constant "|down|-----|%02d byte...">` >> 8) & 0xff
        LCALL     `??printf::?relay`; Banked call to: printf
        MOV       A,#0x2
        LCALL     ?DEALLOC_XSTACK8
          CFI CFA_XSP16 add(XSP16, 14)
//   88   for(i=0; i<len; i++)
        MOV       ?V0,#0x0
        SJMP      ??AT_pwr_single_bus_send_buf_0
//   89   {
//   90     printf("%02X ", buf[i]);
??AT_pwr_single_bus_send_buf_1:
        ; Setup parameters for call to function printf
        LCALL     ?Subroutine0 & 0xFFFF
//   91   }
??CrossCallReturnLabel_0:
        MOV       ?V4,A
        MOV       ?V5,#0x0
        MOV       R0,#?V4
        LCALL     ?PUSH_XSTACK_I_TWO
          CFI CFA_XSP16 add(XSP16, 16)
        MOV       R2,#`?<Constant "%02X ">` & 0xff
        MOV       R3,#(`?<Constant "%02X ">` >> 8) & 0xff
        LCALL     `??printf::?relay`; Banked call to: printf
        MOV       A,#0x2
        LCALL     ?DEALLOC_XSTACK8
          CFI CFA_XSP16 add(XSP16, 14)
        INC       ?V0
??AT_pwr_single_bus_send_buf_0:
        MOV       A,?V0
        CLR       C
        SUBB      A,?V3
        JC        ??AT_pwr_single_bus_send_buf_1
//   92   printf("\r\n");
        ; Setup parameters for call to function printf
        MOV       R2,#`?<Constant "\\r\\n">` & 0xff
        MOV       R3,#(`?<Constant "\\r\\n">` >> 8) & 0xff
        LCALL     `??printf::?relay`; Banked call to: printf
//   93 
//   94   AT_pwr_single_bus_output();
        ANL       0xf5,#0xfe
        ORL       0xff,#0x1
        ANL       0x9a,#0xfd
        ANL       0xac,#0xfe
//   95 
//   96   PWR_SINGLE_BUS_PIN = PWR_SINGLE_BUS_LOW;
        CLR       0xa0.0
//   97   MicroWait(4900); // more close to 4 ms
        ; Setup parameters for call to function Onboard_wait
        MOV       R2,#0x24
        MOV       R3,#0x13
        LCALL     `??Onboard_wait::?relay`; Banked call to: Onboard_wait
//   98 
//   99   for(i=0; i<len; i++)
        MOV       ?V0,#0x0
        SJMP      ??AT_pwr_single_bus_send_buf_2
//  100   {
??AT_pwr_single_bus_send_buf_3:
        ; Setup parameters for call to function Onboard_wait
        MOV       R2,#0x5c
        MOV       R3,#0x0
        LCALL     `??Onboard_wait::?relay`; Banked call to: Onboard_wait
        CLR       0xa0.0
        ; Setup parameters for call to function Onboard_wait
        MOV       R2,#-0x41
??AT_pwr_single_bus_send_buf_4:
        MOV       R3,#0x0
        LCALL     `??Onboard_wait::?relay`; Banked call to: Onboard_wait
        MOV       A,?V1
        CLR       C
        RRC       A
        MOV       ?V1,A
        DEC       ?V2
        MOV       A,?V2
        JNZ       ??AT_pwr_single_bus_send_buf_5
//  101     AT_pwr_single_bus_send_byte(buf[i]);
        INC       ?V0
??AT_pwr_single_bus_send_buf_2:
        MOV       A,?V0
        CLR       C
        SUBB      A,?V3
        JNC       ??AT_pwr_single_bus_send_buf_6
        LCALL     ?Subroutine0 & 0xFFFF
??CrossCallReturnLabel_1:
        MOV       ?V1,A
        MOV       ?V2,#0x8
??AT_pwr_single_bus_send_buf_5:
        MOV       A,?V1
        MOV       C,0xE0 /* A   */.0
        SETB      0xa0.0
        JNC       ??AT_pwr_single_bus_send_buf_3
        ; Setup parameters for call to function Onboard_wait
        MOV       R2,#-0x41
        MOV       R3,#0x0
        LCALL     `??Onboard_wait::?relay`; Banked call to: Onboard_wait
        CLR       0xa0.0
        ; Setup parameters for call to function Onboard_wait
        MOV       R2,#0x5c
        SJMP      ??AT_pwr_single_bus_send_buf_4
//  102   }
//  103 
//  104   PWR_SINGLE_BUS_PIN = PWR_SINGLE_BUS_HIGH;
??AT_pwr_single_bus_send_buf_6:
        SETB      0xa0.0
//  105 
//  106   AT_pwr_single_bus_input();
        ; Setup parameters for call to function AT_pwr_single_bus_input
        LCALL     `??AT_pwr_single_bus_input::?relay`; Banked call to: AT_pwr_single_bus_input
//  107 }
        MOV       R7,#0x6
        LJMP      ?BANKED_LEAVE_XDATA
          CFI EndBlock cfiBlock2
        REQUIRE _A_P2
        REQUIRE P2SEL
        REQUIRE P2DIR
        REQUIRE IEN2
        REQUIRE P2IEN

        RSEG BANKED_CODE:HUGECODE:NOROOT(0)
?Subroutine0:
          CFI Block cfiCond3 Using cfiCommon0
          CFI Function AT_pwr_single_bus_send_buf
          CFI Conditional ??CrossCallReturnLabel_0
          CFI R6 load(1, XDATA, add(CFA_XSP16, literal(-14)))
          CFI VB load(1, XDATA, add(CFA_XSP16, literal(-13)))
          CFI V0 load(1, XDATA, add(CFA_XSP16, literal(-12)))
          CFI V1 load(1, XDATA, add(CFA_XSP16, literal(-11)))
          CFI V2 load(1, XDATA, add(CFA_XSP16, literal(-10)))
          CFI V3 load(1, XDATA, add(CFA_XSP16, literal(-9)))
          CFI V4 load(1, XDATA, add(CFA_XSP16, literal(-8)))
          CFI V5 load(1, XDATA, add(CFA_XSP16, literal(-7)))
          CFI R7 load(1, XDATA, add(CFA_XSP16, literal(-6)))
          CFI ?RET_LOW load(1, XDATA, add(CFA_XSP16, literal(-5)))
          CFI ?RET_HIGH load(1, XDATA, add(CFA_XSP16, literal(-4)))
          CFI ?BRET_EXT load(1, XDATA, add(CFA_XSP16, literal(-3)))
          CFI DPL0 load(1, XDATA, add(CFA_XSP16, literal(-2)))
          CFI DPH0 load(1, XDATA, add(CFA_XSP16, literal(-1)))
          CFI CFA_SP SP+-2
          CFI CFA_XSP16 add(XSP16, 14)
          CFI Block cfiCond4 Using cfiCommon0
          CFI (cfiCond4) Function AT_pwr_single_bus_send_buf
          CFI (cfiCond4) Conditional ??CrossCallReturnLabel_1
          CFI (cfiCond4) R6 load(1, XDATA, add(CFA_XSP16, literal(-14)))
          CFI (cfiCond4) VB load(1, XDATA, add(CFA_XSP16, literal(-13)))
          CFI (cfiCond4) V0 load(1, XDATA, add(CFA_XSP16, literal(-12)))
          CFI (cfiCond4) V1 load(1, XDATA, add(CFA_XSP16, literal(-11)))
          CFI (cfiCond4) V2 load(1, XDATA, add(CFA_XSP16, literal(-10)))
          CFI (cfiCond4) V3 load(1, XDATA, add(CFA_XSP16, literal(-9)))
          CFI (cfiCond4) V4 load(1, XDATA, add(CFA_XSP16, literal(-8)))
          CFI (cfiCond4) V5 load(1, XDATA, add(CFA_XSP16, literal(-7)))
          CFI (cfiCond4) R7 load(1, XDATA, add(CFA_XSP16, literal(-6)))
          CFI (cfiCond4) ?RET_LOW load(1, XDATA, add(CFA_XSP16, literal(-5)))
          CFI (cfiCond4) ?RET_HIGH load(1, XDATA, add(CFA_XSP16, literal(-4)))
          CFI (cfiCond4) ?BRET_EXT load(1, XDATA, add(CFA_XSP16, literal(-3)))
          CFI (cfiCond4) DPL0 load(1, XDATA, add(CFA_XSP16, literal(-2)))
          CFI (cfiCond4) DPH0 load(1, XDATA, add(CFA_XSP16, literal(-1)))
          CFI (cfiCond4) CFA_SP SP+-2
          CFI (cfiCond4) CFA_XSP16 add(XSP16, 14)
          CFI Block cfiPicker5 Using cfiCommon1
          CFI (cfiPicker5) NoFunction
          CFI (cfiPicker5) Picker
        MOV       R0,?V0
        MOV       A,R6
        ADD       A,R0
        MOV       DPL,A
        CLR       A
        ADDC      A,R7
        MOV       DPH,A
        MOVX      A,@DPTR
        RET
          CFI EndBlock cfiCond3
          CFI EndBlock cfiCond4
          CFI EndBlock cfiPicker5

        RSEG BANKED_CODE:HUGECODE:NOROOT(0)
//  108 static void pwr_senddata(uint8* buf)
pwr_senddata:
          CFI Block cfiBlock6 Using cfiCommon0
          CFI Function pwr_senddata
        CODE
//  109 {
        FUNCALL pwr_senddata, osal_mem_alloc
        LOCFRAME ISTACK, 0, STACK
        LOCFRAME PSTACK, 0, STACK
        LOCFRAME XSTACK, 39, STACK
        LOCFRAME IOVERLAY, 0, STATIC
        LOCFRAME DOVERLAY, 0, STATIC
        ARGFRAME ISTACK, 0, STACK
        ARGFRAME PSTACK, 0, STACK
        ARGFRAME XSTACK, 39, STACK
        ARGFRAME IOVERLAY, 0, STATIC
        ARGFRAME DOVERLAY, 0, STATIC
        FUNCALL pwr_senddata, zclClosures_SendDoorLockOperationEventNotification
        LOCFRAME ISTACK, 0, STACK
        LOCFRAME PSTACK, 0, STACK
        LOCFRAME XSTACK, 41, STACK
        LOCFRAME IOVERLAY, 0, STATIC
        LOCFRAME DOVERLAY, 0, STATIC
        ARGFRAME ISTACK, 0, STACK
        ARGFRAME PSTACK, 0, STACK
        ARGFRAME XSTACK, 41, STACK
        ARGFRAME IOVERLAY, 0, STATIC
        ARGFRAME DOVERLAY, 0, STATIC
        FUNCALL pwr_senddata, osal_mem_free
        LOCFRAME ISTACK, 0, STACK
        LOCFRAME PSTACK, 0, STACK
        LOCFRAME XSTACK, 39, STACK
        LOCFRAME IOVERLAY, 0, STATIC
        LOCFRAME DOVERLAY, 0, STATIC
        ARGFRAME ISTACK, 0, STACK
        ARGFRAME PSTACK, 0, STACK
        ARGFRAME XSTACK, 39, STACK
        ARGFRAME IOVERLAY, 0, STATIC
        ARGFRAME DOVERLAY, 0, STATIC
        REQUIRE ?V0
        REQUIRE ?V1
        REQUIRE ?V2
        REQUIRE ?V3
        REQUIRE ?V4
        REQUIRE ?V5
        REQUIRE ?V6
        REQUIRE ?V7
        MOV       A,#-0x10
        LCALL     ?BANKED_ENTER_XDATA
          CFI DPH0 load(1, XDATA, add(CFA_XSP16, literal(-1)))
          CFI DPL0 load(1, XDATA, add(CFA_XSP16, literal(-2)))
          CFI ?BRET_EXT load(1, XDATA, add(CFA_XSP16, literal(-3)))
          CFI ?RET_HIGH load(1, XDATA, add(CFA_XSP16, literal(-4)))
          CFI ?RET_LOW load(1, XDATA, add(CFA_XSP16, literal(-5)))
          CFI R7 load(1, XDATA, add(CFA_XSP16, literal(-6)))
          CFI V7 load(1, XDATA, add(CFA_XSP16, literal(-7)))
          CFI V6 load(1, XDATA, add(CFA_XSP16, literal(-8)))
          CFI V5 load(1, XDATA, add(CFA_XSP16, literal(-9)))
          CFI V4 load(1, XDATA, add(CFA_XSP16, literal(-10)))
          CFI V3 load(1, XDATA, add(CFA_XSP16, literal(-11)))
          CFI V2 load(1, XDATA, add(CFA_XSP16, literal(-12)))
          CFI V1 load(1, XDATA, add(CFA_XSP16, literal(-13)))
          CFI V0 load(1, XDATA, add(CFA_XSP16, literal(-14)))
          CFI VB load(1, XDATA, add(CFA_XSP16, literal(-15)))
          CFI R6 load(1, XDATA, add(CFA_XSP16, literal(-16)))
          CFI CFA_SP SP+0
          CFI CFA_XSP16 add(XSP16, 16)
        ; Saved register size: 16
        ; Auto size: 23
        MOV       A,#-0x17
        LCALL     ?ALLOC_XSTACK8
          CFI CFA_XSP16 add(XSP16, 39)
//  110   if(pwr_single_bus_rcv_len == 8)
        MOV       DPTR,#pwr_single_bus_rcv_len
        MOVX      A,@DPTR
        XRL       A,#0x8
        JZ        $+5
        LJMP      ??pwr_senddata_0 & 0xFFFF
//  111   {
//  112     afAddrType_t dstAddr;
//  113     dstAddr.addrMode = (afAddrMode_t)Addr16Bit;
        MOV       A,#0x13
        LCALL     ?XSTACK_DISP0_8
        MOV       A,#0x2
        MOVX      @DPTR,A
//  114     dstAddr.addr.shortAddr = NWK_PAN_COORD_ADDR;// default send to Coordinator
        MOV       A,#0xb
        LCALL     ?XSTACK_DISP0_8
        CLR       A
        MOVX      @DPTR,A
        INC       DPTR
        MOVX      @DPTR,A
//  115     dstAddr.endPoint = 0x0B;//GENERIC_ENDPOINT on Coordinator
        MOV       A,#0x14
        LCALL     ?XSTACK_DISP0_8
        MOV       A,#0xb
        MOVX      @DPTR,A
//  116 
//  117     //build DoorLock Operation Event Notification
//  118     zclDoorLockOperationEventNotification_t pPayload;
//  119     pPayload.operationEventSource = 0xFE;
        MOV       DPL,?XSP + 0
        MOV       DPH,?XSP + 1
        MOV       A,#-0x2
        LCALL     ?Subroutine2 & 0xFFFF
//  120     pPayload.operationEventCode = buf[0];
??CrossCallReturnLabel_4:
        MOVX      A,@DPTR
        PUSH      A
          CFI CFA_SP SP+-1
        MOV       A,#0x1
        LCALL     ?XSTACK_DISP0_8
        POP       A
          CFI CFA_SP SP+0
        LCALL     ?Subroutine2 & 0xFFFF
//  121     pPayload.userID = BUILD_UINT16(buf[1], buf[2]);
??CrossCallReturnLabel_5:
        INC       DPTR
        MOVX      A,@DPTR
        MOV       R4,A
        MOV       DPL,R2
        MOV       DPH,R3
        INC       DPTR
        INC       DPTR
        MOVX      A,@DPTR
        MOV       R1,A
        MOV       A,#0x2
        LCALL     ?XSTACK_DISP0_8
        MOV       A,R4
        MOVX      @DPTR,A
        INC       DPTR
        MOV       A,R1
        LCALL     ?Subroutine1 & 0xFFFF
//  122     pPayload.pin = buf[3]; // it is battery level actually
??CrossCallReturnLabel_2:
        MOVX      A,@DPTR
        PUSH      A
          CFI CFA_SP SP+-1
        MOV       A,#0x4
        LCALL     ?XSTACK_DISP0_8
        POP       A
          CFI CFA_SP SP+0
        LCALL     ?Subroutine1 & 0xFFFF
//  123     pPayload.zigBeeLocalTime = BUILD_UINT32(buf[4], buf[5], buf[6], buf[7]);
??CrossCallReturnLabel_3:
        INC       DPTR
        MOVX      A,@DPTR
        MOV       ?V0,A
        CLR       A
        MOV       ?V1,A
        MOV       ?V2,A
        MOV       ?V3,A
        MOV       DPL,R2
        MOV       DPH,R3
        INC       DPTR
        INC       DPTR
        INC       DPTR
        INC       DPTR
        INC       DPTR
        MOVX      A,@DPTR
        MOV       ?V4,A
        CLR       A
        MOV       ?V5,A
        MOV       ?V6,A
        MOV       ?V7,A
        MOV       A,#0x8
        MOV       R0,#?V4
        LCALL     ?L_SHL
        MOV       R0,#?V0
        MOV       R1,#?V4
        LCALL     ?L_ADD
        MOV       DPL,R2
        MOV       DPH,R3
        INC       DPTR
        INC       DPTR
        INC       DPTR
        INC       DPTR
        INC       DPTR
        INC       DPTR
        MOVX      A,@DPTR
        MOV       ?V4,A
        CLR       A
        MOV       ?V5,A
        MOV       A,#0x10
        MOV       R0,#?V4
        LCALL     ?L_SHL
        MOV       R0,#?V0
        MOV       R1,#?V4
        LCALL     ?L_ADD
        MOV       DPL,R2
        MOV       DPH,R3
        INC       DPTR
        INC       DPTR
        INC       DPTR
        INC       DPTR
        INC       DPTR
        INC       DPTR
        INC       DPTR
        MOVX      A,@DPTR
        MOV       ?V4,A
        CLR       A
        MOV       ?V6,A
        MOV       A,#0x18
        MOV       R0,#?V4
        LCALL     ?L_SHL
        MOV       R0,#?V0
        MOV       R1,#?V4
        LCALL     ?L_ADD
        MOV       A,#0x5
        LCALL     ?XSTACK_DISP0_8
        MOV       R0,#?V0
        LCALL     ?L_MOV_TO_X
//  124 
//  125     pPayload.pData = (uint8 *)osal_mem_alloc(1);
        ; Setup parameters for call to function osal_mem_alloc
        MOV       R2,#0x1
        MOV       R3,#0x0
        LCALL     `??osal_mem_alloc::?relay`; Banked call to: osal_mem_alloc
        MOV       A,#0x9
        LCALL     ?XSTACK_DISP0_8
        MOV       A,R2
        MOVX      @DPTR,A
        INC       DPTR
        MOV       A,R3
        LCALL     ?Subroutine2 & 0xFFFF
//  126     pPayload.pData[0] = 0;
??CrossCallReturnLabel_6:
        CLR       A
        MOVX      @DPTR,A
//  127     /*pPayload.pData = (uint8 *)osal_mem_alloc(8);
//  128     for(uint8 i=0;i!=8;++i){
//  129       pPayload.pData[i]=buf[i];
//  130     }*/
//  131     zclClosures_SendDoorLockOperationEventNotification( DOORLOCK_ENDPOINT,//uint8 srcEP,
//  132                                                       &dstAddr,//afAddrType_t *dstAddr,
//  133                                                       &pPayload,//zclDoorLockOperationEventNotification_t *pPayload,
//  134                                                       TRUE,//uint8 disableDefaultRsp,
//  135                                                       ++bdb_ZclTransactionSequenceNumber);//uint8 seqNum
        MOV       DPTR,#bdb_ZclTransactionSequenceNumber
        MOVX      A,@DPTR
        INC       A
        MOVX      @DPTR,A
        ; Setup parameters for call to function zclClosures_SendDoorLockOperationEventNotification
        MOV       ?V0,A
        MOV       R0,#?V0
        LCALL     ?PUSH_XSTACK_I_ONE
          CFI CFA_XSP16 add(XSP16, 40)
        MOV       ?V0,#0x1
        MOV       R0,#?V0
        LCALL     ?PUSH_XSTACK_I_ONE
          CFI CFA_XSP16 add(XSP16, 41)
        MOV       A,#0x2
        LCALL     ?XSTACK_DISP102_8
        MOV       A,#0xd
        LCALL     ?XSTACK_DISP101_8
        MOV       R1,#0xa
        LCALL     ??zclClosures_SendDoorLockOperationEventNotific; Banked call to: zclClosures_SendDoorLockOperationEventNotification
        MOV       A,#0x2
        LCALL     ?DEALLOC_XSTACK8
          CFI CFA_XSP16 add(XSP16, 39)
//  136 
//  137   osal_mem_free( pPayload.pData );
        ; Setup parameters for call to function osal_mem_free
        MOV       A,#0x9
        LCALL     ?XSTACK_DISP0_8
        MOVX      A,@DPTR
        MOV       R2,A
        INC       DPTR
        MOVX      A,@DPTR
        MOV       R3,A
        LCALL     `??osal_mem_free::?relay`; Banked call to: osal_mem_free
//  138   }
//  139 }
??pwr_senddata_0:
        MOV       A,#0x17
        LCALL     ?DEALLOC_XSTACK8
          CFI CFA_XSP16 add(XSP16, 16)
        MOV       R7,#0x8
        LJMP      ?BANKED_LEAVE_XDATA
          CFI EndBlock cfiBlock6

        RSEG BANKED_CODE:HUGECODE:NOROOT(0)
?Subroutine1:
          CFI Block cfiCond7 Using cfiCommon0
          CFI Function pwr_senddata
          CFI Conditional ??CrossCallReturnLabel_2
          CFI R6 load(1, XDATA, add(CFA_XSP16, literal(-16)))
          CFI VB load(1, XDATA, add(CFA_XSP16, literal(-15)))
          CFI V0 load(1, XDATA, add(CFA_XSP16, literal(-14)))
          CFI V1 load(1, XDATA, add(CFA_XSP16, literal(-13)))
          CFI V2 load(1, XDATA, add(CFA_XSP16, literal(-12)))
          CFI V3 load(1, XDATA, add(CFA_XSP16, literal(-11)))
          CFI V4 load(1, XDATA, add(CFA_XSP16, literal(-10)))
          CFI V5 load(1, XDATA, add(CFA_XSP16, literal(-9)))
          CFI V6 load(1, XDATA, add(CFA_XSP16, literal(-8)))
          CFI V7 load(1, XDATA, add(CFA_XSP16, literal(-7)))
          CFI R7 load(1, XDATA, add(CFA_XSP16, literal(-6)))
          CFI ?RET_LOW load(1, XDATA, add(CFA_XSP16, literal(-5)))
          CFI ?RET_HIGH load(1, XDATA, add(CFA_XSP16, literal(-4)))
          CFI ?BRET_EXT load(1, XDATA, add(CFA_XSP16, literal(-3)))
          CFI DPL0 load(1, XDATA, add(CFA_XSP16, literal(-2)))
          CFI DPH0 load(1, XDATA, add(CFA_XSP16, literal(-1)))
          CFI CFA_SP SP+-2
          CFI CFA_XSP16 add(XSP16, 39)
          CFI Block cfiCond8 Using cfiCommon0
          CFI (cfiCond8) Function pwr_senddata
          CFI (cfiCond8) Conditional ??CrossCallReturnLabel_3
          CFI (cfiCond8) R6 load(1, XDATA, add(CFA_XSP16, literal(-16)))
          CFI (cfiCond8) VB load(1, XDATA, add(CFA_XSP16, literal(-15)))
          CFI (cfiCond8) V0 load(1, XDATA, add(CFA_XSP16, literal(-14)))
          CFI (cfiCond8) V1 load(1, XDATA, add(CFA_XSP16, literal(-13)))
          CFI (cfiCond8) V2 load(1, XDATA, add(CFA_XSP16, literal(-12)))
          CFI (cfiCond8) V3 load(1, XDATA, add(CFA_XSP16, literal(-11)))
          CFI (cfiCond8) V4 load(1, XDATA, add(CFA_XSP16, literal(-10)))
          CFI (cfiCond8) V5 load(1, XDATA, add(CFA_XSP16, literal(-9)))
          CFI (cfiCond8) V6 load(1, XDATA, add(CFA_XSP16, literal(-8)))
          CFI (cfiCond8) V7 load(1, XDATA, add(CFA_XSP16, literal(-7)))
          CFI (cfiCond8) R7 load(1, XDATA, add(CFA_XSP16, literal(-6)))
          CFI (cfiCond8) ?RET_LOW load(1, XDATA, add(CFA_XSP16, literal(-5)))
          CFI (cfiCond8) ?RET_HIGH load(1, XDATA, add(CFA_XSP16, literal(-4)))
          CFI (cfiCond8) ?BRET_EXT load(1, XDATA, add(CFA_XSP16, literal(-3)))
          CFI (cfiCond8) DPL0 load(1, XDATA, add(CFA_XSP16, literal(-2)))
          CFI (cfiCond8) DPH0 load(1, XDATA, add(CFA_XSP16, literal(-1)))
          CFI (cfiCond8) CFA_SP SP+-2
          CFI (cfiCond8) CFA_XSP16 add(XSP16, 39)
          CFI Block cfiPicker9 Using cfiCommon1
          CFI (cfiPicker9) NoFunction
          CFI (cfiPicker9) Picker
        LCALL     ?Subroutine2 & 0xFFFF
??CrossCallReturnLabel_7:
        INC       DPTR
        INC       DPTR
        INC       DPTR
        RET
          CFI EndBlock cfiCond7
          CFI EndBlock cfiCond8
          CFI EndBlock cfiPicker9

        RSEG BANKED_CODE:HUGECODE:NOROOT(0)
?Subroutine2:
          CFI Block cfiCond10 Using cfiCommon0
          CFI Function pwr_senddata
          CFI Conditional ??CrossCallReturnLabel_4
          CFI R6 load(1, XDATA, add(CFA_XSP16, literal(-16)))
          CFI VB load(1, XDATA, add(CFA_XSP16, literal(-15)))
          CFI V0 load(1, XDATA, add(CFA_XSP16, literal(-14)))
          CFI V1 load(1, XDATA, add(CFA_XSP16, literal(-13)))
          CFI V2 load(1, XDATA, add(CFA_XSP16, literal(-12)))
          CFI V3 load(1, XDATA, add(CFA_XSP16, literal(-11)))
          CFI V4 load(1, XDATA, add(CFA_XSP16, literal(-10)))
          CFI V5 load(1, XDATA, add(CFA_XSP16, literal(-9)))
          CFI V6 load(1, XDATA, add(CFA_XSP16, literal(-8)))
          CFI V7 load(1, XDATA, add(CFA_XSP16, literal(-7)))
          CFI R7 load(1, XDATA, add(CFA_XSP16, literal(-6)))
          CFI ?RET_LOW load(1, XDATA, add(CFA_XSP16, literal(-5)))
          CFI ?RET_HIGH load(1, XDATA, add(CFA_XSP16, literal(-4)))
          CFI ?BRET_EXT load(1, XDATA, add(CFA_XSP16, literal(-3)))
          CFI DPL0 load(1, XDATA, add(CFA_XSP16, literal(-2)))
          CFI DPH0 load(1, XDATA, add(CFA_XSP16, literal(-1)))
          CFI CFA_SP SP+-2
          CFI CFA_XSP16 add(XSP16, 39)
          CFI Block cfiCond11 Using cfiCommon0
          CFI (cfiCond11) Function pwr_senddata
          CFI (cfiCond11) Conditional ??CrossCallReturnLabel_5
          CFI (cfiCond11) R6 load(1, XDATA, add(CFA_XSP16, literal(-16)))
          CFI (cfiCond11) VB load(1, XDATA, add(CFA_XSP16, literal(-15)))
          CFI (cfiCond11) V0 load(1, XDATA, add(CFA_XSP16, literal(-14)))
          CFI (cfiCond11) V1 load(1, XDATA, add(CFA_XSP16, literal(-13)))
          CFI (cfiCond11) V2 load(1, XDATA, add(CFA_XSP16, literal(-12)))
          CFI (cfiCond11) V3 load(1, XDATA, add(CFA_XSP16, literal(-11)))
          CFI (cfiCond11) V4 load(1, XDATA, add(CFA_XSP16, literal(-10)))
          CFI (cfiCond11) V5 load(1, XDATA, add(CFA_XSP16, literal(-9)))
          CFI (cfiCond11) V6 load(1, XDATA, add(CFA_XSP16, literal(-8)))
          CFI (cfiCond11) V7 load(1, XDATA, add(CFA_XSP16, literal(-7)))
          CFI (cfiCond11) R7 load(1, XDATA, add(CFA_XSP16, literal(-6)))
          CFI (cfiCond11) ?RET_LOW load(1, XDATA, add(CFA_XSP16, literal(-5)))
          CFI (cfiCond11) ?RET_HIGH load(1, XDATA, add(CFA_XSP16, literal(-4)))
          CFI (cfiCond11) ?BRET_EXT load(1, XDATA, add(CFA_XSP16, literal(-3)))
          CFI (cfiCond11) DPL0 load(1, XDATA, add(CFA_XSP16, literal(-2)))
          CFI (cfiCond11) DPH0 load(1, XDATA, add(CFA_XSP16, literal(-1)))
          CFI (cfiCond11) CFA_SP SP+-2
          CFI (cfiCond11) CFA_XSP16 add(XSP16, 39)
          CFI Block cfiCond12 Using cfiCommon0
          CFI (cfiCond12) Function pwr_senddata
          CFI (cfiCond12) Conditional ??CrossCallReturnLabel_6
          CFI (cfiCond12) R6 load(1, XDATA, add(CFA_XSP16, literal(-16)))
          CFI (cfiCond12) VB load(1, XDATA, add(CFA_XSP16, literal(-15)))
          CFI (cfiCond12) V0 load(1, XDATA, add(CFA_XSP16, literal(-14)))
          CFI (cfiCond12) V1 load(1, XDATA, add(CFA_XSP16, literal(-13)))
          CFI (cfiCond12) V2 load(1, XDATA, add(CFA_XSP16, literal(-12)))
          CFI (cfiCond12) V3 load(1, XDATA, add(CFA_XSP16, literal(-11)))
          CFI (cfiCond12) V4 load(1, XDATA, add(CFA_XSP16, literal(-10)))
          CFI (cfiCond12) V5 load(1, XDATA, add(CFA_XSP16, literal(-9)))
          CFI (cfiCond12) V6 load(1, XDATA, add(CFA_XSP16, literal(-8)))
          CFI (cfiCond12) V7 load(1, XDATA, add(CFA_XSP16, literal(-7)))
          CFI (cfiCond12) R7 load(1, XDATA, add(CFA_XSP16, literal(-6)))
          CFI (cfiCond12) ?RET_LOW load(1, XDATA, add(CFA_XSP16, literal(-5)))
          CFI (cfiCond12) ?RET_HIGH load(1, XDATA, add(CFA_XSP16, literal(-4)))
          CFI (cfiCond12) ?BRET_EXT load(1, XDATA, add(CFA_XSP16, literal(-3)))
          CFI (cfiCond12) DPL0 load(1, XDATA, add(CFA_XSP16, literal(-2)))
          CFI (cfiCond12) DPH0 load(1, XDATA, add(CFA_XSP16, literal(-1)))
          CFI (cfiCond12) CFA_SP SP+-2
          CFI (cfiCond12) CFA_XSP16 add(XSP16, 39)
          CFI Block cfiCond13 Using cfiCommon0
          CFI (cfiCond13) Function pwr_senddata
          CFI (cfiCond13) Conditional ??CrossCallReturnLabel_7, ??CrossCallReturnLabel_2
          CFI (cfiCond13) R6 load(1, XDATA, add(CFA_XSP16, literal(-16)))
          CFI (cfiCond13) VB load(1, XDATA, add(CFA_XSP16, literal(-15)))
          CFI (cfiCond13) V0 load(1, XDATA, add(CFA_XSP16, literal(-14)))
          CFI (cfiCond13) V1 load(1, XDATA, add(CFA_XSP16, literal(-13)))
          CFI (cfiCond13) V2 load(1, XDATA, add(CFA_XSP16, literal(-12)))
          CFI (cfiCond13) V3 load(1, XDATA, add(CFA_XSP16, literal(-11)))
          CFI (cfiCond13) V4 load(1, XDATA, add(CFA_XSP16, literal(-10)))
          CFI (cfiCond13) V5 load(1, XDATA, add(CFA_XSP16, literal(-9)))
          CFI (cfiCond13) V6 load(1, XDATA, add(CFA_XSP16, literal(-8)))
          CFI (cfiCond13) V7 load(1, XDATA, add(CFA_XSP16, literal(-7)))
          CFI (cfiCond13) R7 load(1, XDATA, add(CFA_XSP16, literal(-6)))
          CFI (cfiCond13) ?RET_LOW load(1, XDATA, add(CFA_XSP16, literal(-5)))
          CFI (cfiCond13) ?RET_HIGH load(1, XDATA, add(CFA_XSP16, literal(-4)))
          CFI (cfiCond13) ?BRET_EXT load(1, XDATA, add(CFA_XSP16, literal(-3)))
          CFI (cfiCond13) DPL0 load(1, XDATA, add(CFA_XSP16, literal(-2)))
          CFI (cfiCond13) DPH0 load(1, XDATA, add(CFA_XSP16, literal(-1)))
          CFI (cfiCond13) CFA_SP SP+-4
          CFI (cfiCond13) CFA_XSP16 add(XSP16, 39)
          CFI Block cfiCond14 Using cfiCommon0
          CFI (cfiCond14) Function pwr_senddata
          CFI (cfiCond14) Conditional ??CrossCallReturnLabel_7, ??CrossCallReturnLabel_3
          CFI (cfiCond14) R6 load(1, XDATA, add(CFA_XSP16, literal(-16)))
          CFI (cfiCond14) VB load(1, XDATA, add(CFA_XSP16, literal(-15)))
          CFI (cfiCond14) V0 load(1, XDATA, add(CFA_XSP16, literal(-14)))
          CFI (cfiCond14) V1 load(1, XDATA, add(CFA_XSP16, literal(-13)))
          CFI (cfiCond14) V2 load(1, XDATA, add(CFA_XSP16, literal(-12)))
          CFI (cfiCond14) V3 load(1, XDATA, add(CFA_XSP16, literal(-11)))
          CFI (cfiCond14) V4 load(1, XDATA, add(CFA_XSP16, literal(-10)))
          CFI (cfiCond14) V5 load(1, XDATA, add(CFA_XSP16, literal(-9)))
          CFI (cfiCond14) V6 load(1, XDATA, add(CFA_XSP16, literal(-8)))
          CFI (cfiCond14) V7 load(1, XDATA, add(CFA_XSP16, literal(-7)))
          CFI (cfiCond14) R7 load(1, XDATA, add(CFA_XSP16, literal(-6)))
          CFI (cfiCond14) ?RET_LOW load(1, XDATA, add(CFA_XSP16, literal(-5)))
          CFI (cfiCond14) ?RET_HIGH load(1, XDATA, add(CFA_XSP16, literal(-4)))
          CFI (cfiCond14) ?BRET_EXT load(1, XDATA, add(CFA_XSP16, literal(-3)))
          CFI (cfiCond14) DPL0 load(1, XDATA, add(CFA_XSP16, literal(-2)))
          CFI (cfiCond14) DPH0 load(1, XDATA, add(CFA_XSP16, literal(-1)))
          CFI (cfiCond14) CFA_SP SP+-4
          CFI (cfiCond14) CFA_XSP16 add(XSP16, 39)
          CFI Block cfiPicker15 Using cfiCommon1
          CFI (cfiPicker15) NoFunction
          CFI (cfiPicker15) Picker
        MOVX      @DPTR,A
        MOV       DPL,R2
        MOV       DPH,R3
        RET
          CFI EndBlock cfiCond10
          CFI EndBlock cfiCond11
          CFI EndBlock cfiCond12
          CFI EndBlock cfiCond13
          CFI EndBlock cfiCond14
          CFI EndBlock cfiPicker15

        RSEG NEAR_CODE:CODE:NOROOT(0)
//  140 HAL_ISR_FUNCTION( pwr_single_bus_Isr, P2INT_VECTOR )
pwr_single_bus_Isr:
          CFI Block cfiBlock16 Using cfiCommon1
          CFI Function pwr_single_bus_Isr
        CODE
//  141 {
        FUNCALL pwr_single_bus_Isr, AT_Timer4_Set_Clear_Start_US
        LOCFRAME ISTACK, 0, STACK
        LOCFRAME PSTACK, 0, STACK
        LOCFRAME XSTACK, 15, STACK
        LOCFRAME IOVERLAY, 0, STATIC
        LOCFRAME DOVERLAY, 0, STATIC
        ARGFRAME ISTACK, 0, STACK
        ARGFRAME PSTACK, 0, STACK
        ARGFRAME XSTACK, 15, STACK
        ARGFRAME IOVERLAY, 0, STATIC
        ARGFRAME DOVERLAY, 0, STATIC
        FUNCALL pwr_single_bus_Isr, AT_Timer4_Stop_Get
        LOCFRAME ISTACK, 0, STACK
        LOCFRAME PSTACK, 0, STACK
        LOCFRAME XSTACK, 15, STACK
        LOCFRAME IOVERLAY, 0, STATIC
        LOCFRAME DOVERLAY, 0, STATIC
        ARGFRAME ISTACK, 0, STACK
        ARGFRAME PSTACK, 0, STACK
        ARGFRAME XSTACK, 15, STACK
        ARGFRAME IOVERLAY, 0, STATIC
        ARGFRAME DOVERLAY, 0, STATIC
        FUNCALL pwr_single_bus_Isr, AT_Timer4_Set_Clear_Start_US
        LOCFRAME ISTACK, 0, STACK
        LOCFRAME PSTACK, 0, STACK
        LOCFRAME XSTACK, 15, STACK
        LOCFRAME IOVERLAY, 0, STATIC
        LOCFRAME DOVERLAY, 0, STATIC
        ARGFRAME ISTACK, 0, STACK
        ARGFRAME PSTACK, 0, STACK
        ARGFRAME XSTACK, 15, STACK
        ARGFRAME IOVERLAY, 0, STATIC
        ARGFRAME DOVERLAY, 0, STATIC
        FUNCALL pwr_single_bus_Isr, pwr_senddata
        LOCFRAME ISTACK, 0, STACK
        LOCFRAME PSTACK, 0, STACK
        LOCFRAME XSTACK, 15, STACK
        LOCFRAME IOVERLAY, 0, STATIC
        LOCFRAME DOVERLAY, 0, STATIC
        ARGFRAME ISTACK, 0, STACK
        ARGFRAME PSTACK, 0, STACK
        ARGFRAME XSTACK, 15, STACK
        ARGFRAME IOVERLAY, 0, STATIC
        ARGFRAME DOVERLAY, 0, STATIC
        FUNCALL pwr_single_bus_Isr, AT_Timer4_Stop_Get
        LOCFRAME ISTACK, 0, STACK
        LOCFRAME PSTACK, 0, STACK
        LOCFRAME XSTACK, 15, STACK
        LOCFRAME IOVERLAY, 0, STATIC
        LOCFRAME DOVERLAY, 0, STATIC
        ARGFRAME ISTACK, 0, STACK
        ARGFRAME PSTACK, 0, STACK
        ARGFRAME XSTACK, 15, STACK
        ARGFRAME IOVERLAY, 0, STATIC
        ARGFRAME DOVERLAY, 0, STATIC
        FUNCALL pwr_single_bus_Isr, AT_Timer4_Set_Clear_Start_US
        LOCFRAME ISTACK, 0, STACK
        LOCFRAME PSTACK, 0, STACK
        LOCFRAME XSTACK, 15, STACK
        LOCFRAME IOVERLAY, 0, STATIC
        LOCFRAME DOVERLAY, 0, STATIC
        ARGFRAME ISTACK, 0, STACK
        ARGFRAME PSTACK, 0, STACK
        ARGFRAME XSTACK, 15, STACK
        ARGFRAME IOVERLAY, 0, STATIC
        ARGFRAME DOVERLAY, 0, STATIC
        FUNCALL pwr_single_bus_Isr, AT_Timer4_Stop_Get
        LOCFRAME ISTACK, 0, STACK
        LOCFRAME PSTACK, 0, STACK
        LOCFRAME XSTACK, 15, STACK
        LOCFRAME IOVERLAY, 0, STATIC
        LOCFRAME DOVERLAY, 0, STATIC
        ARGFRAME ISTACK, 0, STACK
        ARGFRAME PSTACK, 0, STACK
        ARGFRAME XSTACK, 15, STACK
        ARGFRAME IOVERLAY, 0, STATIC
        ARGFRAME DOVERLAY, 0, STATIC
        REQUIRE ?V0
        REQUIRE ?V1
        PUSH      A
          CFI A Frame(CFA_SP, 3)
          CFI CFA_SP SP+-3
        MOV       A,#-0xf
        LCALL     ?INTERRUPT_ENTER_XSP
          CFI B load(1, XDATA, add(CFA_XSP16, literal(-1)))
          CFI VB load(1, XDATA, add(CFA_XSP16, literal(-2)))
          CFI PSW load(1, XDATA, add(CFA_XSP16, literal(-3)))
          CFI DPL0 load(1, XDATA, add(CFA_XSP16, literal(-4)))
          CFI DPH0 load(1, XDATA, add(CFA_XSP16, literal(-5)))
          CFI R7 load(1, XDATA, add(CFA_XSP16, literal(-6)))
          CFI R6 load(1, XDATA, add(CFA_XSP16, literal(-7)))
          CFI R5 load(1, XDATA, add(CFA_XSP16, literal(-8)))
          CFI R4 load(1, XDATA, add(CFA_XSP16, literal(-9)))
          CFI V1 load(1, XDATA, add(CFA_XSP16, literal(-10)))
          CFI V0 load(1, XDATA, add(CFA_XSP16, literal(-11)))
          CFI R3 load(1, XDATA, add(CFA_XSP16, literal(-12)))
          CFI R2 load(1, XDATA, add(CFA_XSP16, literal(-13)))
          CFI R1 load(1, XDATA, add(CFA_XSP16, literal(-14)))
          CFI R0 load(1, XDATA, add(CFA_XSP16, literal(-15)))
          CFI CFA_XSP16 add(XSP16, 15)
        ; Saved register size: 15
        ; Auto size: 0
//  142   HAL_ENTER_ISR();
        MOV       C,0xa8.7
        CLR       A
        RLC       A
        MOV       R6,A
        SETB      0xa8.7
//  143 
//  144   IEN2  &= ~BV(1); // disable port interrupt
        ANL       0x9a,#0xfd
//  145   P2IEN &= ~PWR_SINGLE_BUS_BV; // disable pin interrupt
        ANL       0xac,#0xfe
//  146 
//  147   if(PWR_SINGLE_BUS_PIN)
        MOV       C,0xa0.0
        JNC       $+5
        LJMP      ??pwr_single_bus_Isr_0
//  148   {
//  149     goto pwr_isr_exit;
//  150   }
//  151 
//  152   // start to capture the head (4 ms)
//  153   AT_Timer4_Set_Clear_Start_US(0xFA);    //(250*7)*4=7000
        ; Setup parameters for call to function AT_Timer4_Set_Clear_Start_US
        MOV       R1,#-0x6
        LCALL     `??AT_Timer4_Set_Clear_Start_US::?relay`; Banked call to: AT_Timer4_Set_Clear_Start_US
//  154   while(1)
//  155   {
//  156 #ifdef WDT_IN_PM1
//  157     WatchDogClear();
??pwr_single_bus_Isr_1:
        LCALL     ?Subroutine3
//  158 #endif
//  159     if(T4IF)
??CrossCallReturnLabel_8:
        MOV       C,0xc0.4
        JNC       ??pwr_single_bus_Isr_2
//  160     {
//  161       if(tim4_tick_peroid==7)    //overflow
        MOV       DPTR,#tim4_tick_peroid
        MOVX      A,@DPTR
        XRL       A,#0x7
        JNZ       $+5
        LJMP      ??pwr_single_bus_Isr_3
//  162       {
//  163         T4IF = 0;
//  164         goto pwr_isr_exit;
//  165       }
//  166       T4IF = 0;
        CLR       0xc0.4
//  167       
//  168     }
//  169     if(PWR_SINGLE_BUS_PIN)
??pwr_single_bus_Isr_2:
        MOV       C,0xa0.0
        JNC       ??pwr_single_bus_Isr_1
//  170       break;
//  171   }
//  172   pwr_single_bus_rcv_low = AT_Timer4_Stop_Get()+tim4_tick_peroid*256;
        ; Setup parameters for call to function AT_Timer4_Stop_Get
        LCALL     `??AT_Timer4_Stop_Get::?relay`; Banked call to: AT_Timer4_Stop_Get
        MOV       A,R1
        MOV       R2,A
        MOV       DPTR,#tim4_tick_peroid
        MOVX      A,@DPTR
        MOV       R0,A
        CLR       A
        XCH       A,R0
        MOV       R1,A
        MOV       A,R2
        ADD       A,R0
        MOV       DPTR,#pwr_single_bus_rcv_low
        MOVX      @DPTR,A
        INC       DPTR
        MOV       A,R1
        MOVX      @DPTR,A
//  173   if(pwr_single_bus_rcv_low < 500)      //4
        MOV       DPTR,#pwr_single_bus_rcv_low
        MOVX      A,@DPTR
        SUBB      A,#-0xc
        INC       DPTR
        MOVX      A,@DPTR
        SUBB      A,#0x1
        JC        ??pwr_single_bus_Isr_0
//  174   {
//  175     goto pwr_isr_exit;
//  176   }
//  177 
//  178   pwr_single_bus_rcv_len = 0;
        MOV       DPTR,#pwr_single_bus_rcv_len
        CLR       A
        MOVX      @DPTR,A
//  179   pwr_single_bus_rcv_bit = 0;
        MOV       DPTR,#pwr_single_bus_rcv_bit
        SJMP      ??pwr_single_bus_Isr_4
//  180 
//  181   // start to capture data
//  182   while(1)
//  183   {
//  184 #ifdef WDT_IN_PM1
//  185     WatchDogClear();
//  186 #endif
//  187 
//  188     // get high level time
//  189     AT_Timer4_Set_Clear_Start_US(100);
//  190     while(PWR_SINGLE_BUS_PIN)
//  191     {
//  192       if(T4IF)
//  193       {
//  194         T4IF = 0;
//  195 
//  196         if((pwr_single_bus_rcv_len > 0) && (pwr_single_bus_rcv_bit == 0))
//  197         {
//  198           pwr_senddata(pwr_single_bus_rcv_buf);
//  199           goto pwr_isr_exit;
//  200         }
//  201 
//  202         goto pwr_isr_exit;
//  203       }
//  204     }
//  205     pwr_single_bus_rcv_high = AT_Timer4_Stop_Get();
//  206 
//  207     // get low level time
//  208     AT_Timer4_Set_Clear_Start_US(100);
//  209     while(!PWR_SINGLE_BUS_PIN)
//  210     {
//  211       if(T4IF)
//  212       {
//  213         T4IF = 0;
//  214         goto pwr_isr_exit;
//  215       }
//  216     }
//  217     pwr_single_bus_rcv_low = AT_Timer4_Stop_Get();
//  218 
//  219     // check the total time
//  220     pwr_single_bus_rcv_total = pwr_single_bus_rcv_high + pwr_single_bus_rcv_low;
//  221     if ((pwr_single_bus_rcv_total < 30) || (pwr_single_bus_rcv_total > 87))
//  222       goto pwr_isr_exit; // tolerance of 30%
//  223 
//  224     // save the data bit
//  225     if(pwr_single_bus_rcv_high > pwr_single_bus_rcv_low)
//  226       pwr_single_bus_rcv_buf[pwr_single_bus_rcv_len] |= BV(pwr_single_bus_rcv_bit++);
//  227     else
//  228       pwr_single_bus_rcv_buf[pwr_single_bus_rcv_len] &= ~BV(pwr_single_bus_rcv_bit++);
??pwr_single_bus_Isr_5:
        MOV       A,R4
        CPL       A
        MOV       R2,A
        MOV       DPL,R0
        MOV       DPH,R1
        MOVX      A,@DPTR
        ANL       A,R2
??pwr_single_bus_Isr_6:
        MOVX      @DPTR,A
        MOV       DPTR,#pwr_single_bus_rcv_bit
        MOVX      A,@DPTR
        INC       A
        MOVX      @DPTR,A
//  229 
//  230     // increase the index
//  231     if(pwr_single_bus_rcv_bit == 8) // get a whole byte (8 bits)
        MOVX      A,@DPTR
        XRL       A,#0x8
        JNZ       ??pwr_single_bus_Isr_7
//  232     {
//  233       pwr_single_bus_rcv_bit = 0;
        CLR       A
        MOVX      @DPTR,A
//  234       pwr_single_bus_rcv_len++;
        MOV       DPTR,#pwr_single_bus_rcv_len
        MOVX      A,@DPTR
        INC       A
??pwr_single_bus_Isr_4:
        MOVX      @DPTR,A
//  235     }
??pwr_single_bus_Isr_7:
        LCALL     ?Subroutine3
??CrossCallReturnLabel_9:
        ; Setup parameters for call to function AT_Timer4_Set_Clear_Start_US
        MOV       R1,#0x64
        LCALL     `??AT_Timer4_Set_Clear_Start_US::?relay`; Banked call to: AT_Timer4_Set_Clear_Start_US
??pwr_single_bus_Isr_8:
        MOV       C,0xa0.0
        JNC       ??pwr_single_bus_Isr_9
        MOV       C,0xc0.4
        JNC       ??pwr_single_bus_Isr_8
        CLR       0xc0.4
        MOV       DPTR,#pwr_single_bus_rcv_len
        MOVX      A,@DPTR
        JZ        ??pwr_single_bus_Isr_0
        MOV       DPTR,#pwr_single_bus_rcv_bit
        MOVX      A,@DPTR
        JNZ       ??pwr_single_bus_Isr_0
        ; Setup parameters for call to function pwr_senddata
        MOV       R2,#pwr_single_bus_rcv_buf & 0xff
        MOV       R3,#(pwr_single_bus_rcv_buf >> 8) & 0xff
        LCALL     `??pwr_senddata::?relay`; Banked call to: pwr_senddata
//  236   }
//  237 
//  238 pwr_isr_exit:
//  239 
//  240   IEN2  |= BV(1); // enable port interrupt
??pwr_single_bus_Isr_0:
        ORL       0x9a,#0x2
//  241   P2IEN |= PWR_SINGLE_BUS_BV; // enable pin interrupt
        ORL       0xac,#0x1
//  242 
//  243   P2IFG = 0x00;
        MOV       0x8b,#0x0
//  244   P2IF = 0x00;
        CLR       0xe8.0
//  245 
//  246   CLEAR_SLEEP_MODE();
        MOV       halSleepPconValue,#0x0
//  247   HAL_EXIT_ISR();
        MOV       A,R6
        MOV       C,0xE0 /* A   */.0
        MOV       0xa8.7,C
//  248 }
        MOV       R7,#0x2
        LJMP      ?INTERRUPT_LEAVE_XSP
??pwr_single_bus_Isr_9:
        ; Setup parameters for call to function AT_Timer4_Stop_Get
        LCALL     `??AT_Timer4_Stop_Get::?relay`; Banked call to: AT_Timer4_Stop_Get
        MOV       A,R1
        MOV       DPTR,#pwr_single_bus_rcv_high
        MOVX      @DPTR,A
        INC       DPTR
        CLR       A
        MOVX      @DPTR,A
        ; Setup parameters for call to function AT_Timer4_Set_Clear_Start_US
        MOV       R1,#0x64
        LCALL     `??AT_Timer4_Set_Clear_Start_US::?relay`; Banked call to: AT_Timer4_Set_Clear_Start_US
??pwr_single_bus_Isr_10:
        MOV       C,0xa0.0
        JC        ??pwr_single_bus_Isr_11
        MOV       C,0xc0.4
        JNC       ??pwr_single_bus_Isr_10
??pwr_single_bus_Isr_3:
        CLR       0xc0.4
        SJMP      ??pwr_single_bus_Isr_0
??pwr_single_bus_Isr_11:
        ; Setup parameters for call to function AT_Timer4_Stop_Get
        LCALL     `??AT_Timer4_Stop_Get::?relay`; Banked call to: AT_Timer4_Stop_Get
        MOV       A,R1
        MOV       DPTR,#pwr_single_bus_rcv_low
        MOVX      @DPTR,A
        INC       DPTR
        CLR       A
        MOVX      @DPTR,A
        MOV       DPTR,#pwr_single_bus_rcv_high
        MOVX      A,@DPTR
        MOV       R0,A
        INC       DPTR
        MOVX      A,@DPTR
        MOV       R1,A
        MOV       DPTR,#pwr_single_bus_rcv_low
        MOVX      A,@DPTR
        ADD       A,R0
        MOV       R0,A
        CLR       A
        ADDC      A,R1
        MOV       R1,A
        MOV       DPTR,#pwr_single_bus_rcv_total
        MOV       A,R0
        MOVX      @DPTR,A
        INC       DPTR
        MOV       A,R1
        MOVX      @DPTR,A
        MOV       DPTR,#pwr_single_bus_rcv_total
        MOVX      A,@DPTR
        ADD       A,#-0x1e
        MOV       R0,A
        INC       DPTR
        MOVX      A,@DPTR
        ADDC      A,#-0x1
        MOV       R1,A
        CLR       C
        MOV       A,R0
        SUBB      A,#0x3a
        MOV       A,R1
        SUBB      A,#0x0
        JNC       ??pwr_single_bus_Isr_0
        MOV       ?V0,#0x1
        MOV       ?V1,#0x0
        MOV       DPTR,#pwr_single_bus_rcv_bit
        MOVX      A,@DPTR
        MOV       R0,#?V0
        LCALL     ?S_SHL
        MOV       A,?V0
        MOV       R4,A
        MOV       DPTR,#pwr_single_bus_rcv_len
        MOVX      A,@DPTR
        MOV       R0,A
        MOV       A,#pwr_single_bus_rcv_buf & 0xff
        ADD       A,R0
        MOV       R0,A
        CLR       A
        ADDC      A,#(pwr_single_bus_rcv_buf >> 8) & 0xff
        MOV       R1,A
        MOV       DPTR,#pwr_single_bus_rcv_low
        PUSH      DPL
          CFI CFA_SP SP+-4
        MOV       DPTR,#pwr_single_bus_rcv_high
        MOVX      A,@DPTR
        MOV       R2,A
        INC       DPTR
        MOVX      A,@DPTR
        MOV       R3,A
        MOV       DPH,#(pwr_single_bus_rcv_low >> 8) & 0xff
        POP       DPL
          CFI CFA_SP SP+-3
        CLR       C
        MOVX      A,@DPTR
        SUBB      A,R2
        INC       DPTR
        MOVX      A,@DPTR
        SUBB      A,R3
        JC        $+5
        LJMP      ??pwr_single_bus_Isr_5
        MOV       DPL,R0
        MOV       DPH,R1
        MOVX      A,@DPTR
        ORL       A,R4
        LJMP      ??pwr_single_bus_Isr_6
          CFI EndBlock cfiBlock16
        REQUIRE _A_IEN0
        REQUIRE IEN2
        REQUIRE P2IEN
        REQUIRE _A_P2
        REQUIRE WDCTL
        REQUIRE _A_IRCON
        REQUIRE P2IFG
        REQUIRE _A_IRCON2

        RSEG NEAR_CODE:CODE:NOROOT(0)
?Subroutine3:
          CFI Block cfiCond17 Using cfiCommon1
          CFI Function pwr_single_bus_Isr
          CFI Conditional ??CrossCallReturnLabel_8
          CFI A Frame(CFA_SP, 3)
          CFI R0 load(1, XDATA, add(CFA_XSP16, literal(-15)))
          CFI R1 load(1, XDATA, add(CFA_XSP16, literal(-14)))
          CFI R2 load(1, XDATA, add(CFA_XSP16, literal(-13)))
          CFI R3 load(1, XDATA, add(CFA_XSP16, literal(-12)))
          CFI V0 load(1, XDATA, add(CFA_XSP16, literal(-11)))
          CFI V1 load(1, XDATA, add(CFA_XSP16, literal(-10)))
          CFI R4 load(1, XDATA, add(CFA_XSP16, literal(-9)))
          CFI R5 load(1, XDATA, add(CFA_XSP16, literal(-8)))
          CFI R6 load(1, XDATA, add(CFA_XSP16, literal(-7)))
          CFI R7 load(1, XDATA, add(CFA_XSP16, literal(-6)))
          CFI DPH0 load(1, XDATA, add(CFA_XSP16, literal(-5)))
          CFI DPL0 load(1, XDATA, add(CFA_XSP16, literal(-4)))
          CFI PSW load(1, XDATA, add(CFA_XSP16, literal(-3)))
          CFI VB load(1, XDATA, add(CFA_XSP16, literal(-2)))
          CFI B load(1, XDATA, add(CFA_XSP16, literal(-1)))
          CFI CFA_SP SP+-5
          CFI CFA_XSP16 add(XSP16, 15)
          CFI Block cfiCond18 Using cfiCommon1
          CFI (cfiCond18) Function pwr_single_bus_Isr
          CFI (cfiCond18) Conditional ??CrossCallReturnLabel_9
          CFI (cfiCond18) A Frame(CFA_SP, 3)
          CFI (cfiCond18) R0 load(1, XDATA, add(CFA_XSP16, literal(-15)))
          CFI (cfiCond18) R1 load(1, XDATA, add(CFA_XSP16, literal(-14)))
          CFI (cfiCond18) R2 load(1, XDATA, add(CFA_XSP16, literal(-13)))
          CFI (cfiCond18) R3 load(1, XDATA, add(CFA_XSP16, literal(-12)))
          CFI (cfiCond18) V0 load(1, XDATA, add(CFA_XSP16, literal(-11)))
          CFI (cfiCond18) V1 load(1, XDATA, add(CFA_XSP16, literal(-10)))
          CFI (cfiCond18) R4 load(1, XDATA, add(CFA_XSP16, literal(-9)))
          CFI (cfiCond18) R5 load(1, XDATA, add(CFA_XSP16, literal(-8)))
          CFI (cfiCond18) R6 load(1, XDATA, add(CFA_XSP16, literal(-7)))
          CFI (cfiCond18) R7 load(1, XDATA, add(CFA_XSP16, literal(-6)))
          CFI (cfiCond18) DPH0 load(1, XDATA, add(CFA_XSP16, literal(-5)))
          CFI (cfiCond18) DPL0 load(1, XDATA, add(CFA_XSP16, literal(-4)))
          CFI (cfiCond18) PSW load(1, XDATA, add(CFA_XSP16, literal(-3)))
          CFI (cfiCond18) VB load(1, XDATA, add(CFA_XSP16, literal(-2)))
          CFI (cfiCond18) B load(1, XDATA, add(CFA_XSP16, literal(-1)))
          CFI (cfiCond18) CFA_SP SP+-5
          CFI (cfiCond18) CFA_XSP16 add(XSP16, 15)
          CFI Block cfiPicker19 Using cfiCommon1
          CFI (cfiPicker19) NoFunction
          CFI (cfiPicker19) Picker
        MOV       A,0xc9
        ANL       A,#0xf
        ORL       A,#0xa0
        MOV       0xc9,A
        MOV       A,0xc9
        ANL       A,#0xf
        ORL       A,#0x50
        MOV       0xc9,A
        RET
          CFI EndBlock cfiCond17
          CFI EndBlock cfiCond18
          CFI EndBlock cfiPicker19

        COMMON INTVEC:CODE:ROOT(0)
        ORG 51
`??pwr_single_bus_Isr::??INTVEC 51`:
        LJMP       (pwr_single_bus_Isr)

        RSEG BANK_RELAYS:CODE:REORDER:NOROOT(0)
`??AT_pwr_single_bus_input::?relay`:
        CODE
        LCALL   ?BDISPATCH
        DATA24
        DC24    AT_pwr_single_bus_input

        RSEG BANK_RELAYS:CODE:REORDER:NOROOT(0)
`??AT_pwr_single_bus_init::?relay`:
        CODE
        LCALL   ?BDISPATCH
        DATA24
        DC24    AT_pwr_single_bus_init

        RSEG BANK_RELAYS:CODE:REORDER:NOROOT(0)
`??AT_pwr_single_bus_send_buf::?relay`:
        CODE
        LCALL   ?BDISPATCH
        DATA24
        DC24    AT_pwr_single_bus_send_buf

        RSEG BANK_RELAYS:CODE:REORDER:NOROOT(0)
`??pwr_senddata::?relay`:
        CODE
        LCALL   ?BDISPATCH
        DATA24
        DC24    pwr_senddata

        RSEG XDATA_ROM_C:CONST:REORDER:NOROOT(0)
        DATA8
`?<Constant "|down|-----|%02d byte...">`:
        DB "|down|-----|%02d bytes|: "

        RSEG XDATA_ROM_C:CONST:REORDER:NOROOT(0)
        DATA8
`?<Constant "%02X ">`:
        DB "%02X "

        RSEG XDATA_ROM_C:CONST:REORDER:NOROOT(0)
        DATA8
`?<Constant "\\r\\n">`:
        DB "\015\012"

        END
// 
// 562 bytes in segment BANKED_CODE
//  24 bytes in segment BANK_RELAYS
//   3 bytes in segment INTVEC
// 361 bytes in segment NEAR_CODE
//  14 bytes in segment SFR_AN
//  35 bytes in segment XDATA_ROM_C
//  18 bytes in segment XDATA_Z
// 
// 385 bytes of CODE     memory (+  3 bytes shared)
//  35 bytes of CONST    memory
//   0 bytes of DATA     memory (+ 14 bytes shared)
// 562 bytes of HUGECODE memory
//  18 bytes of XDATA    memory
//
//Errors: none
//Warnings: none
