///////////////////////////////////////////////////////////////////////////////
//
// IAR C/C++ Compiler V10.30.1.6000 for 8051              30/Nov/2021  10:38:46
// Copyright 2004-2018 IAR Systems AB.
// PC-locked license - IAR Embedded Workbench for 8051
//
//    Core               =  plain
//    Code model         =  banked
//    Data model         =  large
//    Calling convention =  xdata reentrant
//    Constant location  =  data_rom
//    Dptr setup         =  1,16
//                          
//    Source file        =  
//        F:\2workspace\doorlock-CC2530\ZigBee-DoorLock-2021.09.27\Projects\zstack\AT-command\ATApp\Source\Controller\AT_timer4.c
//    Command line       =  
//        -f C:\Users\ADMINI~1\AppData\Local\Temp\EWA853.tmp
//        (F:\2workspace\doorlock-CC2530\ZigBee-DoorLock-2021.09.27\Projects\zstack\AT-command\ATApp\Source\Controller\AT_timer4.c
//        -D WDT_IN_PM1 -D ZIGBEEPRO -D INTER_PAN -D ZIGBEE_FREQ_AGILITY -D
//        DISABLE_GREENPOWER_BASIC_PROXY -D REFLECTOR -D HAL_UART=FALSE -D
//        HAL_LED=FALSE -D HAL_KEY=FALSE -D SECURE=1 -D TC_LINKKEY_JOIN -D
//        NV_INIT -D NV_RESTORE -D POWER_SAVING -D NWK_AUTO_POLL -D xZTOOL_P1
//        -D xMT_TASK -D xMT_APP_FUNC -D xMT_SYS_FUNC -D xMT_ZDO_FUNC -D
//        xMT_ZDO_MGMT -D xMT_APP_CNF_FUNC -D xLEGACY_LCD_DEBUG -D
//        xLCD_SUPPORTED=DEBUG -D MULTICAST_ENABLED=FALSE -D ZCL_READ -D
//        ZCL_WRITE -D ZCL_DISCOVER -D ZCL_BASIC -D ZCL_IDENTIFY -D ZCL_SCENES
//        -D ZCL_GROUPS -D BDB_REPORTING -D ZCL_DOORLOCK -D ZCL_DOORLOCK_EXT -D
//        ISR_KEYINTERRUPT -lC
//        F:\2workspace\doorlock-CC2530\ZigBee-DoorLock-2021.09.27\Projects\zstack\AT-command\ATApp\CC2530DB\EndDeviceEB\List
//        -lA
//        F:\2workspace\doorlock-CC2530\ZigBee-DoorLock-2021.09.27\Projects\zstack\AT-command\ATApp\CC2530DB\EndDeviceEB\List
//        --diag_suppress Pe001,Pa010 -o
//        F:\2workspace\doorlock-CC2530\ZigBee-DoorLock-2021.09.27\Projects\zstack\AT-command\ATApp\CC2530DB\EndDeviceEB\Obj
//        -e --debug --core=plain --dptr=16,1 --data_model=large
//        --code_model=banked --calling_convention=xdata_reentrant
//        --place_constants=data_rom --nr_virtual_regs 16 -f
//        F:\2workspace\doorlock-CC2530\ZigBee-DoorLock-2021.09.27\Projects\zstack\AT-command\ATApp\CC2530DB\..\..\..\Tools\CC2530DB\f8wEndev.cfg
//        (-DCPU32MHZ -DROOT=__near_func -DMAC_CFG_TX_DATA_MAX=3
//        -DMAC_CFG_TX_MAX=6 -DMAC_CFG_RX_MAX=3) -f
//        F:\2workspace\doorlock-CC2530\ZigBee-DoorLock-2021.09.27\Projects\zstack\AT-command\ATApp\CC2530DB\..\..\..\Tools\CC2530DB\f8wConfig.cfg
//        (-DZIGBEEPRO -DSECURE=1 -DZG_SECURE_DYNAMIC=0 -DREFLECTOR
//        -DDEFAULT_CHANLIST=0x00000800 -DZDAPP_CONFIG_PAN_ID=0xFFFF
//        -DNWK_START_DELAY=100 -DEXTENDED_JOINING_RANDOM_MASK=0x007F
//        -DBEACON_REQUEST_DELAY=100 -DBEACON_REQ_DELAY_MASK=0x00FF
//        -DLINK_STATUS_JITTER_MASK=0x007F -DROUTE_EXPIRY_TIME=30
//        -DAPSC_ACK_WAIT_DURATION_POLLED=3000 -DNWK_INDIRECT_MSG_TIMEOUT=7
//        -DMAX_RREQ_ENTRIES=8 -DAPSC_MAX_FRAME_RETRIES=3
//        -DNWK_MAX_DATA_RETRIES=2 -DMAX_POLL_FAILURE_RETRIES=2 -DMAX_BCAST=9
//        -DAPS_MAX_GROUPS=10 -DMAX_RTG_ENTRIES=15 -DNWK_MAX_BINDING_ENTRIES=4
//        -DMAX_BINDING_CLUSTER_IDS=4 -DDEFAULT_KEY={0}
//        -DMAC_MAX_FRAME_SIZE=116 -DZDNWKMGR_MIN_TRANSMISSIONS=20
//        "-DCONST=const __code" -DGENERIC=__generic -DRFD_RCVC_ALWAYS_ON=FALSE
//        -DPOLL_RATE=300 -DQUEUED_POLL_RATE=100 -DRESPONSE_POLL_RATE=100
//        -DREJOIN_POLL_RATE=440 -DREJOIN_BACKOFF=900000 -DREJOIN_SCAN=900000)
//        -f
//        F:\2workspace\doorlock-CC2530\ZigBee-DoorLock-2021.09.27\Projects\zstack\AT-command\ATApp\CC2530DB\..\..\..\Tools\CC2530DB\f8wZCL.cfg
//        -I
//        F:\2workspace\doorlock-CC2530\ZigBee-DoorLock-2021.09.27\Projects\zstack\AT-command\ATApp\CC2530DB\
//        -I
//        F:\2workspace\doorlock-CC2530\ZigBee-DoorLock-2021.09.27\Projects\zstack\AT-command\ATApp\CC2530DB\..\Source\
//        -I
//        F:\2workspace\doorlock-CC2530\ZigBee-DoorLock-2021.09.27\Projects\zstack\AT-command\ATApp\CC2530DB\..\Source\ZCL\
//        -I
//        F:\2workspace\doorlock-CC2530\ZigBee-DoorLock-2021.09.27\Projects\zstack\AT-command\ATApp\CC2530DB\..\Source\UserAPI\
//        -I
//        F:\2workspace\doorlock-CC2530\ZigBee-DoorLock-2021.09.27\Projects\zstack\AT-command\ATApp\CC2530DB\..\Source\Controller\
//        -I
//        F:\2workspace\doorlock-CC2530\ZigBee-DoorLock-2021.09.27\Projects\zstack\AT-command\ATApp\CC2530DB\..\..\..\ZMain\TI2530DB\
//        -I
//        F:\2workspace\doorlock-CC2530\ZigBee-DoorLock-2021.09.27\Projects\zstack\AT-command\ATApp\CC2530DB\..\..\..\..\..\Components\hal\include\
//        -I
//        F:\2workspace\doorlock-CC2530\ZigBee-DoorLock-2021.09.27\Projects\zstack\AT-command\ATApp\CC2530DB\..\..\..\..\..\Components\hal\target\CC2530EB\
//        -I
//        F:\2workspace\doorlock-CC2530\ZigBee-DoorLock-2021.09.27\Projects\zstack\AT-command\ATApp\CC2530DB\..\..\..\..\..\Components\mac\include\
//        -I
//        F:\2workspace\doorlock-CC2530\ZigBee-DoorLock-2021.09.27\Projects\zstack\AT-command\ATApp\CC2530DB\..\..\..\..\..\Components\mac\high_level\
//        -I
//        F:\2workspace\doorlock-CC2530\ZigBee-DoorLock-2021.09.27\Projects\zstack\AT-command\ATApp\CC2530DB\..\..\..\..\..\Components\mac\low_level\srf04\
//        -I
//        F:\2workspace\doorlock-CC2530\ZigBee-DoorLock-2021.09.27\Projects\zstack\AT-command\ATApp\CC2530DB\..\..\..\..\..\Components\mac\low_level\srf04\single_chip\
//        -I
//        F:\2workspace\doorlock-CC2530\ZigBee-DoorLock-2021.09.27\Projects\zstack\AT-command\ATApp\CC2530DB\..\..\..\..\..\Components\mt\
//        -I
//        F:\2workspace\doorlock-CC2530\ZigBee-DoorLock-2021.09.27\Projects\zstack\AT-command\ATApp\CC2530DB\..\..\..\..\..\Components\osal\include\
//        -I
//        F:\2workspace\doorlock-CC2530\ZigBee-DoorLock-2021.09.27\Projects\zstack\AT-command\ATApp\CC2530DB\..\..\..\..\..\Components\services\saddr\
//        -I
//        F:\2workspace\doorlock-CC2530\ZigBee-DoorLock-2021.09.27\Projects\zstack\AT-command\ATApp\CC2530DB\..\..\..\..\..\Components\services\sdata\
//        -I
//        F:\2workspace\doorlock-CC2530\ZigBee-DoorLock-2021.09.27\Projects\zstack\AT-command\ATApp\CC2530DB\..\..\..\..\..\Components\stack\af\
//        -I
//        F:\2workspace\doorlock-CC2530\ZigBee-DoorLock-2021.09.27\Projects\zstack\AT-command\ATApp\CC2530DB\..\..\..\..\..\Components\stack\bdb\
//        -I
//        F:\2workspace\doorlock-CC2530\ZigBee-DoorLock-2021.09.27\Projects\zstack\AT-command\ATApp\CC2530DB\..\..\..\..\..\Components\stack\gp\
//        -I
//        F:\2workspace\doorlock-CC2530\ZigBee-DoorLock-2021.09.27\Projects\zstack\AT-command\ATApp\CC2530DB\..\..\..\..\..\Components\stack\nwk\
//        -I
//        F:\2workspace\doorlock-CC2530\ZigBee-DoorLock-2021.09.27\Projects\zstack\AT-command\ATApp\CC2530DB\..\..\..\..\..\Components\stack\sapi\
//        -I
//        F:\2workspace\doorlock-CC2530\ZigBee-DoorLock-2021.09.27\Projects\zstack\AT-command\ATApp\CC2530DB\..\..\..\..\..\Components\stack\sec\
//        -I
//        F:\2workspace\doorlock-CC2530\ZigBee-DoorLock-2021.09.27\Projects\zstack\AT-command\ATApp\CC2530DB\..\..\..\..\..\Components\stack\sys\
//        -I
//        F:\2workspace\doorlock-CC2530\ZigBee-DoorLock-2021.09.27\Projects\zstack\AT-command\ATApp\CC2530DB\..\..\..\..\..\Components\stack\zcl\
//        -I
//        F:\2workspace\doorlock-CC2530\ZigBee-DoorLock-2021.09.27\Projects\zstack\AT-command\ATApp\CC2530DB\..\..\..\..\..\Components\stack\zdo\
//        -I
//        F:\2workspace\doorlock-CC2530\ZigBee-DoorLock-2021.09.27\Projects\zstack\AT-command\ATApp\CC2530DB\..\..\..\..\..\Components\zmac\
//        -I
//        F:\2workspace\doorlock-CC2530\ZigBee-DoorLock-2021.09.27\Projects\zstack\AT-command\ATApp\CC2530DB\..\..\..\..\..\Components\zmac\f8w\
//        -Ohz --require_prototypes)
//    Locale             =  Chinese (Simplified)_CHN.936
//    List file          =  
//        F:\2workspace\doorlock-CC2530\ZigBee-DoorLock-2021.09.27\Projects\zstack\AT-command\ATApp\CC2530DB\EndDeviceEB\List\AT_timer4.s51
//
///////////////////////////////////////////////////////////////////////////////

        NAME AT_timer4

        RTMODEL "__SystemLibrary", "CLib"
        RTMODEL "__calling_convention", "xdata_reentrant"
        RTMODEL "__code_model", "banked"
        RTMODEL "__core", "plain"
        RTMODEL "__data_model", "large"
        RTMODEL "__dptr_size", "16"
        RTMODEL "__extended_stack", "disabled"
        RTMODEL "__location_for_constants", "data"
        RTMODEL "__number_of_dptrs", "1"
        RTMODEL "__register_banks", "*"
        RTMODEL "__rt_version", "1"

        RSEG DOVERLAY:DATA:NOROOT(0)
        RSEG IOVERLAY:IDATA:NOROOT(0)
        RSEG ISTACK:IDATA:NOROOT(0)
        RSEG PSTACK:XDATA:NOROOT(0)
        RSEG XSTACK:XDATA:NOROOT(0)

        EXTERN ?BDISPATCH
        EXTERN ?BRET
        EXTERN __INIT_XDATA_Z

        PUBLIC `??AT_Timer4_Set_Clear_Start_US::?relay`
        FUNCTION `??AT_Timer4_Set_Clear_Start_US::?relay`,0203H
        PUBLIC `??AT_Timer4_Stop_Get::?relay`
        FUNCTION `??AT_Timer4_Stop_Get::?relay`,0203H
        PUBWEAK `??timer4_ovf_Isr::??INTVEC 99`
        PUBLIC AT_Timer4_Set_Clear_Start_US
        FUNCTION AT_Timer4_Set_Clear_Start_US,0203H
        ARGFRAME XSTACK, 0, STACK
        LOCFRAME ISTACK, 2, STACK
        PUBLIC AT_Timer4_Stop_Get
        FUNCTION AT_Timer4_Stop_Get,0203H
        ARGFRAME XSTACK, 0, STACK
        PUBWEAK T4CC0
        PUBWEAK T4CCTL0
        PUBWEAK T4CNT
        PUBWEAK T4CTL
        PUBWEAK _A_IEN0
        PUBWEAK _A_IEN1
        PUBWEAK _A_IRCON
        PUBLIC tim4_tick_peroid
        PUBLIC timer4_ovf_Isr
        FUNCTION timer4_ovf_Isr,0233H
        ARGFRAME XSTACK, 0, STACK
        LOCFRAME ISTACK, 5, STACK
        
          CFI Names cfiNames0
          CFI StackFrame CFA_SP SP IDATA
          CFI StackFrame CFA_PSP16 PSP16 XDATA
          CFI StackFrame CFA_XSP16 XSP16 XDATA
          CFI StaticOverlayFrame CFA_IOVERLAY IOVERLAY
          CFI StaticOverlayFrame CFA_DOVERLAY DOVERLAY
          CFI Resource `PSW.CY`:1, `B.BR0`:1, `B.BR1`:1, `B.BR2`:1, `B.BR3`:1
          CFI Resource `B.BR4`:1, `B.BR5`:1, `B.BR6`:1, `B.BR7`:1, `VB.BR8`:1
          CFI Resource `VB.BR9`:1, `VB.BR10`:1, `VB.BR11`:1, `VB.BR12`:1
          CFI Resource `VB.BR13`:1, `VB.BR14`:1, `VB.BR15`:1, VB:8, B:8, A:8
          CFI Resource PSW:8, DPL0:8, DPH0:8, R0:8, R1:8, R2:8, R3:8, R4:8, R5:8
          CFI Resource R6:8, R7:8, V0:8, V1:8, V2:8, V3:8, V4:8, V5:8, V6:8, V7:8
          CFI Resource V8:8, V9:8, V10:8, V11:8, V12:8, V13:8, V14:8, V15:8, SP:8
          CFI Resource PSPH:8, PSPL:8, PSP16:16, XSPH:8, XSPL:8, XSP16:16
          CFI VirtualResource ?RET:24
          CFI Resource ?BRET_EXT:8
          CFI VirtualResource ?RET_HIGH:8, ?RET_LOW:8
          CFI ResourceParts PSP16 PSPH, PSPL
          CFI ResourceParts XSP16 XSPH, XSPL
          CFI ResourceParts ?RET ?BRET_EXT, ?RET_HIGH, ?RET_LOW
          CFI EndNames cfiNames0
        
          CFI Common cfiCommon0 Using cfiNames0
          CFI CodeAlign 1
          CFI DataAlign -1
          CFI ReturnAddress ?RET CODE
          CFI CFA_DOVERLAY Used
          CFI CFA_IOVERLAY Used
          CFI CFA_SP SP+-3
          CFI CFA_PSP16 PSP16+0
          CFI CFA_XSP16 XSP16+0
          CFI `PSW.CY` SameValue
          CFI `B.BR0` SameValue
          CFI `B.BR1` SameValue
          CFI `B.BR2` SameValue
          CFI `B.BR3` SameValue
          CFI `B.BR4` SameValue
          CFI `B.BR5` SameValue
          CFI `B.BR6` SameValue
          CFI `B.BR7` SameValue
          CFI `VB.BR8` SameValue
          CFI `VB.BR9` SameValue
          CFI `VB.BR10` SameValue
          CFI `VB.BR11` SameValue
          CFI `VB.BR12` SameValue
          CFI `VB.BR13` SameValue
          CFI `VB.BR14` SameValue
          CFI `VB.BR15` SameValue
          CFI VB SameValue
          CFI B Undefined
          CFI A Undefined
          CFI PSW SameValue
          CFI DPL0 SameValue
          CFI DPH0 SameValue
          CFI R0 Undefined
          CFI R1 Undefined
          CFI R2 Undefined
          CFI R3 Undefined
          CFI R4 Undefined
          CFI R5 Undefined
          CFI R6 SameValue
          CFI R7 SameValue
          CFI V0 SameValue
          CFI V1 SameValue
          CFI V2 SameValue
          CFI V3 SameValue
          CFI V4 SameValue
          CFI V5 SameValue
          CFI V6 SameValue
          CFI V7 SameValue
          CFI V8 SameValue
          CFI V9 SameValue
          CFI V10 SameValue
          CFI V11 SameValue
          CFI V12 SameValue
          CFI V13 SameValue
          CFI V14 SameValue
          CFI V15 SameValue
          CFI PSPH Undefined
          CFI PSPL Undefined
          CFI XSPH Undefined
          CFI XSPL Undefined
          CFI ?RET Concat
          CFI ?BRET_EXT Frame(CFA_SP, 3)
          CFI ?RET_HIGH Frame(CFA_SP, 2)
          CFI ?RET_LOW Frame(CFA_SP, 1)
          CFI EndCommon cfiCommon0
        
        
          CFI Common cfiCommon1 Using cfiNames0
          CFI CodeAlign 1
          CFI DataAlign -1
          CFI ReturnAddress ?RET CODE
          CFI CFA_DOVERLAY Used
          CFI CFA_IOVERLAY Used
          CFI CFA_SP SP+-2
          CFI CFA_PSP16 PSP16+0
          CFI CFA_XSP16 XSP16+0
          CFI `PSW.CY` SameValue
          CFI `B.BR0` SameValue
          CFI `B.BR1` SameValue
          CFI `B.BR2` SameValue
          CFI `B.BR3` SameValue
          CFI `B.BR4` SameValue
          CFI `B.BR5` SameValue
          CFI `B.BR6` SameValue
          CFI `B.BR7` SameValue
          CFI `VB.BR8` SameValue
          CFI `VB.BR9` SameValue
          CFI `VB.BR10` SameValue
          CFI `VB.BR11` SameValue
          CFI `VB.BR12` SameValue
          CFI `VB.BR13` SameValue
          CFI `VB.BR14` SameValue
          CFI `VB.BR15` SameValue
          CFI VB SameValue
          CFI B SameValue
          CFI A SameValue
          CFI PSW SameValue
          CFI DPL0 SameValue
          CFI DPH0 SameValue
          CFI R0 SameValue
          CFI R1 SameValue
          CFI R2 SameValue
          CFI R3 SameValue
          CFI R4 SameValue
          CFI R5 SameValue
          CFI R6 SameValue
          CFI R7 SameValue
          CFI V0 SameValue
          CFI V1 SameValue
          CFI V2 SameValue
          CFI V3 SameValue
          CFI V4 SameValue
          CFI V5 SameValue
          CFI V6 SameValue
          CFI V7 SameValue
          CFI V8 SameValue
          CFI V9 SameValue
          CFI V10 SameValue
          CFI V11 SameValue
          CFI V12 SameValue
          CFI V13 SameValue
          CFI V14 SameValue
          CFI V15 SameValue
          CFI PSPH Undefined
          CFI PSPL Undefined
          CFI XSPH Undefined
          CFI XSPL Undefined
          CFI ?RET Concat
          CFI ?BRET_EXT SameValue
          CFI ?RET_HIGH Frame(CFA_SP, 2)
          CFI ?RET_LOW Frame(CFA_SP, 1)
          CFI EndCommon cfiCommon1
        
AT_Timer4_Set_Clear_Start_US SYMBOL "AT_Timer4_Set_Clear_Start_US"
`??AT_Timer4_Set_Clear_Start_US::?relay` SYMBOL "?relay", AT_Timer4_Set_Clear_Start_US
AT_Timer4_Stop_Get  SYMBOL "AT_Timer4_Stop_Get"
`??AT_Timer4_Stop_Get::?relay` SYMBOL "?relay", AT_Timer4_Stop_Get
timer4_ovf_Isr      SYMBOL "timer4_ovf_Isr"
`??timer4_ovf_Isr::??INTVEC 99` SYMBOL "??INTVEC 99", timer4_ovf_Isr

// F:\2workspace\doorlock-CC2530\ZigBee-DoorLock-2021.09.27\Projects\zstack\AT-command\ATApp\Source\Controller\AT_timer4.c
//    1 /******************************************************************************
//    2   Filename:       AT_timer4.c
//    3   Author:         Yang Wang
//    4 ******************************************************************************/
//    5 #include "AT_timer4.h"

        ASEGN SFR_AN:DATA:NOROOT,0a8H
// union <unnamed> volatile __sfr _A_IEN0
_A_IEN0:
        DATA8
        DS 1

        ASEGN SFR_AN:DATA:NOROOT,0b8H
// union <unnamed> volatile __sfr _A_IEN1
_A_IEN1:
        DATA8
        DS 1

        ASEGN SFR_AN:DATA:NOROOT,0c0H
// union <unnamed> volatile __sfr _A_IRCON
_A_IRCON:
        DATA8
        DS 1

        ASEGN SFR_AN:DATA:NOROOT,0eaH
// unsigned char volatile __sfr T4CNT
T4CNT:
        DATA8
        DS 1

        ASEGN SFR_AN:DATA:NOROOT,0ebH
// unsigned char volatile __sfr T4CTL
T4CTL:
        DATA8
        DS 1

        ASEGN SFR_AN:DATA:NOROOT,0ecH
// unsigned char volatile __sfr T4CCTL0
T4CCTL0:
        DATA8
        DS 1

        ASEGN SFR_AN:DATA:NOROOT,0edH
// unsigned char volatile __sfr T4CC0
T4CC0:
        DATA8
        DS 1
//    6 #include "hal_defs.h"

        RSEG XDATA_Z:XDATA:NOROOT(0)
        DATA8
//    7 uint8 tim4_tick_peroid=0;
tim4_tick_peroid:
        DS 1
        REQUIRE __INIT_XDATA_Z

        RSEG BANKED_CODE:HUGECODE:NOROOT(0)
//    8 void AT_Timer4_Set_Clear_Start_US(uint8 us)
AT_Timer4_Set_Clear_Start_US:
          CFI Block cfiBlock0 Using cfiCommon0
          CFI Function AT_Timer4_Set_Clear_Start_US
        CODE
//    9 {
        PUSH      DPL
          CFI DPL0 Frame(CFA_SP, 4)
          CFI CFA_SP SP+-4
        PUSH      DPH
          CFI DPH0 Frame(CFA_SP, 5)
          CFI CFA_SP SP+-5
        ; Saved register size: 2
        ; Auto size: 0
//   10   // Set timer 4 channel 0 compare mode 
//   11   T4CCTL0 |= BV(2);
        ORL       0xec,#0x4
//   12 
//   13   // Set the overflow value
//   14   /*T1CC0L = LO_UINT8( us );
//   15   T1CC0H = HI_UINT8( us );*/
//   16   T4CC0 = us;
        MOV       0xed,R1
//   17   T4IE=1;
        SETB      0xb8.4
//   18   // Set the 8-bit counter to 0x0000
//   19   /*T1CNTL = 0x00;
//   20   T1CNTH = 0x00; // actually invalid*/
//   21   T4CNT = 0x00;
        MOV       0xea,#0x0
//   22   // Set prescaler divider value, operating mode and start timer 1
//   23   T4CTL |= 0xFE;         //128分频,开始计数，重复计数到设定值，清空counter
        MOV       A,0xeb
        MOV       C,0xE0 /* A   */.0
        CLR       A
        RLC       A
        ORL       A,#0xfe
        MOV       0xeb,A
//   24   tim4_tick_peroid = 0;
        MOV       DPTR,#tim4_tick_peroid
        CLR       A
        MOVX      @DPTR,A
//   25   T4IF = 0;
        CLR       0xc0.4
//   26 }
        POP       DPH
          CFI DPH0 SameValue
          CFI CFA_SP SP+-4
        POP       DPL
          CFI DPL0 SameValue
          CFI CFA_SP SP+-3
        LJMP      ?BRET
          CFI EndBlock cfiBlock0
        REQUIRE T4CCTL0
        REQUIRE T4CC0
        REQUIRE _A_IEN1
        REQUIRE T4CNT
        REQUIRE T4CTL
        REQUIRE _A_IRCON

        RSEG BANKED_CODE:HUGECODE:NOROOT(0)
//   27 uint8 AT_Timer4_Stop_Get(void)
AT_Timer4_Stop_Get:
          CFI Block cfiBlock1 Using cfiCommon0
          CFI Function AT_Timer4_Stop_Get
        CODE
//   28 {
        ; Saved register size: 0
        ; Auto size: 0
//   29   T4CTL = 0x00;
        MOV       0xeb,#0x0
//   30   T4IE=0;
        CLR       0xb8.4
//   31   return T4CNT;
        MOV       A,0xea
        MOV       R1,A
        LJMP      ?BRET
          CFI EndBlock cfiBlock1
        REQUIRE T4CTL
        REQUIRE _A_IEN1
        REQUIRE T4CNT
//   32 }
//   33 

        RSEG NEAR_CODE:CODE:NOROOT(0)
//   34 HAL_ISR_FUNCTION( timer4_ovf_Isr, T4_VECTOR )
timer4_ovf_Isr:
          CFI Block cfiBlock2 Using cfiCommon1
          CFI Function timer4_ovf_Isr
        CODE
//   35 {
        PUSH      A
          CFI A Frame(CFA_SP, 3)
          CFI CFA_SP SP+-3
        PUSH      PSW
          CFI PSW Frame(CFA_SP, 4)
          CFI CFA_SP SP+-4
        MOV       A,R0
          CFI R0 A
        PUSH      A
          CFI R0 Frame(CFA_SP, 5)
          CFI CFA_SP SP+-5
        PUSH      DPL
          CFI DPL0 Frame(CFA_SP, 6)
          CFI CFA_SP SP+-6
        PUSH      DPH
          CFI DPH0 Frame(CFA_SP, 7)
          CFI CFA_SP SP+-7
        ; Saved register size: 5
        ; Auto size: 0
//   36   HAL_ENTER_ISR();
        MOV       R0,0xa8+0x0
        SETB      0xa8.7
//   37   tim4_tick_peroid++;
        MOV       DPTR,#tim4_tick_peroid
        MOVX      A,@DPTR
        INC       A
        MOVX      @DPTR,A
//   38   HAL_EXIT_ISR();
        MOV       A,R0
        MOV       C,0xE0 /* A   */.7
        MOV       0xa8.7,C
//   39 }
        POP       DPH
          CFI DPH0 SameValue
          CFI CFA_SP SP+-6
        POP       DPL
          CFI DPL0 SameValue
          CFI CFA_SP SP+-5
        POP       A
          CFI R0 A
          CFI CFA_SP SP+-4
        MOV       R0,A
          CFI R0 SameValue
        POP       PSW
          CFI PSW SameValue
          CFI CFA_SP SP+-3
        POP       A
          CFI A SameValue
          CFI CFA_SP SP+-2
        RETI
          CFI EndBlock cfiBlock2
        REQUIRE _A_IEN0

        COMMON INTVEC:CODE:ROOT(0)
        ORG 99
`??timer4_ovf_Isr::??INTVEC 99`:
        LJMP       (timer4_ovf_Isr)

        RSEG BANK_RELAYS:CODE:REORDER:NOROOT(0)
`??AT_Timer4_Set_Clear_Start_US::?relay`:
        CODE
        LCALL   ?BDISPATCH
        DATA24
        DC24    AT_Timer4_Set_Clear_Start_US

        RSEG BANK_RELAYS:CODE:REORDER:NOROOT(0)
`??AT_Timer4_Stop_Get::?relay`:
        CODE
        LCALL   ?BDISPATCH
        DATA24
        DC24    AT_Timer4_Stop_Get

        END
// 
// 49 bytes in segment BANKED_CODE
// 12 bytes in segment BANK_RELAYS
//  3 bytes in segment INTVEC
// 38 bytes in segment NEAR_CODE
//  7 bytes in segment SFR_AN
//  1 byte  in segment XDATA_Z
// 
// 50 bytes of CODE     memory (+ 3 bytes shared)
//  0 bytes of DATA     memory (+ 7 bytes shared)
// 49 bytes of HUGECODE memory
//  1 byte  of XDATA    memory
//
//Errors: none
//Warnings: none
