///////////////////////////////////////////////////////////////////////////////
//
// IAR C/C++ Compiler V10.30.1.6000 for 8051              23/Nov/2021  10:54:56
// Copyright 2004-2018 IAR Systems AB.
// PC-locked license - IAR Embedded Workbench for 8051
//
//    Core               =  plain
//    Code model         =  banked
//    Data model         =  large
//    Calling convention =  xdata reentrant
//    Constant location  =  data_rom
//    Dptr setup         =  1,16
//                          
//    Source file        =  
//        F:\2workspace\doorlock-CC2530\ZigBee-DoorLock-2021.09.27\Projects\zstack\AT-command\ATApp\Source\Controller\AT_controller.c
//    Command line       =  
//        -f C:\Users\ADMINI~1\AppData\Local\Temp\EWAD0E.tmp
//        (F:\2workspace\doorlock-CC2530\ZigBee-DoorLock-2021.09.27\Projects\zstack\AT-command\ATApp\Source\Controller\AT_controller.c
//        -D ZIGBEEPRO -D INTER_PAN -D DISABLE_GREENPOWER_BASIC_PROXY -D
//        HAL_UART=TRUE -D HAL_UART_ISR=1 -D HAL_UART_DMA=0 -D
//        HAL_UART_ISR_RX_MAX=100 -D SECURE=1 -D TC_LINKKEY_JOIN -D NV_INIT -D
//        NV_RESTORE -D xZTOOL_P1 -D xMT_TASK -D xMT_APP_FUNC -D xMT_SYS_FUNC
//        -D xMT_ZDO_FUNC -D xMT_ZDO_MGMT -D xMT_APP_CNF_FUNC -D
//        LEGACY_LCD_DEBUG -D LCD_SUPPORTED=DEBUG -D MULTICAST_ENABLED=FALSE -D
//        ZCL_READ -D ZCL_WRITE -D ZCL_DISCOVER -D ZCL_BASIC -D ZCL_IDENTIFY -D
//        ZCL_SCENES -D ZCL_GROUPS -D ZCL_REPORT_CONFIGURING_DEVICE -D
//        ZCL_REPORT_DESTINATION_DEVICE -lC
//        F:\2workspace\doorlock-CC2530\ZigBee-DoorLock-2021.09.27\Projects\zstack\AT-command\ATApp\CC2530DB\CoordinatorEB\List
//        -lA
//        F:\2workspace\doorlock-CC2530\ZigBee-DoorLock-2021.09.27\Projects\zstack\AT-command\ATApp\CC2530DB\CoordinatorEB\List
//        --diag_suppress Pe001,Pa010 -o
//        F:\2workspace\doorlock-CC2530\ZigBee-DoorLock-2021.09.27\Projects\zstack\AT-command\ATApp\CC2530DB\CoordinatorEB\Obj
//        -e --debug --core=plain --dptr=16,1 --data_model=large
//        --code_model=banked --calling_convention=xdata_reentrant
//        --place_constants=data_rom --nr_virtual_regs 16 -f
//        F:\2workspace\doorlock-CC2530\ZigBee-DoorLock-2021.09.27\Projects\zstack\AT-command\ATApp\CC2530DB\..\..\..\Tools\CC2530DB\f8wCoord.cfg
//        (-DCPU32MHZ -DROOT=__near_func -DMAC_CFG_APP_PENDING_QUEUE=TRUE
//        -DMAC_CFG_TX_DATA_MAX=5 -DMAC_CFG_TX_MAX=8 -DMAC_CFG_RX_MAX=5
//        -DZDO_COORDINATOR -DRTR_NWK) -f
//        F:\2workspace\doorlock-CC2530\ZigBee-DoorLock-2021.09.27\Projects\zstack\AT-command\ATApp\CC2530DB\..\..\..\Tools\CC2530DB\f8wConfig.cfg
//        (-DZIGBEEPRO -DSECURE=1 -DZG_SECURE_DYNAMIC=0 -DREFLECTOR
//        -DDEFAULT_CHANLIST=0x00000800 -DZDAPP_CONFIG_PAN_ID=0xFFFF
//        -DNWK_START_DELAY=100 -DEXTENDED_JOINING_RANDOM_MASK=0x007F
//        -DBEACON_REQUEST_DELAY=100 -DBEACON_REQ_DELAY_MASK=0x00FF
//        -DLINK_STATUS_JITTER_MASK=0x007F -DROUTE_EXPIRY_TIME=30
//        -DAPSC_ACK_WAIT_DURATION_POLLED=3000 -DNWK_INDIRECT_MSG_TIMEOUT=7
//        -DMAX_RREQ_ENTRIES=8 -DAPSC_MAX_FRAME_RETRIES=3
//        -DNWK_MAX_DATA_RETRIES=2 -DMAX_POLL_FAILURE_RETRIES=2 -DMAX_BCAST=9
//        -DAPS_MAX_GROUPS=10 -DMAX_RTG_ENTRIES=15 -DNWK_MAX_BINDING_ENTRIES=4
//        -DMAX_BINDING_CLUSTER_IDS=4 -DDEFAULT_KEY={0}
//        -DMAC_MAX_FRAME_SIZE=116 -DZDNWKMGR_MIN_TRANSMISSIONS=20
//        "-DCONST=const __code" -DGENERIC=__generic -DRFD_RCVC_ALWAYS_ON=FALSE
//        -DPOLL_RATE=300 -DQUEUED_POLL_RATE=100 -DRESPONSE_POLL_RATE=100
//        -DREJOIN_POLL_RATE=440 -DREJOIN_BACKOFF=900000 -DREJOIN_SCAN=900000)
//        -f
//        F:\2workspace\doorlock-CC2530\ZigBee-DoorLock-2021.09.27\Projects\zstack\AT-command\ATApp\CC2530DB\..\..\..\Tools\CC2530DB\f8wZCL.cfg
//        -I
//        F:\2workspace\doorlock-CC2530\ZigBee-DoorLock-2021.09.27\Projects\zstack\AT-command\ATApp\CC2530DB\
//        -I
//        F:\2workspace\doorlock-CC2530\ZigBee-DoorLock-2021.09.27\Projects\zstack\AT-command\ATApp\CC2530DB\..\Source\
//        -I
//        F:\2workspace\doorlock-CC2530\ZigBee-DoorLock-2021.09.27\Projects\zstack\AT-command\ATApp\CC2530DB\..\Source\ZCL\
//        -I
//        F:\2workspace\doorlock-CC2530\ZigBee-DoorLock-2021.09.27\Projects\zstack\AT-command\ATApp\CC2530DB\..\Source\UserAPI\
//        -I
//        F:\2workspace\doorlock-CC2530\ZigBee-DoorLock-2021.09.27\Projects\zstack\AT-command\ATApp\CC2530DB\..\Source\Controller\
//        -I
//        F:\2workspace\doorlock-CC2530\ZigBee-DoorLock-2021.09.27\Projects\zstack\AT-command\ATApp\CC2530DB\..\..\..\ZMain\TI2530DB\
//        -I
//        F:\2workspace\doorlock-CC2530\ZigBee-DoorLock-2021.09.27\Projects\zstack\AT-command\ATApp\CC2530DB\..\..\..\..\..\Components\hal\include\
//        -I
//        F:\2workspace\doorlock-CC2530\ZigBee-DoorLock-2021.09.27\Projects\zstack\AT-command\ATApp\CC2530DB\..\..\..\..\..\Components\hal\target\CC2530EB\
//        -I
//        F:\2workspace\doorlock-CC2530\ZigBee-DoorLock-2021.09.27\Projects\zstack\AT-command\ATApp\CC2530DB\..\..\..\..\..\Components\mac\include\
//        -I
//        F:\2workspace\doorlock-CC2530\ZigBee-DoorLock-2021.09.27\Projects\zstack\AT-command\ATApp\CC2530DB\..\..\..\..\..\Components\mac\high_level\
//        -I
//        F:\2workspace\doorlock-CC2530\ZigBee-DoorLock-2021.09.27\Projects\zstack\AT-command\ATApp\CC2530DB\..\..\..\..\..\Components\mac\low_level\srf04\
//        -I
//        F:\2workspace\doorlock-CC2530\ZigBee-DoorLock-2021.09.27\Projects\zstack\AT-command\ATApp\CC2530DB\..\..\..\..\..\Components\mac\low_level\srf04\single_chip\
//        -I
//        F:\2workspace\doorlock-CC2530\ZigBee-DoorLock-2021.09.27\Projects\zstack\AT-command\ATApp\CC2530DB\..\..\..\..\..\Components\mt\
//        -I
//        F:\2workspace\doorlock-CC2530\ZigBee-DoorLock-2021.09.27\Projects\zstack\AT-command\ATApp\CC2530DB\..\..\..\..\..\Components\osal\include\
//        -I
//        F:\2workspace\doorlock-CC2530\ZigBee-DoorLock-2021.09.27\Projects\zstack\AT-command\ATApp\CC2530DB\..\..\..\..\..\Components\services\saddr\
//        -I
//        F:\2workspace\doorlock-CC2530\ZigBee-DoorLock-2021.09.27\Projects\zstack\AT-command\ATApp\CC2530DB\..\..\..\..\..\Components\services\sdata\
//        -I
//        F:\2workspace\doorlock-CC2530\ZigBee-DoorLock-2021.09.27\Projects\zstack\AT-command\ATApp\CC2530DB\..\..\..\..\..\Components\stack\af\
//        -I
//        F:\2workspace\doorlock-CC2530\ZigBee-DoorLock-2021.09.27\Projects\zstack\AT-command\ATApp\CC2530DB\..\..\..\..\..\Components\stack\bdb\
//        -I
//        F:\2workspace\doorlock-CC2530\ZigBee-DoorLock-2021.09.27\Projects\zstack\AT-command\ATApp\CC2530DB\..\..\..\..\..\Components\stack\gp\
//        -I
//        F:\2workspace\doorlock-CC2530\ZigBee-DoorLock-2021.09.27\Projects\zstack\AT-command\ATApp\CC2530DB\..\..\..\..\..\Components\stack\nwk\
//        -I
//        F:\2workspace\doorlock-CC2530\ZigBee-DoorLock-2021.09.27\Projects\zstack\AT-command\ATApp\CC2530DB\..\..\..\..\..\Components\stack\sapi\
//        -I
//        F:\2workspace\doorlock-CC2530\ZigBee-DoorLock-2021.09.27\Projects\zstack\AT-command\ATApp\CC2530DB\..\..\..\..\..\Components\stack\sec\
//        -I
//        F:\2workspace\doorlock-CC2530\ZigBee-DoorLock-2021.09.27\Projects\zstack\AT-command\ATApp\CC2530DB\..\..\..\..\..\Components\stack\sys\
//        -I
//        F:\2workspace\doorlock-CC2530\ZigBee-DoorLock-2021.09.27\Projects\zstack\AT-command\ATApp\CC2530DB\..\..\..\..\..\Components\stack\zcl\
//        -I
//        F:\2workspace\doorlock-CC2530\ZigBee-DoorLock-2021.09.27\Projects\zstack\AT-command\ATApp\CC2530DB\..\..\..\..\..\Components\stack\zdo\
//        -I
//        F:\2workspace\doorlock-CC2530\ZigBee-DoorLock-2021.09.27\Projects\zstack\AT-command\ATApp\CC2530DB\..\..\..\..\..\Components\zmac\
//        -I
//        F:\2workspace\doorlock-CC2530\ZigBee-DoorLock-2021.09.27\Projects\zstack\AT-command\ATApp\CC2530DB\..\..\..\..\..\Components\zmac\f8w\
//        -Ohz --require_prototypes)
//    Locale             =  Chinese (Simplified)_CHN.936
//    List file          =  
//        F:\2workspace\doorlock-CC2530\ZigBee-DoorLock-2021.09.27\Projects\zstack\AT-command\ATApp\CC2530DB\CoordinatorEB\List\AT_controller.s51
//
///////////////////////////////////////////////////////////////////////////////

        NAME AT_controller

        RTMODEL "__SystemLibrary", "CLib"
        RTMODEL "__calling_convention", "xdata_reentrant"
        RTMODEL "__code_model", "banked"
        RTMODEL "__core", "plain"
        RTMODEL "__data_model", "large"
        RTMODEL "__dptr_size", "16"
        RTMODEL "__extended_stack", "disabled"
        RTMODEL "__location_for_constants", "data"
        RTMODEL "__number_of_dptrs", "1"
        RTMODEL "__register_banks", "*"
        RTMODEL "__rt_version", "1"

        RSEG DOVERLAY:DATA:NOROOT(0)
        RSEG IOVERLAY:IDATA:NOROOT(0)
        RSEG ISTACK:IDATA:NOROOT(0)
        RSEG PSTACK:XDATA:NOROOT(0)
        RSEG XSTACK:XDATA:NOROOT(0)

        EXTERN ?V0
        EXTERN ?V1
        EXTERN ?V2
        EXTERN ?V4
        EXTERN ?V5
        EXTERN ?V3
        EXTERN ?V6
        EXTERN ?V7
        EXTERN ?V8
        EXTERN ?V9
        EXTERN ?V10
        EXTERN ?V11
        EXTERN ?V12
        EXTERN ?V13
        EXTERN ?ALLOC_XSTACK8
        EXTERN ?BANKED_ENTER_XDATA
        EXTERN ?BANKED_LEAVE_XDATA
        EXTERN ?BDISPATCH
        EXTERN ?BRET
        EXTERN ?CALL_IND
        EXTERN ?DEALLOC_XSTACK8
        EXTERN ?PUSH_XSTACK8_X_TWO
        EXTERN ?PUSH_XSTACK_I_ONE
        EXTERN ?PUSH_XSTACK_I_THREE
        EXTERN ?PUSH_XSTACK_I_TWO
        EXTERN ?S_SHL
        EXTERN ?US_SWITCH_DENSE
        EXTERN ?XSP
        EXTERN ?XSTACK_DISP0_8
        EXTERN __INIT_XDATA_I
        EXTERN __INIT_XDATA_Z

        PUBLIC `??ATApp_MessageMSGCB::?relay`
        FUNCTION `??ATApp_MessageMSGCB::?relay`,0203H
        PUBLIC `??AT_Endpoint_Controller::?relay`
        FUNCTION `??AT_Endpoint_Controller::?relay`,0203H
        PUBLIC `??AT_Endpoint_Register::?relay`
        FUNCTION `??AT_Endpoint_Register::?relay`,0203H
        PUBLIC `??AT_SendCmd::?relay`
        FUNCTION `??AT_SendCmd::?relay`,0203H
        PUBLIC `??AT_SendEPCtrl::?relay`
        FUNCTION `??AT_SendEPCtrl::?relay`,0203H
        PUBLIC `??AT_SendEPCtrl_rsp::?relay`
        FUNCTION `??AT_SendEPCtrl_rsp::?relay`,0203H
        PUBLIC `??AT_zclController_Init::?relay`
        FUNCTION `??AT_zclController_Init::?relay`,0203H
        PUBLIC `??AT_zclController_ProcessIncomingMsg::?relay`
        FUNCTION `??AT_zclController_ProcessIncomingMsg::?relay`,0203H
        FUNCTION `??AT_zclCtrl_REpCtrl_req::?relay`,0203H
        FUNCTION `??AT_zclCtrl_REpCtrl_rsp::?relay`,0203H
        FUNCTION `??zclController_PrintfAttrData::?relay`,0203H
        FUNCTION `??zclController_ProcessInConfigReportRspCmd::?r`,0203H
        FUNCTION `??zclController_ProcessInDiscAttrsRspCmd::?rela`,0203H
        FUNCTION `??zclController_ProcessInDiscCmdsRspCmd::?relay`,0203H
        FUNCTION `??zclController_ProcessInReadReportCfgRspCmd::?`,0203H
        FUNCTION `??zclController_ProcessInReadRspCmd::?relay`,0203H
        FUNCTION `??zclController_ProcessInReportCmd::?relay`,0203H
        FUNCTION `??zclController_ProcessInWriteRspCmd::?relay`,0203H
        PUBLIC ATApp_MessageMSGCB
        FUNCTION ATApp_MessageMSGCB,0a1203H
        ARGFRAME XSTACK, 0, STACK
        LOCFRAME XSTACK, 10, STACK
        PUBLIC AT_Endpoint_Controller
        FUNCTION AT_Endpoint_Controller,0203H
        ARGFRAME XSTACK, 0, STACK
        LOCFRAME XSTACK, 9, STACK
        PUBLIC AT_Endpoint_Register
        FUNCTION AT_Endpoint_Register,0a1203H
        ARGFRAME XSTACK, 0, STACK
        LOCFRAME ISTACK, 1, STACK
        LOCFRAME XSTACK, 14, STACK
        PUBLIC AT_SendCmd
        FUNCTION AT_SendCmd,0a1203H
        ARGFRAME XSTACK, 21, STACK
        ARGFRAME IOVERLAY, 0, STATIC
        ARGFRAME DOVERLAY, 0, STATIC
        LOCFRAME ISTACK, 1, STACK
        LOCFRAME XSTACK, 31, STACK
        PUBLIC AT_SendEPCtrl
        FUNCTION AT_SendEPCtrl,0a1203H
        ARGFRAME XSTACK, 2, STACK
        LOCFRAME ISTACK, 1, STACK
        LOCFRAME XSTACK, 21, STACK
        PUBLIC AT_SendEPCtrl_rsp
        FUNCTION AT_SendEPCtrl_rsp,0a1203H
        ARGFRAME XSTACK, 16, STACK
        ARGFRAME IOVERLAY, 0, STATIC
        ARGFRAME DOVERLAY, 0, STATIC
        LOCFRAME ISTACK, 1, STACK
        LOCFRAME XSTACK, 21, STACK
        PUBLIC AT_zclController_Init
        FUNCTION AT_zclController_Init,021203H
        ARGFRAME XSTACK, 0, STACK
        LOCFRAME XSTACK, 9, STACK
        PUBLIC AT_zclController_ProcessIncomingMsg
        FUNCTION AT_zclController_ProcessIncomingMsg,0a1203H
        ARGFRAME XSTACK, 0, STACK
        LOCFRAME XSTACK, 30, STACK
        FUNCTION AT_zclCtrl_REpCtrl_req,0a1203H
        ARGFRAME XSTACK, 10, STACK
        ARGFRAME IOVERLAY, 0, STATIC
        ARGFRAME DOVERLAY, 0, STATIC
        LOCFRAME ISTACK, 1, STACK
        LOCFRAME XSTACK, 16, STACK
        FUNCTION AT_zclCtrl_REpCtrl_rsp,0a1203H
        ARGFRAME XSTACK, 10, STACK
        ARGFRAME IOVERLAY, 0, STATIC
        ARGFRAME DOVERLAY, 0, STATIC
        LOCFRAME XSTACK, 13, STACK
        PUBLIC zclController_EP_List
        FUNCTION zclController_PrintfAttrData,0a1203H
        ARGFRAME XSTACK, 20, STACK
        ARGFRAME IOVERLAY, 0, STATIC
        ARGFRAME DOVERLAY, 0, STATIC
        LOCFRAME XSTACK, 14, STACK
        FUNCTION zclController_ProcessInConfigReportRspCmd,0a1203H
        ARGFRAME XSTACK, 20, STACK
        ARGFRAME IOVERLAY, 0, STATIC
        ARGFRAME DOVERLAY, 0, STATIC
        LOCFRAME XSTACK, 22, STACK
        FUNCTION zclController_ProcessInDiscAttrsRspCmd,0a1203H
        ARGFRAME XSTACK, 20, STACK
        ARGFRAME IOVERLAY, 0, STATIC
        ARGFRAME DOVERLAY, 0, STATIC
        LOCFRAME XSTACK, 28, STACK
        FUNCTION zclController_ProcessInDiscCmdsRspCmd,0203H
        ARGFRAME XSTACK, 20, STACK
        ARGFRAME IOVERLAY, 0, STATIC
        ARGFRAME DOVERLAY, 0, STATIC
        LOCFRAME ISTACK, 2, STACK
        FUNCTION zclController_ProcessInReadReportCfgRspCmd,0a1203H
        ARGFRAME XSTACK, 20, STACK
        ARGFRAME IOVERLAY, 0, STATIC
        ARGFRAME DOVERLAY, 0, STATIC
        LOCFRAME XSTACK, 28, STACK
        FUNCTION zclController_ProcessInReadRspCmd,0a1203H
        ARGFRAME XSTACK, 20, STACK
        ARGFRAME IOVERLAY, 0, STATIC
        ARGFRAME DOVERLAY, 0, STATIC
        LOCFRAME XSTACK, 39, STACK
        FUNCTION zclController_ProcessInReportCmd,0a1203H
        ARGFRAME XSTACK, 20, STACK
        ARGFRAME IOVERLAY, 0, STATIC
        ARGFRAME DOVERLAY, 0, STATIC
        LOCFRAME XSTACK, 35, STACK
        FUNCTION zclController_ProcessInWriteRspCmd,0a1203H
        ARGFRAME XSTACK, 20, STACK
        ARGFRAME IOVERLAY, 0, STATIC
        ARGFRAME DOVERLAY, 0, STATIC
        LOCFRAME XSTACK, 39, STACK
        PUBLIC zclController_SimpleDesc
        PUBLIC zclCtrl_InClusterList
        PUBLIC zclCtrl_OutClusterList
        
          CFI Names cfiNames0
          CFI StackFrame CFA_SP SP IDATA
          CFI StackFrame CFA_PSP16 PSP16 XDATA
          CFI StackFrame CFA_XSP16 XSP16 XDATA
          CFI StaticOverlayFrame CFA_IOVERLAY IOVERLAY
          CFI StaticOverlayFrame CFA_DOVERLAY DOVERLAY
          CFI Resource `PSW.CY`:1, `B.BR0`:1, `B.BR1`:1, `B.BR2`:1, `B.BR3`:1
          CFI Resource `B.BR4`:1, `B.BR5`:1, `B.BR6`:1, `B.BR7`:1, `VB.BR8`:1
          CFI Resource `VB.BR9`:1, `VB.BR10`:1, `VB.BR11`:1, `VB.BR12`:1
          CFI Resource `VB.BR13`:1, `VB.BR14`:1, `VB.BR15`:1, VB:8, B:8, A:8
          CFI Resource PSW:8, DPL0:8, DPH0:8, R0:8, R1:8, R2:8, R3:8, R4:8, R5:8
          CFI Resource R6:8, R7:8, V0:8, V1:8, V2:8, V3:8, V4:8, V5:8, V6:8, V7:8
          CFI Resource V8:8, V9:8, V10:8, V11:8, V12:8, V13:8, V14:8, V15:8, SP:8
          CFI Resource PSPH:8, PSPL:8, PSP16:16, XSPH:8, XSPL:8, XSP16:16
          CFI VirtualResource ?RET:24
          CFI Resource ?BRET_EXT:8
          CFI VirtualResource ?RET_HIGH:8, ?RET_LOW:8
          CFI ResourceParts PSP16 PSPH, PSPL
          CFI ResourceParts XSP16 XSPH, XSPL
          CFI ResourceParts ?RET ?BRET_EXT, ?RET_HIGH, ?RET_LOW
          CFI EndNames cfiNames0
        
          CFI Common cfiCommon0 Using cfiNames0
          CFI CodeAlign 1
          CFI DataAlign -1
          CFI ReturnAddress ?RET CODE
          CFI CFA_DOVERLAY Used
          CFI CFA_IOVERLAY Used
          CFI CFA_SP SP+-3
          CFI CFA_PSP16 PSP16+0
          CFI CFA_XSP16 XSP16+0
          CFI `PSW.CY` SameValue
          CFI `B.BR0` SameValue
          CFI `B.BR1` SameValue
          CFI `B.BR2` SameValue
          CFI `B.BR3` SameValue
          CFI `B.BR4` SameValue
          CFI `B.BR5` SameValue
          CFI `B.BR6` SameValue
          CFI `B.BR7` SameValue
          CFI `VB.BR8` SameValue
          CFI `VB.BR9` SameValue
          CFI `VB.BR10` SameValue
          CFI `VB.BR11` SameValue
          CFI `VB.BR12` SameValue
          CFI `VB.BR13` SameValue
          CFI `VB.BR14` SameValue
          CFI `VB.BR15` SameValue
          CFI VB SameValue
          CFI B Undefined
          CFI A Undefined
          CFI PSW SameValue
          CFI DPL0 SameValue
          CFI DPH0 SameValue
          CFI R0 Undefined
          CFI R1 Undefined
          CFI R2 Undefined
          CFI R3 Undefined
          CFI R4 Undefined
          CFI R5 Undefined
          CFI R6 SameValue
          CFI R7 SameValue
          CFI V0 SameValue
          CFI V1 SameValue
          CFI V2 SameValue
          CFI V3 SameValue
          CFI V4 SameValue
          CFI V5 SameValue
          CFI V6 SameValue
          CFI V7 SameValue
          CFI V8 SameValue
          CFI V9 SameValue
          CFI V10 SameValue
          CFI V11 SameValue
          CFI V12 SameValue
          CFI V13 SameValue
          CFI V14 SameValue
          CFI V15 SameValue
          CFI PSPH Undefined
          CFI PSPL Undefined
          CFI XSPH Undefined
          CFI XSPL Undefined
          CFI ?RET Concat
          CFI ?BRET_EXT Frame(CFA_SP, 3)
          CFI ?RET_HIGH Frame(CFA_SP, 2)
          CFI ?RET_LOW Frame(CFA_SP, 1)
          CFI EndCommon cfiCommon0
        
        
          CFI Common cfiCommon1 Using cfiNames0
          CFI CodeAlign 1
          CFI DataAlign -1
          CFI ReturnAddress ?RET CODE
          CFI CFA_DOVERLAY Used
          CFI CFA_IOVERLAY Used
          CFI CFA_SP SP+-2
          CFI CFA_PSP16 PSP16+0
          CFI CFA_XSP16 XSP16+0
          CFI `PSW.CY` SameValue
          CFI `B.BR0` SameValue
          CFI `B.BR1` SameValue
          CFI `B.BR2` SameValue
          CFI `B.BR3` SameValue
          CFI `B.BR4` SameValue
          CFI `B.BR5` SameValue
          CFI `B.BR6` SameValue
          CFI `B.BR7` SameValue
          CFI `VB.BR8` SameValue
          CFI `VB.BR9` SameValue
          CFI `VB.BR10` SameValue
          CFI `VB.BR11` SameValue
          CFI `VB.BR12` SameValue
          CFI `VB.BR13` SameValue
          CFI `VB.BR14` SameValue
          CFI `VB.BR15` SameValue
          CFI VB SameValue
          CFI B SameValue
          CFI A SameValue
          CFI PSW SameValue
          CFI DPL0 SameValue
          CFI DPH0 SameValue
          CFI R0 SameValue
          CFI R1 SameValue
          CFI R2 SameValue
          CFI R3 SameValue
          CFI R4 SameValue
          CFI R5 SameValue
          CFI R6 SameValue
          CFI R7 SameValue
          CFI V0 SameValue
          CFI V1 SameValue
          CFI V2 SameValue
          CFI V3 SameValue
          CFI V4 SameValue
          CFI V5 SameValue
          CFI V6 SameValue
          CFI V7 SameValue
          CFI V8 SameValue
          CFI V9 SameValue
          CFI V10 SameValue
          CFI V11 SameValue
          CFI V12 SameValue
          CFI V13 SameValue
          CFI V14 SameValue
          CFI V15 SameValue
          CFI PSPH Undefined
          CFI PSPL Undefined
          CFI XSPH Undefined
          CFI XSPL Undefined
          CFI ?RET Concat
          CFI ?BRET_EXT SameValue
          CFI ?RET_HIGH Frame(CFA_SP, 2)
          CFI ?RET_LOW Frame(CFA_SP, 1)
          CFI EndCommon cfiCommon1
        
AF_DataRequest      SYMBOL "AF_DataRequest"
`??AF_DataRequest::?relay` SYMBOL "?relay", AF_DataRequest
AT_GetIEEEAddrStr   SYMBOL "AT_GetIEEEAddrStr"
`??AT_GetIEEEAddrStr::?relay` SYMBOL "?relay", AT_GetIEEEAddrStr
AT_Int16toChar      SYMBOL "AT_Int16toChar"
`??AT_Int16toChar::?relay` SYMBOL "?relay", AT_Int16toChar
AT_Int8toChar       SYMBOL "AT_Int8toChar"
`??AT_Int8toChar::?relay` SYMBOL "?relay", AT_Int8toChar
AT_IntxtoChar       SYMBOL "AT_IntxtoChar"
`??AT_IntxtoChar::?relay` SYMBOL "?relay", AT_IntxtoChar
AT_UARTWriteErrMsg  SYMBOL "AT_UARTWriteErrMsg"
`??AT_UARTWriteErrMsg::?relay` SYMBOL "?relay", AT_UARTWriteErrMsg
AT_Uart0_Send       SYMBOL "AT_Uart0_Send"
`??AT_Uart0_Send::?relay` SYMBOL "?relay", AT_Uart0_Send
afFindEndPointDesc  SYMBOL "afFindEndPointDesc"
`??afFindEndPointDesc::?relay` SYMBOL "?relay", afFindEndPointDesc
bdb_RegisterSimpleDescriptor SYMBOL "bdb_RegisterSimpleDescriptor"
`??bdb_RegisterSimpleDescriptor::?relay` SYMBOL "?relay", bdb_RegisterSimpleDescriptor
bdb_resetLocalAction SYMBOL "bdb_resetLocalAction"
`??bdb_resetLocalAction::?relay` SYMBOL "?relay", bdb_resetLocalAction
osal_mem_alloc      SYMBOL "osal_mem_alloc"
`??osal_mem_alloc::?relay` SYMBOL "?relay", osal_mem_alloc
osal_mem_free       SYMBOL "osal_mem_free"
`??osal_mem_free::?relay` SYMBOL "?relay", osal_mem_free
osal_memcpy         SYMBOL "osal_memcpy"
`??osal_memcpy::?relay` SYMBOL "?relay", osal_memcpy
printf              SYMBOL "printf"
`??printf::?relay`  SYMBOL "?relay", printf
zclAnalogDataType   SYMBOL "zclAnalogDataType"
`??zclAnalogDataType::?relay` SYMBOL "?relay", zclAnalogDataType
zcl_registerForMsg  SYMBOL "zcl_registerForMsg"
`??zcl_registerForMsg::?relay` SYMBOL "?relay", zcl_registerForMsg
ATApp_MessageMSGCB  SYMBOL "ATApp_MessageMSGCB"
`??ATApp_MessageMSGCB::?relay` SYMBOL "?relay", ATApp_MessageMSGCB
AT_Endpoint_Controller SYMBOL "AT_Endpoint_Controller"
`??AT_Endpoint_Controller::?relay` SYMBOL "?relay", AT_Endpoint_Controller
AT_Endpoint_Register SYMBOL "AT_Endpoint_Register"
`??AT_Endpoint_Register::?relay` SYMBOL "?relay", AT_Endpoint_Register
AT_SendCmd          SYMBOL "AT_SendCmd"
`??AT_SendCmd::?relay` SYMBOL "?relay", AT_SendCmd
AT_SendEPCtrl       SYMBOL "AT_SendEPCtrl"
`??AT_SendEPCtrl::?relay` SYMBOL "?relay", AT_SendEPCtrl
AT_SendEPCtrl_rsp   SYMBOL "AT_SendEPCtrl_rsp"
`??AT_SendEPCtrl_rsp::?relay` SYMBOL "?relay", AT_SendEPCtrl_rsp
AT_zclController_Init SYMBOL "AT_zclController_Init"
`??AT_zclController_Init::?relay` SYMBOL "?relay", AT_zclController_Init
AT_zclController_ProcessIncomingMsg SYMBOL "AT_zclController_ProcessIncomingMsg"
`??AT_zclController_ProcessIncomingMsg::?relay` SYMBOL "?relay", AT_zclController_ProcessIncomingMsg

        EXTERN `??AF_DataRequest::?relay`
        FUNCTION `??AF_DataRequest::?relay`,00H
        EXTERN `??AT_GetIEEEAddrStr::?relay`
        FUNCTION `??AT_GetIEEEAddrStr::?relay`,00H
        EXTERN `??AT_Int16toChar::?relay`
        FUNCTION `??AT_Int16toChar::?relay`,00H
        EXTERN `??AT_Int8toChar::?relay`
        FUNCTION `??AT_Int8toChar::?relay`,00H
        EXTERN `??AT_IntxtoChar::?relay`
        FUNCTION `??AT_IntxtoChar::?relay`,00H
        EXTERN `??AT_UARTWriteErrMsg::?relay`
        FUNCTION `??AT_UARTWriteErrMsg::?relay`,00H
        EXTERN `??AT_Uart0_Send::?relay`
        FUNCTION `??AT_Uart0_Send::?relay`,00H
        EXTERN `??afFindEndPointDesc::?relay`
        FUNCTION `??afFindEndPointDesc::?relay`,00H
        EXTERN `??bdb_RegisterSimpleDescriptor::?relay`
        FUNCTION `??bdb_RegisterSimpleDescriptor::?relay`,00H
        EXTERN `??bdb_resetLocalAction::?relay`
        FUNCTION `??bdb_resetLocalAction::?relay`,00H
        EXTERN `??osal_mem_alloc::?relay`
        FUNCTION `??osal_mem_alloc::?relay`,00H
        EXTERN `??osal_mem_free::?relay`
        FUNCTION `??osal_mem_free::?relay`,00H
        EXTERN `??osal_memcpy::?relay`
        FUNCTION `??osal_memcpy::?relay`,00H
        EXTERN `??printf::?relay`
        FUNCTION `??printf::?relay`,00H
        EXTERN `??zclAnalogDataType::?relay`
        FUNCTION `??zclAnalogDataType::?relay`,00H
        EXTERN `??zcl_registerForMsg::?relay`
        FUNCTION `??zcl_registerForMsg::?relay`,00H
        EXTERN AF_DataRequest
        FUNCTION AF_DataRequest,0202H
        ARGFRAME ISTACK, 0, STACK
        ARGFRAME PSTACK, 0, STACK
        ARGFRAME XSTACK, 31, STACK
        ARGFRAME IOVERLAY, 0, STATIC
        ARGFRAME DOVERLAY, 0, STATIC
        EXTERN AT_GetIEEEAddrStr
        FUNCTION AT_GetIEEEAddrStr,0202H
        ARGFRAME ISTACK, 0, STACK
        ARGFRAME PSTACK, 0, STACK
        ARGFRAME XSTACK, 39, STACK
        ARGFRAME IOVERLAY, 0, STATIC
        ARGFRAME DOVERLAY, 0, STATIC
        EXTERN AT_Int16toChar
        FUNCTION AT_Int16toChar,0202H
        ARGFRAME ISTACK, 0, STACK
        ARGFRAME PSTACK, 0, STACK
        ARGFRAME XSTACK, 39, STACK
        ARGFRAME IOVERLAY, 0, STATIC
        ARGFRAME DOVERLAY, 0, STATIC
        EXTERN AT_Int8toChar
        FUNCTION AT_Int8toChar,0202H
        ARGFRAME ISTACK, 0, STACK
        ARGFRAME PSTACK, 0, STACK
        ARGFRAME XSTACK, 39, STACK
        ARGFRAME IOVERLAY, 0, STATIC
        ARGFRAME DOVERLAY, 0, STATIC
        EXTERN AT_IntxtoChar
        FUNCTION AT_IntxtoChar,0202H
        ARGFRAME ISTACK, 0, STACK
        ARGFRAME PSTACK, 0, STACK
        ARGFRAME XSTACK, 14, STACK
        ARGFRAME IOVERLAY, 0, STATIC
        ARGFRAME DOVERLAY, 0, STATIC
        EXTERN AT_UARTWriteErrMsg
        FUNCTION AT_UARTWriteErrMsg,0202H
        ARGFRAME ISTACK, 0, STACK
        ARGFRAME PSTACK, 0, STACK
        ARGFRAME XSTACK, 14, STACK
        ARGFRAME IOVERLAY, 0, STATIC
        ARGFRAME DOVERLAY, 0, STATIC
        EXTERN AT_Uart0_Send
        FUNCTION AT_Uart0_Send,0202H
        ARGFRAME ISTACK, 0, STACK
        ARGFRAME PSTACK, 0, STACK
        ARGFRAME XSTACK, 39, STACK
        ARGFRAME IOVERLAY, 0, STATIC
        ARGFRAME DOVERLAY, 0, STATIC
        EXTERN afFindEndPointDesc
        FUNCTION afFindEndPointDesc,0202H
        ARGFRAME ISTACK, 0, STACK
        ARGFRAME PSTACK, 0, STACK
        ARGFRAME XSTACK, 22, STACK
        ARGFRAME IOVERLAY, 0, STATIC
        ARGFRAME DOVERLAY, 0, STATIC
        EXTERN bdb_RegisterSimpleDescriptor
        FUNCTION bdb_RegisterSimpleDescriptor,0202H
        ARGFRAME ISTACK, 0, STACK
        ARGFRAME PSTACK, 0, STACK
        ARGFRAME XSTACK, 9, STACK
        ARGFRAME IOVERLAY, 0, STATIC
        ARGFRAME DOVERLAY, 0, STATIC
        EXTERN bdb_resetLocalAction
        FUNCTION bdb_resetLocalAction,0202H
        ARGFRAME ISTACK, 0, STACK
        ARGFRAME PSTACK, 0, STACK
        ARGFRAME XSTACK, 10, STACK
        ARGFRAME IOVERLAY, 0, STATIC
        ARGFRAME DOVERLAY, 0, STATIC
        EXTERN osal_mem_alloc
        FUNCTION osal_mem_alloc,0202H
        ARGFRAME ISTACK, 0, STACK
        ARGFRAME PSTACK, 0, STACK
        ARGFRAME XSTACK, 22, STACK
        ARGFRAME IOVERLAY, 0, STATIC
        ARGFRAME DOVERLAY, 0, STATIC
        EXTERN osal_mem_free
        FUNCTION osal_mem_free,0202H
        ARGFRAME ISTACK, 0, STACK
        ARGFRAME PSTACK, 0, STACK
        ARGFRAME XSTACK, 22, STACK
        ARGFRAME IOVERLAY, 0, STATIC
        ARGFRAME DOVERLAY, 0, STATIC
        EXTERN osal_memcpy
        FUNCTION osal_memcpy,0202H
        ARGFRAME ISTACK, 0, STACK
        ARGFRAME PSTACK, 0, STACK
        ARGFRAME XSTACK, 25, STACK
        ARGFRAME IOVERLAY, 0, STATIC
        ARGFRAME DOVERLAY, 0, STATIC
        EXTERN printf
        FUNCTION printf,0202H
        ARGFRAME ISTACK, 0, STACK
        ARGFRAME PSTACK, 0, STACK
        ARGFRAME XSTACK, 30, STACK
        ARGFRAME IOVERLAY, 0, STATIC
        ARGFRAME DOVERLAY, 0, STATIC
        EXTERN zclAnalogDataType
        FUNCTION zclAnalogDataType,0202H
        ARGFRAME ISTACK, 0, STACK
        ARGFRAME PSTACK, 0, STACK
        ARGFRAME XSTACK, 20, STACK
        ARGFRAME IOVERLAY, 0, STATIC
        ARGFRAME DOVERLAY, 0, STATIC
        EXTERN zcl_registerForMsg
        FUNCTION zcl_registerForMsg,0202H
        ARGFRAME ISTACK, 0, STACK
        ARGFRAME PSTACK, 0, STACK
        ARGFRAME XSTACK, 9, STACK
        ARGFRAME IOVERLAY, 0, STATIC
        ARGFRAME DOVERLAY, 0, STATIC

// F:\2workspace\doorlock-CC2530\ZigBee-DoorLock-2021.09.27\Projects\zstack\AT-command\ATApp\Source\Controller\AT_controller.c
//    1 /*********************************************************************
//    2   Filename:       AT_controller.c
//    3 
//    4   Author:         Yasin Zhang
//    5 **********************************************************************/
//    6 
//    7 /*********************************************************************
//    8  * INCLUDES
//    9  */
//   10 #include "ZComDef.h"
//   11 #include "OSAL.h"
//   12 #include "ZDApp.h"
//   13 #include "bdb_interface.h"
//   14 
//   15 #include "zcl.h"
//   16 #include "zcl_ha.h"
//   17 
//   18 #include "onboard.h"
//   19 
//   20 #include "AT_controller.h"
//   21 #include "ATApp.h"
//   22 #include "AT_uart.h"
//   23 #include "AT_printf.h"
//   24 
//   25 /*********************************************************************
//   26 * MACROS
//   27 */
//   28 
//   29 /*********************************************************************
//   30 * CONSTANTS
//   31 */
//   32 
//   33 /*********************************************************************
//   34 * GLOBAL VARIABLES
//   35 */

        RSEG XDATA_Z:XDATA:NOROOT(0)
        DATA16
//   36 zclController_EP_List_t *zclController_EP_List = NULL;
zclController_EP_List:
        DS 2
        REQUIRE __INIT_XDATA_Z
//   37 
//   38 /*********************************************************************
//   39  * LOCAL VARIABLES
//   40  */

        RSEG XDATA_Z:XDATA:NOROOT(0)
        DATA8
//   41 static uint8 zclCtrl_TransID = 0;  // This is the unique message ID (counter)
zclCtrl_TransID:
        DS 1
        REQUIRE __INIT_XDATA_Z
//   42 
//   43 /*********************************************************************
//   44  * SIMPLE DESCRIPTOR
//   45  */
//   46 
//   47 // This is the Cluster ID List and should be filled with Application
//   48 // specific cluster IDs.

        RSEG XDATA_ROM_C:CONST:REORDER:NOROOT(0)
        DATA32
//   49 const cId_t zclCtrl_InClusterList[] =
zclCtrl_InClusterList:
        DATA16
        DW 0
        DW 3
//   50 {
//   51  ZCL_CLUSTER_ID_GEN_BASIC,
//   52  ZCL_CLUSTER_ID_GEN_IDENTIFY,
//   53 
//   54  // ZCL_CONTROLLER_TODO: Add application specific Input Clusters Here.
//   55  //       See zcl.h for Cluster ID definitions
//   56 };
//   57 #define ZCL_CONTROLLER_MAX_INCLUSTERS   0//(sizeof(zclCtrl_InClusterList) / sizeof(zclCtrl_InClusterList[0]))
//   58 
//   59 

        RSEG XDATA_ROM_C:CONST:REORDER:NOROOT(0)
        DATA16
//   60 const cId_t zclCtrl_OutClusterList[] =
zclCtrl_OutClusterList:
        DW 0
//   61 {
//   62  ZCL_CLUSTER_ID_GEN_BASIC,
//   63 
//   64  // ZCL_CONTROLLER_TODO: Add application specific Output Clusters Here.
//   65  //       See zcl.h for Cluster ID definitions
//   66 };
//   67 #define ZCL_CONTROLLER_MAX_OUTCLUSTERS  0//(sizeof(zclCtrl_OutClusterList) / sizeof(zclCtrl_OutClusterList[0]))
//   68 

        RSEG XDATA_I:XDATA:NOROOT(0)
//   69 SimpleDescriptionFormat_t zclController_SimpleDesc =
zclController_SimpleDesc:
        DATA8
        DS 12
        REQUIRE `?<Initializer for zclController_SimpleDesc>`
        REQUIRE __INIT_XDATA_I
//   70 {
//   71  ZCL_CONTROLLER_ENDPOINT,         //  int Endpoint;
//   72  ZCL_HA_PROFILE_ID,               //  uint16 AppProfId;
//   73  // ZCL_CONTROLLER_TODO: Replace ZCL_HA_DEVICEID_REMOTE_CONTROL with application specific device ID
//   74  ZCL_HA_DEVICEID_REMOTE_CONTROL,  //  uint16 AppDeviceId;
//   75  ZCL_DEVICE_VERSION,              //  int   AppDevVer:4;
//   76  ZCL_FLAGS,                       //  int   AppFlags:4;
//   77  ZCL_CONTROLLER_MAX_INCLUSTERS,   //  byte  AppNumInClusters;
//   78  NULL,//(cId_t *)zclCtrl_InClusterList,  //  byte *pAppInClusterList;
//   79  ZCL_CONTROLLER_MAX_OUTCLUSTERS,  //  byte  AppNumInClusters;
//   80  NULL//(cId_t *)zclCtrl_OutClusterList  //  byte *pAppInClusterList;
//   81 };
//   82 
//   83 /*********************************************************************
//   84  * LOCAL FUNCTIONS
//   85  */
//   86 static void AT_zclCtrl_REpCtrl_CB( afIncomingMSGPacket_t *pkt );
//   87 static void AT_ATF_CMD_CB( afIncomingMSGPacket_t *pkt );
//   88 static void AT_zclCtrl_REpCtrl_req( afIncomingMSGPacket_t *pkt );
//   89 static void AT_zclCtrl_REpCtrl_rsp( afIncomingMSGPacket_t *pkt );
//   90 static void AT_ATF_Cmd_req( afIncomingMSGPacket_t *pkt );
//   91 static uint8 zclCtrlCalcHdrSize( ZCLCtrlCmd_hdr *hdr );
//   92 static uint8* zclCtrlBuildHdr( ZCLCtrlCmd_hdr *hdr, uint8 *pData );
//   93 
//   94 // Functions to process ZCL Foundation incoming Command/Response messages
//   95 #ifdef ZCL_REPORT_CONFIGURING_DEVICE
//   96 static void zclController_PrintfAttrData( uint8 dataType, uint8 *attrData );
//   97 #endif
//   98 #ifdef ZCL_READ
//   99 static uint8 zclController_ProcessInReadRspCmd( zclIncomingMsg_t *pInMsg );
//  100 #endif
//  101 #ifdef ZCL_WRITE
//  102 static uint8 zclController_ProcessInWriteRspCmd( zclIncomingMsg_t *pInMsg );
//  103 #endif
//  104 #ifdef ZCL_REPORT_CONFIGURING_DEVICE
//  105 static uint8 zclController_ProcessInReadReportCfgRspCmd( zclIncomingMsg_t *pInMsg );
//  106 static uint8 zclController_ProcessInConfigReportRspCmd( zclIncomingMsg_t *pInMsg );
//  107 #endif
//  108 #ifdef ZCL_REPORT_DESTINATION_DEVICE
//  109 static void zclController_ProcessInReportCmd( zclIncomingMsg_t *pInMsg );
//  110 #endif
//  111 static uint8 zclController_ProcessInDefaultRspCmd( zclIncomingMsg_t *pInMsg );
//  112 #ifdef ZCL_DISCOVER
//  113 static uint8 zclController_ProcessInDiscCmdsRspCmd( zclIncomingMsg_t *pInMsg );
//  114 static uint8 zclController_ProcessInDiscAttrsRspCmd( zclIncomingMsg_t *pInMsg );
//  115 static uint8 zclController_ProcessInDiscAttrsExtRspCmd( zclIncomingMsg_t *pInMsg );
//  116 #endif
//  117 
//  118 /*********************************************************************
//  119  * @fn          zclController_Init
//  120  *
//  121  * @brief       Initialize the ZCL controller
//  122  *
//  123  * @param       uint8 task_id - the application that ZCL messages send to
//  124  *
//  125  * @return      none
//  126  */

        RSEG BANKED_CODE:HUGECODE:NOROOT(0)
//  127 void AT_zclController_Init( uint8* task_id )
AT_zclController_Init:
          CFI Block cfiBlock0 Using cfiCommon0
          CFI Function AT_zclController_Init
        CODE
//  128 {
        FUNCALL AT_zclController_Init, bdb_RegisterSimpleDescriptor
        LOCFRAME ISTACK, 0, STACK
        LOCFRAME PSTACK, 0, STACK
        LOCFRAME XSTACK, 9, STACK
        LOCFRAME IOVERLAY, 0, STATIC
        LOCFRAME DOVERLAY, 0, STATIC
        ARGFRAME ISTACK, 0, STACK
        ARGFRAME PSTACK, 0, STACK
        ARGFRAME XSTACK, 9, STACK
        ARGFRAME IOVERLAY, 0, STATIC
        ARGFRAME DOVERLAY, 0, STATIC
        FUNCALL AT_zclController_Init, zcl_registerForMsg
        LOCFRAME ISTACK, 0, STACK
        LOCFRAME PSTACK, 0, STACK
        LOCFRAME XSTACK, 9, STACK
        LOCFRAME IOVERLAY, 0, STATIC
        LOCFRAME DOVERLAY, 0, STATIC
        ARGFRAME ISTACK, 0, STACK
        ARGFRAME PSTACK, 0, STACK
        ARGFRAME XSTACK, 9, STACK
        ARGFRAME IOVERLAY, 0, STATIC
        ARGFRAME DOVERLAY, 0, STATIC
        MOV       A,#-0x9
        LCALL     ?BANKED_ENTER_XDATA
          CFI DPH0 load(1, XDATA, add(CFA_XSP16, literal(-1)))
          CFI DPL0 load(1, XDATA, add(CFA_XSP16, literal(-2)))
          CFI ?BRET_EXT load(1, XDATA, add(CFA_XSP16, literal(-3)))
          CFI ?RET_HIGH load(1, XDATA, add(CFA_XSP16, literal(-4)))
          CFI ?RET_LOW load(1, XDATA, add(CFA_XSP16, literal(-5)))
          CFI R7 load(1, XDATA, add(CFA_XSP16, literal(-6)))
          CFI V0 load(1, XDATA, add(CFA_XSP16, literal(-7)))
          CFI VB load(1, XDATA, add(CFA_XSP16, literal(-8)))
          CFI R6 load(1, XDATA, add(CFA_XSP16, literal(-9)))
          CFI CFA_SP SP+0
          CFI CFA_XSP16 add(XSP16, 9)
        ; Saved register size: 9
        ; Auto size: 0
        MOV       A,R2
        MOV       R6,A
        MOV       A,R3
        MOV       R7,A
//  129   // This app is part of the Home Automation Profile
//  130   bdb_RegisterSimpleDescriptor( &zclController_SimpleDesc );
        ; Setup parameters for call to function bdb_RegisterSimpleDescriptor
        MOV       R2,#zclController_SimpleDesc & 0xff
        MOV       R3,#(zclController_SimpleDesc >> 8) & 0xff
        LCALL     `??bdb_RegisterSimpleDescriptor::?relay`; Banked call to: bdb_RegisterSimpleDescriptor
//  131 
//  132   // Register the Application to receive the unprocessed Foundation command/response messages
//  133   zcl_registerForMsg( *task_id );
        ; Setup parameters for call to function zcl_registerForMsg
        MOV       DPL,R6
        MOV       DPH,R7
        MOVX      A,@DPTR
        MOV       R1,A
        LCALL     `??zcl_registerForMsg::?relay`; Banked call to: zcl_registerForMsg
//  134 }
          CFI EndBlock cfiBlock0
        REQUIRE ?Subroutine0
        ; // Fall through to label ?Subroutine0

        RSEG BANKED_CODE:HUGECODE:NOROOT(0)
?Subroutine0:
          CFI Block cfiBlock1 Using cfiCommon0
          CFI NoFunction
          CFI CFA_SP SP+0
          CFI CFA_XSP16 add(XSP16, 9)
          CFI VB load(1, XDATA, add(CFA_XSP16, literal(-8)))
          CFI DPL0 load(1, XDATA, add(CFA_XSP16, literal(-2)))
          CFI DPH0 load(1, XDATA, add(CFA_XSP16, literal(-1)))
          CFI R6 load(1, XDATA, add(CFA_XSP16, literal(-9)))
          CFI R7 load(1, XDATA, add(CFA_XSP16, literal(-6)))
          CFI V0 load(1, XDATA, add(CFA_XSP16, literal(-7)))
          CFI ?BRET_EXT load(1, XDATA, add(CFA_XSP16, literal(-3)))
          CFI ?RET_HIGH load(1, XDATA, add(CFA_XSP16, literal(-4)))
          CFI ?RET_LOW load(1, XDATA, add(CFA_XSP16, literal(-5)))
        MOV       R7,#0x1
        LJMP      ?BANKED_LEAVE_XDATA
          CFI EndBlock cfiBlock1
//  135 
//  136 /*********************************************************************
//  137  * @fn          zclEndpoint_Register
//  138  *
//  139  * @brief       Register the endPoint in the controller
//  140  *
//  141  * @param       uint8 endPoint           - the endPoint need to register
//  142  *              zclController_EP_CB cbFc - the endPoint's callback function
//  143  *
//  144  * @return      if register successfule, return true; otherwise return false
//  145  */

        RSEG BANKED_CODE:HUGECODE:NOROOT(0)
//  146 bool AT_Endpoint_Register( uint8 endPoint, uint8 *epStatus, zclController_EP_CB cbFc )
AT_Endpoint_Register:
          CFI Block cfiBlock2 Using cfiCommon0
          CFI Function AT_Endpoint_Register
        CODE
//  147 {
        FUNCALL AT_Endpoint_Register, osal_mem_alloc
        LOCFRAME ISTACK, 0, STACK
        LOCFRAME PSTACK, 0, STACK
        LOCFRAME XSTACK, 14, STACK
        LOCFRAME IOVERLAY, 0, STATIC
        LOCFRAME DOVERLAY, 0, STATIC
        ARGFRAME ISTACK, 0, STACK
        ARGFRAME PSTACK, 0, STACK
        ARGFRAME XSTACK, 14, STACK
        ARGFRAME IOVERLAY, 0, STATIC
        ARGFRAME DOVERLAY, 0, STATIC
        REQUIRE ?V0
        REQUIRE ?V1
        REQUIRE ?V2
        REQUIRE ?V4
        REQUIRE ?V5
        MOV       A,#-0xe
        LCALL     ?BANKED_ENTER_XDATA
          CFI DPH0 load(1, XDATA, add(CFA_XSP16, literal(-1)))
          CFI DPL0 load(1, XDATA, add(CFA_XSP16, literal(-2)))
          CFI ?BRET_EXT load(1, XDATA, add(CFA_XSP16, literal(-3)))
          CFI ?RET_HIGH load(1, XDATA, add(CFA_XSP16, literal(-4)))
          CFI ?RET_LOW load(1, XDATA, add(CFA_XSP16, literal(-5)))
          CFI R7 load(1, XDATA, add(CFA_XSP16, literal(-6)))
          CFI V5 load(1, XDATA, add(CFA_XSP16, literal(-7)))
          CFI V4 load(1, XDATA, add(CFA_XSP16, literal(-8)))
          CFI V3 load(1, XDATA, add(CFA_XSP16, literal(-9)))
          CFI V2 load(1, XDATA, add(CFA_XSP16, literal(-10)))
          CFI V1 load(1, XDATA, add(CFA_XSP16, literal(-11)))
          CFI V0 load(1, XDATA, add(CFA_XSP16, literal(-12)))
          CFI VB load(1, XDATA, add(CFA_XSP16, literal(-13)))
          CFI R6 load(1, XDATA, add(CFA_XSP16, literal(-14)))
          CFI CFA_SP SP+0
          CFI CFA_XSP16 add(XSP16, 14)
        ; Saved register size: 14
        ; Auto size: 0
        MOV       ?V2,R1
        MOV       A,R2
        MOV       R6,A
        MOV       A,R3
        MOV       R7,A
        MOV       ?V0,R4
        MOV       ?V1,R5
//  148   zclController_EP_List_t *pLoop;
//  149   pLoop = zclController_EP_List;
        MOV       DPTR,#zclController_EP_List
        SJMP      ??AT_Endpoint_Register_0
//  150   while (pLoop) {
//  151     if (endPoint == pLoop->ep) {
//  152       break;
//  153     }
//  154     pLoop = pLoop->next;
??AT_Endpoint_Register_1:
        INC       DPTR
        INC       DPTR
        INC       DPTR
        INC       DPTR
        INC       DPTR
??AT_Endpoint_Register_0:
        LCALL     ??Subroutine62_0 & 0xFFFF
??CrossCallReturnLabel_126:
        MOV       R1,A
        MOV       A,R0
        ORL       A,R1
        JZ        ??AT_Endpoint_Register_2
        MOV       DPL,R0
        MOV       DPH,R1
        MOVX      A,@DPTR
        XRL       A,?V2
        JNZ       ??AT_Endpoint_Register_1
//  155   }
//  156 
//  157   // if found, update the endPoint entry
//  158   if (pLoop) {
//  159     pLoop->ep = endPoint;
        MOV       A,?V2
        MOVX      @DPTR,A
//  160     pLoop->status = epStatus;
        INC       DPTR
        MOV       A,R2
        MOVX      @DPTR,A
        INC       DPTR
        MOV       A,R3
        MOVX      @DPTR,A
//  161     pLoop->CB = cbFc;
        MOV       DPL,R0
        MOV       DPH,R1
        INC       DPTR
        INC       DPTR
        INC       DPTR
        MOV       A,R4
        MOVX      @DPTR,A
        INC       DPTR
        MOV       A,R5
        SJMP      ??AT_Endpoint_Register_3
//  162     return true;
//  163   } else {
//  164     //not found, add into the List
//  165     pLoop = osal_mem_alloc(sizeof(zclController_EP_List_t));
??AT_Endpoint_Register_2:
        ; Setup parameters for call to function osal_mem_alloc
        MOV       R2,#0x7
        MOV       R3,#0x0
        LCALL     `??osal_mem_alloc::?relay`; Banked call to: osal_mem_alloc
        MOV       ?V4,R2
        MOV       ?V5,R3
        MOV       R0,?V4
        MOV       R1,?V5
//  166     if (pLoop) {
        MOV       A,R2
        ORL       A,R1
        JZ        ??AT_Endpoint_Register_4
//  167       pLoop->ep   = endPoint;
        MOV       DPL,R2
        MOV       DPH,R3
        MOV       A,?V2
        MOVX      @DPTR,A
//  168       pLoop->status = epStatus;
        INC       DPTR
        MOV       A,R6
        MOVX      @DPTR,A
        INC       DPTR
        MOV       A,R7
        MOVX      @DPTR,A
//  169       pLoop->CB   = cbFc;
        MOV       DPL,R2
        MOV       DPH,R3
        INC       DPTR
        INC       DPTR
        INC       DPTR
        MOV       A,?V0
        MOVX      @DPTR,A
        INC       DPTR
        MOV       A,?V1
        MOVX      @DPTR,A
//  170       pLoop->next = zclController_EP_List;
        MOV       DPTR,#zclController_EP_List
        LCALL     ?Subroutine54 & 0xFFFF
??CrossCallReturnLabel_122:
        MOV       DPL,R0
        MOV       DPH,R1
        INC       DPTR
        INC       DPTR
        INC       DPTR
        INC       DPTR
        INC       DPTR
        MOV       A,R2
        MOVX      @DPTR,A
        INC       DPTR
        MOV       A,R3
        MOVX      @DPTR,A
//  171       zclController_EP_List = pLoop;
        MOV       DPTR,#zclController_EP_List
        MOV       A,R0
        MOVX      @DPTR,A
        INC       DPTR
        MOV       A,R1
??AT_Endpoint_Register_3:
        MOVX      @DPTR,A
//  172       return true;
        MOV       R1,#0x1
        SJMP      ??AT_Endpoint_Register_5
//  173     } else {
//  174       return false;
??AT_Endpoint_Register_4:
        MOV       R1,#0x0
//  175     }
//  176   }
??AT_Endpoint_Register_5:
          CFI EndBlock cfiBlock2
        REQUIRE ?Subroutine1
        ; // Fall through to label ?Subroutine1
//  177 }

        RSEG BANKED_CODE:HUGECODE:NOROOT(0)
?Subroutine1:
          CFI Block cfiBlock3 Using cfiCommon0
          CFI NoFunction
          CFI CFA_SP SP+0
          CFI CFA_XSP16 add(XSP16, 14)
          CFI VB load(1, XDATA, add(CFA_XSP16, literal(-13)))
          CFI DPL0 load(1, XDATA, add(CFA_XSP16, literal(-2)))
          CFI DPH0 load(1, XDATA, add(CFA_XSP16, literal(-1)))
          CFI R6 load(1, XDATA, add(CFA_XSP16, literal(-14)))
          CFI R7 load(1, XDATA, add(CFA_XSP16, literal(-6)))
          CFI V0 load(1, XDATA, add(CFA_XSP16, literal(-12)))
          CFI V1 load(1, XDATA, add(CFA_XSP16, literal(-11)))
          CFI V2 load(1, XDATA, add(CFA_XSP16, literal(-10)))
          CFI V3 load(1, XDATA, add(CFA_XSP16, literal(-9)))
          CFI V4 load(1, XDATA, add(CFA_XSP16, literal(-8)))
          CFI V5 load(1, XDATA, add(CFA_XSP16, literal(-7)))
          CFI ?BRET_EXT load(1, XDATA, add(CFA_XSP16, literal(-3)))
          CFI ?RET_HIGH load(1, XDATA, add(CFA_XSP16, literal(-4)))
          CFI ?RET_LOW load(1, XDATA, add(CFA_XSP16, literal(-5)))
        MOV       R7,#0x6
        LJMP      ?BANKED_LEAVE_XDATA
          CFI EndBlock cfiBlock3
//  178 
//  179 /*********************************************************************
//  180  * @fn          zclEndpoint_Controller
//  181  *
//  182  * @brief       Control the ZCL endpoint
//  183  *
//  184  * @param       uint8 endPoint - the controlled endPoint
//  185  *              bool isEnable  - the status of the Endpoint
//  186  *
//  187  * @return      none
//  188  */

        RSEG BANKED_CODE:HUGECODE:NOROOT(0)
//  189 bool AT_Endpoint_Controller( uint8 endPoint, bool isEnable )
AT_Endpoint_Controller:
          CFI Block cfiBlock4 Using cfiCommon0
          CFI Function AT_Endpoint_Controller
        CODE
//  190 {
        MOV       A,#-0x9
        LCALL     ?BANKED_ENTER_XDATA
          CFI DPH0 load(1, XDATA, add(CFA_XSP16, literal(-1)))
          CFI DPL0 load(1, XDATA, add(CFA_XSP16, literal(-2)))
          CFI ?BRET_EXT load(1, XDATA, add(CFA_XSP16, literal(-3)))
          CFI ?RET_HIGH load(1, XDATA, add(CFA_XSP16, literal(-4)))
          CFI ?RET_LOW load(1, XDATA, add(CFA_XSP16, literal(-5)))
          CFI R7 load(1, XDATA, add(CFA_XSP16, literal(-6)))
          CFI V0 load(1, XDATA, add(CFA_XSP16, literal(-7)))
          CFI VB load(1, XDATA, add(CFA_XSP16, literal(-8)))
          CFI R6 load(1, XDATA, add(CFA_XSP16, literal(-9)))
          CFI CFA_SP SP+0
          CFI CFA_XSP16 add(XSP16, 9)
        ; Saved register size: 9
        ; Auto size: 0
        MOV       A,R1
        MOV       R7,A
//  191   zclController_EP_List_t *pLoop;
//  192   pLoop = zclController_EP_List;
        MOV       DPTR,#zclController_EP_List
        SJMP      ??AT_Endpoint_Controller_0
//  193   while (pLoop) {
//  194     if (endPoint == pLoop->ep) {
//  195       break;
//  196     }
//  197     pLoop = pLoop->next;
??AT_Endpoint_Controller_1:
        INC       DPTR
        INC       DPTR
        INC       DPTR
        INC       DPTR
        INC       DPTR
??AT_Endpoint_Controller_0:
        LCALL     ??Subroutine62_0 & 0xFFFF
??CrossCallReturnLabel_127:
        MOV       DPL,R0
        MOV       DPH,A
        MOV       A,DPL
        ORL       A,DPH
        JZ        ??AT_Endpoint_Controller_2
        MOVX      A,@DPTR
        XRL       A,R7
        JNZ       ??AT_Endpoint_Controller_1
//  198   }
//  199 
//  200   // if found, call the endPoint's callback function
//  201   if (pLoop) {
//  202     pLoop->CB(isEnable);
        ; Setup parameters for indirect call
        MOV       A,R2
        MOV       R1,A
        INC       DPTR
        INC       DPTR
        INC       DPTR
        LCALL     ??Subroutine62_0 & 0xFFFF
//  203   } else {
??CrossCallReturnLabel_128:
        MOV       DPH,A
        MOV       DPL,R0
        LCALL     ?CALL_IND
//  204     return false;
//  205   }
//  206   return true;
        MOV       R1,#0x1
        SJMP      ??AT_Endpoint_Controller_3
??AT_Endpoint_Controller_2:
        MOV       R1,#0x0
??AT_Endpoint_Controller_3:
        LJMP      ?Subroutine0 & 0xFFFF
//  207 }
          CFI EndBlock cfiBlock4
//  208 
//  209 /******************************************************************************
//  210  *
//  211  *  Functions for processing application control incoming Command/Response messages
//  212  *
//  213  *****************************************************************************/
//  214 /*****************************************************************************
//  215 * @fn      ATApp_MessageMSGCB
//  216 *
//  217 * @brief   processing application control incoming Command/Response messages
//  218 *
//  219 * @param   pkt - ZCL control incoming message
//  220 *
//  221 * @return  None
//  222 *****************************************************************************/

        RSEG BANKED_CODE:HUGECODE:NOROOT(0)
//  223 void ATApp_MessageMSGCB( afIncomingMSGPacket_t *pkt )
ATApp_MessageMSGCB:
          CFI Block cfiBlock5 Using cfiCommon0
          CFI Function ATApp_MessageMSGCB
        CODE
//  224 {
        FUNCALL ATApp_MessageMSGCB, AT_zclCtrl_REpCtrl_req
        LOCFRAME ISTACK, 0, STACK
        LOCFRAME PSTACK, 0, STACK
        LOCFRAME XSTACK, 10, STACK
        LOCFRAME IOVERLAY, 0, STATIC
        LOCFRAME DOVERLAY, 0, STATIC
        ARGFRAME ISTACK, 0, STACK
        ARGFRAME PSTACK, 0, STACK
        ARGFRAME XSTACK, 10, STACK
        ARGFRAME IOVERLAY, 0, STATIC
        ARGFRAME DOVERLAY, 0, STATIC
        FUNCALL ATApp_MessageMSGCB, AT_zclCtrl_REpCtrl_rsp
        LOCFRAME ISTACK, 0, STACK
        LOCFRAME PSTACK, 0, STACK
        LOCFRAME XSTACK, 10, STACK
        LOCFRAME IOVERLAY, 0, STATIC
        LOCFRAME DOVERLAY, 0, STATIC
        ARGFRAME ISTACK, 0, STACK
        ARGFRAME PSTACK, 0, STACK
        ARGFRAME XSTACK, 10, STACK
        ARGFRAME IOVERLAY, 0, STATIC
        ARGFRAME DOVERLAY, 0, STATIC
        FUNCALL ATApp_MessageMSGCB, bdb_resetLocalAction
        LOCFRAME ISTACK, 0, STACK
        LOCFRAME PSTACK, 0, STACK
        LOCFRAME XSTACK, 10, STACK
        LOCFRAME IOVERLAY, 0, STATIC
        LOCFRAME DOVERLAY, 0, STATIC
        ARGFRAME ISTACK, 0, STACK
        ARGFRAME PSTACK, 0, STACK
        ARGFRAME XSTACK, 10, STACK
        ARGFRAME IOVERLAY, 0, STATIC
        ARGFRAME DOVERLAY, 0, STATIC
        REQUIRE ?V0
        REQUIRE ?V1
        MOV       A,#-0xa
        LCALL     ?BANKED_ENTER_XDATA
          CFI DPH0 load(1, XDATA, add(CFA_XSP16, literal(-1)))
          CFI DPL0 load(1, XDATA, add(CFA_XSP16, literal(-2)))
          CFI ?BRET_EXT load(1, XDATA, add(CFA_XSP16, literal(-3)))
          CFI ?RET_HIGH load(1, XDATA, add(CFA_XSP16, literal(-4)))
          CFI ?RET_LOW load(1, XDATA, add(CFA_XSP16, literal(-5)))
          CFI R7 load(1, XDATA, add(CFA_XSP16, literal(-6)))
          CFI V1 load(1, XDATA, add(CFA_XSP16, literal(-7)))
          CFI V0 load(1, XDATA, add(CFA_XSP16, literal(-8)))
          CFI VB load(1, XDATA, add(CFA_XSP16, literal(-9)))
          CFI R6 load(1, XDATA, add(CFA_XSP16, literal(-10)))
          CFI CFA_SP SP+0
          CFI CFA_XSP16 add(XSP16, 10)
        ; Saved register size: 10
        ; Auto size: 0
//  225 
//  226   switch ( pkt->clusterId )
        MOV       DPL,R2
        MOV       DPH,R3
        INC       DPTR
        INC       DPTR
        INC       DPTR
        INC       DPTR
        MOVX      A,@DPTR
        MOV       ?V0,A
        INC       DPTR
        MOVX      A,@DPTR
        MOV       ?V1,A
        MOV       R0,#?V0
        LCALL     ?US_SWITCH_DENSE
`?<Jumptable for ATApp_MessageMSGCB>_0`:
        DATA
        DATA16
        DATA
        DATA16
        DW        8192
        DATA
        DATA8
        DATA
        DATA8
        DB        1
        DATA
        DATA16
        DATA
        DATA16
        DW        ??ATApp_MessageMSGCB_0
        DATA
        DATA16
        DATA
        DATA16
        DW        ??ATApp_MessageMSGCB_1
        DATA
        DATA16
        DATA
        DATA16
        DW        ??ATApp_MessageMSGCB_2
        CODE
//  227   {
//  228     case ATApp_GENERIC_CLUSTER:
//  229       AT_zclCtrl_REpCtrl_CB(pkt);
??ATApp_MessageMSGCB_1:
        LCALL     ?Subroutine24 & 0xFFFF
??CrossCallReturnLabel_36:
        XRL       A,#0x1
        JNZ       ??ATApp_MessageMSGCB_3
        ; Setup parameters for call to function AT_zclCtrl_REpCtrl_req
        LCALL     `??AT_zclCtrl_REpCtrl_req::?relay`; Banked call to: AT_zclCtrl_REpCtrl_req
        SJMP      ??ATApp_MessageMSGCB_0
??ATApp_MessageMSGCB_3:
        ; Setup parameters for call to function AT_zclCtrl_REpCtrl_rsp
        LCALL     `??AT_zclCtrl_REpCtrl_rsp::?relay`; Banked call to: AT_zclCtrl_REpCtrl_rsp
        SJMP      ??ATApp_MessageMSGCB_0
//  230       break;
//  231 
//  232     case RESET_FACTORY_DEFAULT_CLUSTER:
//  233       AT_ATF_CMD_CB(pkt);
??ATApp_MessageMSGCB_2:
        LCALL     ?Subroutine24 & 0xFFFF
//  234       break;
//  235 
//  236     default:
//  237       break;
//  238   }
??CrossCallReturnLabel_37:
        XRL       A,#0x3
        JNZ       ??ATApp_MessageMSGCB_0
        ; Setup parameters for call to function bdb_resetLocalAction
        LCALL     `??bdb_resetLocalAction::?relay`; Banked call to: bdb_resetLocalAction
//  239 }
??ATApp_MessageMSGCB_0:
          CFI EndBlock cfiBlock5
        REQUIRE ?Subroutine2
        ; // Fall through to label ?Subroutine2

        RSEG BANKED_CODE:HUGECODE:NOROOT(0)
?Subroutine2:
          CFI Block cfiBlock6 Using cfiCommon0
          CFI NoFunction
          CFI CFA_SP SP+0
          CFI CFA_XSP16 add(XSP16, 10)
          CFI VB load(1, XDATA, add(CFA_XSP16, literal(-9)))
          CFI DPL0 load(1, XDATA, add(CFA_XSP16, literal(-2)))
          CFI DPH0 load(1, XDATA, add(CFA_XSP16, literal(-1)))
          CFI R6 load(1, XDATA, add(CFA_XSP16, literal(-10)))
          CFI R7 load(1, XDATA, add(CFA_XSP16, literal(-6)))
          CFI V0 load(1, XDATA, add(CFA_XSP16, literal(-8)))
          CFI V1 load(1, XDATA, add(CFA_XSP16, literal(-7)))
          CFI ?BRET_EXT load(1, XDATA, add(CFA_XSP16, literal(-3)))
          CFI ?RET_HIGH load(1, XDATA, add(CFA_XSP16, literal(-4)))
          CFI ?RET_LOW load(1, XDATA, add(CFA_XSP16, literal(-5)))
        MOV       R7,#0x2
        LJMP      ?BANKED_LEAVE_XDATA
          CFI EndBlock cfiBlock6

        RSEG BANKED_CODE:HUGECODE:NOROOT(0)
?Subroutine24:
          CFI Block cfiCond7 Using cfiCommon0
          CFI Function ATApp_MessageMSGCB
          CFI Conditional ??CrossCallReturnLabel_36
          CFI R6 load(1, XDATA, add(CFA_XSP16, literal(-10)))
          CFI VB load(1, XDATA, add(CFA_XSP16, literal(-9)))
          CFI V0 load(1, XDATA, add(CFA_XSP16, literal(-8)))
          CFI V1 load(1, XDATA, add(CFA_XSP16, literal(-7)))
          CFI R7 load(1, XDATA, add(CFA_XSP16, literal(-6)))
          CFI ?RET_LOW load(1, XDATA, add(CFA_XSP16, literal(-5)))
          CFI ?RET_HIGH load(1, XDATA, add(CFA_XSP16, literal(-4)))
          CFI ?BRET_EXT load(1, XDATA, add(CFA_XSP16, literal(-3)))
          CFI DPL0 load(1, XDATA, add(CFA_XSP16, literal(-2)))
          CFI DPH0 load(1, XDATA, add(CFA_XSP16, literal(-1)))
          CFI CFA_SP SP+-2
          CFI CFA_XSP16 add(XSP16, 10)
          CFI Block cfiCond8 Using cfiCommon0
          CFI (cfiCond8) Function ATApp_MessageMSGCB
          CFI (cfiCond8) Conditional ??CrossCallReturnLabel_37
          CFI (cfiCond8) R6 load(1, XDATA, add(CFA_XSP16, literal(-10)))
          CFI (cfiCond8) VB load(1, XDATA, add(CFA_XSP16, literal(-9)))
          CFI (cfiCond8) V0 load(1, XDATA, add(CFA_XSP16, literal(-8)))
          CFI (cfiCond8) V1 load(1, XDATA, add(CFA_XSP16, literal(-7)))
          CFI (cfiCond8) R7 load(1, XDATA, add(CFA_XSP16, literal(-6)))
          CFI (cfiCond8) ?RET_LOW load(1, XDATA, add(CFA_XSP16, literal(-5)))
          CFI (cfiCond8) ?RET_HIGH load(1, XDATA, add(CFA_XSP16, literal(-4)))
          CFI (cfiCond8) ?BRET_EXT load(1, XDATA, add(CFA_XSP16, literal(-3)))
          CFI (cfiCond8) DPL0 load(1, XDATA, add(CFA_XSP16, literal(-2)))
          CFI (cfiCond8) DPH0 load(1, XDATA, add(CFA_XSP16, literal(-1)))
          CFI (cfiCond8) CFA_SP SP+-2
          CFI (cfiCond8) CFA_XSP16 add(XSP16, 10)
          CFI Block cfiPicker9 Using cfiCommon1
          CFI (cfiPicker9) NoFunction
          CFI (cfiPicker9) Picker
        LCALL     ?Subroutine45 & 0xFFFF
??CrossCallReturnLabel_83:
        LCALL     ?Subroutine43 & 0xFFFF
??CrossCallReturnLabel_79:
        RET
          CFI EndBlock cfiCond7
          CFI EndBlock cfiCond8
          CFI EndBlock cfiPicker9

        RSEG BANKED_CODE:HUGECODE:NOROOT(0)
?Subroutine43:
          CFI Block cfiCond10 Using cfiCommon0
          CFI Function ATApp_MessageMSGCB
          CFI Conditional ??CrossCallReturnLabel_79, ??CrossCallReturnLabel_36
          CFI R6 load(1, XDATA, add(CFA_XSP16, literal(-10)))
          CFI VB load(1, XDATA, add(CFA_XSP16, literal(-9)))
          CFI V0 load(1, XDATA, add(CFA_XSP16, literal(-8)))
          CFI V1 load(1, XDATA, add(CFA_XSP16, literal(-7)))
          CFI R7 load(1, XDATA, add(CFA_XSP16, literal(-6)))
          CFI ?RET_LOW load(1, XDATA, add(CFA_XSP16, literal(-5)))
          CFI ?RET_HIGH load(1, XDATA, add(CFA_XSP16, literal(-4)))
          CFI ?BRET_EXT load(1, XDATA, add(CFA_XSP16, literal(-3)))
          CFI DPL0 load(1, XDATA, add(CFA_XSP16, literal(-2)))
          CFI DPH0 load(1, XDATA, add(CFA_XSP16, literal(-1)))
          CFI CFA_SP SP+-4
          CFI CFA_XSP16 add(XSP16, 10)
          CFI Block cfiCond11 Using cfiCommon0
          CFI (cfiCond11) Function ATApp_MessageMSGCB
          CFI (cfiCond11) Conditional ??CrossCallReturnLabel_79, ??CrossCallReturnLabel_37
          CFI (cfiCond11) R6 load(1, XDATA, add(CFA_XSP16, literal(-10)))
          CFI (cfiCond11) VB load(1, XDATA, add(CFA_XSP16, literal(-9)))
          CFI (cfiCond11) V0 load(1, XDATA, add(CFA_XSP16, literal(-8)))
          CFI (cfiCond11) V1 load(1, XDATA, add(CFA_XSP16, literal(-7)))
          CFI (cfiCond11) R7 load(1, XDATA, add(CFA_XSP16, literal(-6)))
          CFI (cfiCond11) ?RET_LOW load(1, XDATA, add(CFA_XSP16, literal(-5)))
          CFI (cfiCond11) ?RET_HIGH load(1, XDATA, add(CFA_XSP16, literal(-4)))
          CFI (cfiCond11) ?BRET_EXT load(1, XDATA, add(CFA_XSP16, literal(-3)))
          CFI (cfiCond11) DPL0 load(1, XDATA, add(CFA_XSP16, literal(-2)))
          CFI (cfiCond11) DPH0 load(1, XDATA, add(CFA_XSP16, literal(-1)))
          CFI (cfiCond11) CFA_SP SP+-4
          CFI (cfiCond11) CFA_XSP16 add(XSP16, 10)
          CFI Block cfiCond12 Using cfiCommon0
          CFI (cfiCond12) Function zclController_ProcessInReadRspCmd
          CFI (cfiCond12) Conditional ??CrossCallReturnLabel_78, ??CrossCallReturnLabel_22
          CFI (cfiCond12) R6 load(1, XDATA, add(CFA_XSP16, literal(-22)))
          CFI (cfiCond12) VB load(1, XDATA, add(CFA_XSP16, literal(-21)))
          CFI (cfiCond12) V0 load(1, XDATA, add(CFA_XSP16, literal(-20)))
          CFI (cfiCond12) V1 load(1, XDATA, add(CFA_XSP16, literal(-19)))
          CFI (cfiCond12) V2 load(1, XDATA, add(CFA_XSP16, literal(-18)))
          CFI (cfiCond12) V3 load(1, XDATA, add(CFA_XSP16, literal(-17)))
          CFI (cfiCond12) V4 load(1, XDATA, add(CFA_XSP16, literal(-16)))
          CFI (cfiCond12) V5 load(1, XDATA, add(CFA_XSP16, literal(-15)))
          CFI (cfiCond12) V6 load(1, XDATA, add(CFA_XSP16, literal(-14)))
          CFI (cfiCond12) V7 load(1, XDATA, add(CFA_XSP16, literal(-13)))
          CFI (cfiCond12) V8 load(1, XDATA, add(CFA_XSP16, literal(-12)))
          CFI (cfiCond12) V9 load(1, XDATA, add(CFA_XSP16, literal(-11)))
          CFI (cfiCond12) V10 load(1, XDATA, add(CFA_XSP16, literal(-10)))
          CFI (cfiCond12) V11 load(1, XDATA, add(CFA_XSP16, literal(-9)))
          CFI (cfiCond12) V12 load(1, XDATA, add(CFA_XSP16, literal(-8)))
          CFI (cfiCond12) V13 load(1, XDATA, add(CFA_XSP16, literal(-7)))
          CFI (cfiCond12) R7 load(1, XDATA, add(CFA_XSP16, literal(-6)))
          CFI (cfiCond12) ?RET_LOW load(1, XDATA, add(CFA_XSP16, literal(-5)))
          CFI (cfiCond12) ?RET_HIGH load(1, XDATA, add(CFA_XSP16, literal(-4)))
          CFI (cfiCond12) ?BRET_EXT load(1, XDATA, add(CFA_XSP16, literal(-3)))
          CFI (cfiCond12) DPL0 load(1, XDATA, add(CFA_XSP16, literal(-2)))
          CFI (cfiCond12) DPH0 load(1, XDATA, add(CFA_XSP16, literal(-1)))
          CFI (cfiCond12) CFA_SP SP+-4
          CFI (cfiCond12) CFA_XSP16 add(XSP16, 39)
          CFI Block cfiCond13 Using cfiCommon0
          CFI (cfiCond13) Function zclController_ProcessInReportCmd
          CFI (cfiCond13) Conditional ??CrossCallReturnLabel_78, ??CrossCallReturnLabel_23
          CFI (cfiCond13) R6 load(1, XDATA, add(CFA_XSP16, literal(-18)))
          CFI (cfiCond13) VB load(1, XDATA, add(CFA_XSP16, literal(-17)))
          CFI (cfiCond13) V0 load(1, XDATA, add(CFA_XSP16, literal(-16)))
          CFI (cfiCond13) V1 load(1, XDATA, add(CFA_XSP16, literal(-15)))
          CFI (cfiCond13) V2 load(1, XDATA, add(CFA_XSP16, literal(-14)))
          CFI (cfiCond13) V3 load(1, XDATA, add(CFA_XSP16, literal(-13)))
          CFI (cfiCond13) V4 load(1, XDATA, add(CFA_XSP16, literal(-12)))
          CFI (cfiCond13) V5 load(1, XDATA, add(CFA_XSP16, literal(-11)))
          CFI (cfiCond13) V6 load(1, XDATA, add(CFA_XSP16, literal(-10)))
          CFI (cfiCond13) V7 load(1, XDATA, add(CFA_XSP16, literal(-9)))
          CFI (cfiCond13) V8 load(1, XDATA, add(CFA_XSP16, literal(-8)))
          CFI (cfiCond13) V9 load(1, XDATA, add(CFA_XSP16, literal(-7)))
          CFI (cfiCond13) R7 load(1, XDATA, add(CFA_XSP16, literal(-6)))
          CFI (cfiCond13) ?RET_LOW load(1, XDATA, add(CFA_XSP16, literal(-5)))
          CFI (cfiCond13) ?RET_HIGH load(1, XDATA, add(CFA_XSP16, literal(-4)))
          CFI (cfiCond13) ?BRET_EXT load(1, XDATA, add(CFA_XSP16, literal(-3)))
          CFI (cfiCond13) DPL0 load(1, XDATA, add(CFA_XSP16, literal(-2)))
          CFI (cfiCond13) DPH0 load(1, XDATA, add(CFA_XSP16, literal(-1)))
          CFI (cfiCond13) CFA_SP SP+-4
          CFI (cfiCond13) CFA_XSP16 add(XSP16, 35)
          CFI Block cfiPicker14 Using cfiCommon1
          CFI (cfiPicker14) NoFunction
          CFI (cfiPicker14) Picker
        LCALL     ?Subroutine51 & 0xFFFF
??CrossCallReturnLabel_93:
        MOVX      A,@DPTR
        RET
          CFI EndBlock cfiCond10
          CFI EndBlock cfiCond11
          CFI EndBlock cfiCond12
          CFI EndBlock cfiCond13
          CFI EndBlock cfiPicker14
//  240 
//  241 /*****************************************************************************
//  242 * @fn      AT_zclCtrl_REpCtrl_CB
//  243 *
//  244 * @brief   processing remote endpoint control incoming messages
//  245 *
//  246 * @param   pkt - incoming message
//  247 *
//  248 * @return  None
//  249 *****************************************************************************/
//  250 void AT_zclCtrl_REpCtrl_CB( afIncomingMSGPacket_t *pkt )
//  251 {
//  252   uint8 cmdID = pkt->cmd.Data[0];
//  253   if (cmdID == ZCL_EPCtrl_Cmd_req) {
//  254     AT_zclCtrl_REpCtrl_req(pkt);
//  255   } else {
//  256     AT_zclCtrl_REpCtrl_rsp(pkt);
//  257   }
//  258 }
//  259 
//  260 /*****************************************************************************
//  261 * @fn      AT_ATF_CMD_CB
//  262 *
//  263 * @brief   processing remote ATF command messages
//  264 *
//  265 * @param   pkt - incoming message
//  266 *
//  267 * @return  None
//  268 *****************************************************************************/
//  269 void AT_ATF_CMD_CB( afIncomingMSGPacket_t *pkt )
//  270 {
//  271   uint8 cmdID = pkt->cmd.Data[0];
//  272   if (cmdID == ATF_Cmd_req) {
//  273     AT_ATF_Cmd_req(pkt);
//  274   }
//  275 }
//  276 
//  277 /*****************************************************************************
//  278 * @fn      AT_zclCtrl_REpCtrl_req
//  279 *
//  280 * @brief   processing remote endpoint control incoming request messages
//  281 *
//  282 * @param   pkt - incoming message
//  283 *
//  284 * @return  None
//  285 *****************************************************************************/

        RSEG BANKED_CODE:HUGECODE:NOROOT(0)
//  286 void AT_zclCtrl_REpCtrl_req( afIncomingMSGPacket_t *pkt )
AT_zclCtrl_REpCtrl_req:
          CFI Block cfiBlock15 Using cfiCommon0
          CFI Function AT_zclCtrl_REpCtrl_req
        CODE
//  287 {
        FUNCALL AT_zclCtrl_REpCtrl_req, osal_mem_alloc
        LOCFRAME ISTACK, 0, STACK
        LOCFRAME PSTACK, 0, STACK
        LOCFRAME XSTACK, 14, STACK
        LOCFRAME IOVERLAY, 0, STATIC
        LOCFRAME DOVERLAY, 0, STATIC
        ARGFRAME ISTACK, 0, STACK
        ARGFRAME PSTACK, 0, STACK
        ARGFRAME XSTACK, 14, STACK
        ARGFRAME IOVERLAY, 0, STATIC
        ARGFRAME DOVERLAY, 0, STATIC
        FUNCALL AT_zclCtrl_REpCtrl_req, AT_SendEPCtrl_rsp
        LOCFRAME ISTACK, 0, STACK
        LOCFRAME PSTACK, 0, STACK
        LOCFRAME XSTACK, 16, STACK
        LOCFRAME IOVERLAY, 0, STATIC
        LOCFRAME DOVERLAY, 0, STATIC
        ARGFRAME ISTACK, 0, STACK
        ARGFRAME PSTACK, 0, STACK
        ARGFRAME XSTACK, 16, STACK
        ARGFRAME IOVERLAY, 0, STATIC
        ARGFRAME DOVERLAY, 0, STATIC
        FUNCALL AT_zclCtrl_REpCtrl_req, osal_mem_free
        LOCFRAME ISTACK, 0, STACK
        LOCFRAME PSTACK, 0, STACK
        LOCFRAME XSTACK, 14, STACK
        LOCFRAME IOVERLAY, 0, STATIC
        LOCFRAME DOVERLAY, 0, STATIC
        ARGFRAME ISTACK, 0, STACK
        ARGFRAME PSTACK, 0, STACK
        ARGFRAME XSTACK, 14, STACK
        ARGFRAME IOVERLAY, 0, STATIC
        ARGFRAME DOVERLAY, 0, STATIC
        FUNCALL AT_zclCtrl_REpCtrl_req, AT_UARTWriteErrMsg
        LOCFRAME ISTACK, 0, STACK
        LOCFRAME PSTACK, 0, STACK
        LOCFRAME XSTACK, 14, STACK
        LOCFRAME IOVERLAY, 0, STATIC
        LOCFRAME DOVERLAY, 0, STATIC
        ARGFRAME ISTACK, 0, STACK
        ARGFRAME PSTACK, 0, STACK
        ARGFRAME XSTACK, 14, STACK
        ARGFRAME IOVERLAY, 0, STATIC
        ARGFRAME DOVERLAY, 0, STATIC
        REQUIRE ?V0
        REQUIRE ?V1
        REQUIRE ?V2
        REQUIRE ?V3
        REQUIRE ?V4
        REQUIRE ?V5
        MOV       A,#-0xe
        LCALL     ?BANKED_ENTER_XDATA
          CFI DPH0 load(1, XDATA, add(CFA_XSP16, literal(-1)))
          CFI DPL0 load(1, XDATA, add(CFA_XSP16, literal(-2)))
          CFI ?BRET_EXT load(1, XDATA, add(CFA_XSP16, literal(-3)))
          CFI ?RET_HIGH load(1, XDATA, add(CFA_XSP16, literal(-4)))
          CFI ?RET_LOW load(1, XDATA, add(CFA_XSP16, literal(-5)))
          CFI R7 load(1, XDATA, add(CFA_XSP16, literal(-6)))
          CFI V5 load(1, XDATA, add(CFA_XSP16, literal(-7)))
          CFI V4 load(1, XDATA, add(CFA_XSP16, literal(-8)))
          CFI V3 load(1, XDATA, add(CFA_XSP16, literal(-9)))
          CFI V2 load(1, XDATA, add(CFA_XSP16, literal(-10)))
          CFI V1 load(1, XDATA, add(CFA_XSP16, literal(-11)))
          CFI V0 load(1, XDATA, add(CFA_XSP16, literal(-12)))
          CFI VB load(1, XDATA, add(CFA_XSP16, literal(-13)))
          CFI R6 load(1, XDATA, add(CFA_XSP16, literal(-14)))
          CFI CFA_SP SP+0
          CFI CFA_XSP16 add(XSP16, 14)
        ; Saved register size: 14
        ; Auto size: 0
        MOV       ?V0,R2
        MOV       ?V1,R3
//  288   uint8 state;
//  289   EPCtrlCmd_t *epCtrlCmd = (EPCtrlCmd_t*) &(pkt->cmd.Data[1]);
        MOV       A,R2
        ADD       A,#0x22
        LCALL     ?Subroutine30 & 0xFFFF
??CrossCallReturnLabel_44:
        MOVX      A,@DPTR
        ADD       A,#0x1
        MOV       R6,A
        INC       DPTR
        MOVX      A,@DPTR
        ADDC      A,#0x0
        MOV       R7,A
//  290   EPCtrlCmd_rsp *epCtrlCmd_rsp = (EPCtrlCmd_rsp*) osal_mem_alloc(sizeof(EPCtrlCmd_rsp));
        ; Setup parameters for call to function osal_mem_alloc
        LCALL     ?Subroutine28 & 0xFFFF
//  291 
//  292   uint8 endPoint = epCtrlCmd->ep;
??CrossCallReturnLabel_101:
        MOV       DPL,R6
        MOV       DPH,R7
        MOVX      A,@DPTR
        MOV       R1,A
//  293   uint8 isEnable = epCtrlCmd->isEnable;
        INC       DPTR
        MOVX      A,@DPTR
        MOV       R0,A
//  294   if (isEnable != 0) isEnable = 1;
        JZ        ??AT_zclCtrl_REpCtrl_req_0
        MOV       R0,#0x1
//  295 
//  296   epCtrlCmd_rsp->ep = endPoint;
??AT_zclCtrl_REpCtrl_req_0:
        MOV       A,R1
        MOV       DPL,R2
        MOV       DPH,R3
        MOVX      @DPTR,A
//  297   if (isEnable == 0 || isEnable == 1) {
        INC       DPTR
        MOV       A,R0
        JZ        ??AT_zclCtrl_REpCtrl_req_1
        MOV       A,#0x1
        XRL       A,R0
        JNZ       ??AT_zclCtrl_REpCtrl_req_2
//  298     if (isEnable) {
//  299       epCtrlCmd_rsp->status = EndpointEnabled;
        MOV       A,#0x1
        SJMP      ??AT_zclCtrl_REpCtrl_req_3
//  300     } else {
//  301       epCtrlCmd_rsp->status = EndpointDisabled;
??AT_zclCtrl_REpCtrl_req_1:
        CLR       A
        SJMP      ??AT_zclCtrl_REpCtrl_req_3
//  302     }
//  303   } else {
//  304     epCtrlCmd_rsp->status = EndpointUnknown;
??AT_zclCtrl_REpCtrl_req_2:
        MOV       A,#0x2
??AT_zclCtrl_REpCtrl_req_3:
        MOVX      @DPTR,A
//  305   }
//  306 
//  307   state = AT_SendEPCtrl_rsp( ATApp_ENDPOINT, &(pkt->srcAddr),
//  308                             ATApp_GENERIC_CLUSTER, epCtrlCmd_rsp );
        ; Setup parameters for call to function AT_SendEPCtrl_rsp
        MOV       R0,#?V2
        LCALL     ?PUSH_XSTACK_I_TWO
          CFI CFA_XSP16 add(XSP16, 16)
        MOV       R4,#0x0
        MOV       R5,#0x20
        MOV       A,?V0
        ADD       A,#0x6
        MOV       R2,A
        CLR       A
        ADDC      A,?V1
        MOV       R3,A
        MOV       R1,#-0x6a
        LCALL     `??AT_SendEPCtrl_rsp::?relay`; Banked call to: AT_SendEPCtrl_rsp
        MOV       A,#0x2
        LCALL     ?DEALLOC_XSTACK8
          CFI CFA_XSP16 add(XSP16, 14)
        MOV       A,R1
        MOV       R6,A
//  309   osal_mem_free ( epCtrlCmd_rsp );
        ; Setup parameters for call to function osal_mem_free
        MOV       R2,?V2
        MOV       R3,?V3
        LCALL     `??osal_mem_free::?relay`; Banked call to: osal_mem_free
//  310   if(state != afStatus_SUCCESS) AT_ERROR(state);
        MOV       A,R6
        JZ        ??AT_zclCtrl_REpCtrl_req_4
        ; Setup parameters for call to function AT_UARTWriteErrMsg
        MOV       R2,#0x1
        MOV       R1,A
        LCALL     `??AT_UARTWriteErrMsg::?relay`; Banked call to: AT_UARTWriteErrMsg
//  311 }
??AT_zclCtrl_REpCtrl_req_4:
        LJMP      ?Subroutine1 & 0xFFFF
          CFI EndBlock cfiBlock15

        RSEG BANKED_CODE:HUGECODE:NOROOT(0)
?Subroutine28:
          CFI Block cfiCond16 Using cfiCommon0
          CFI Function AT_zclCtrl_REpCtrl_req
          CFI Conditional ??CrossCallReturnLabel_101
          CFI R6 load(1, XDATA, add(CFA_XSP16, literal(-14)))
          CFI VB load(1, XDATA, add(CFA_XSP16, literal(-13)))
          CFI V0 load(1, XDATA, add(CFA_XSP16, literal(-12)))
          CFI V1 load(1, XDATA, add(CFA_XSP16, literal(-11)))
          CFI V2 load(1, XDATA, add(CFA_XSP16, literal(-10)))
          CFI V3 load(1, XDATA, add(CFA_XSP16, literal(-9)))
          CFI V4 load(1, XDATA, add(CFA_XSP16, literal(-8)))
          CFI V5 load(1, XDATA, add(CFA_XSP16, literal(-7)))
          CFI R7 load(1, XDATA, add(CFA_XSP16, literal(-6)))
          CFI ?RET_LOW load(1, XDATA, add(CFA_XSP16, literal(-5)))
          CFI ?RET_HIGH load(1, XDATA, add(CFA_XSP16, literal(-4)))
          CFI ?BRET_EXT load(1, XDATA, add(CFA_XSP16, literal(-3)))
          CFI DPL0 load(1, XDATA, add(CFA_XSP16, literal(-2)))
          CFI DPH0 load(1, XDATA, add(CFA_XSP16, literal(-1)))
          CFI CFA_SP SP+-2
          CFI CFA_XSP16 add(XSP16, 14)
          CFI Block cfiCond17 Using cfiCommon0
          CFI (cfiCond17) Function zclController_PrintfAttrData
          CFI (cfiCond17) Conditional ??CrossCallReturnLabel_102
          CFI (cfiCond17) R6 load(1, XDATA, add(CFA_XSP16, literal(-14)))
          CFI (cfiCond17) VB load(1, XDATA, add(CFA_XSP16, literal(-13)))
          CFI (cfiCond17) V0 load(1, XDATA, add(CFA_XSP16, literal(-12)))
          CFI (cfiCond17) V1 load(1, XDATA, add(CFA_XSP16, literal(-11)))
          CFI (cfiCond17) V2 load(1, XDATA, add(CFA_XSP16, literal(-10)))
          CFI (cfiCond17) V3 load(1, XDATA, add(CFA_XSP16, literal(-9)))
          CFI (cfiCond17) V4 load(1, XDATA, add(CFA_XSP16, literal(-8)))
          CFI (cfiCond17) V5 load(1, XDATA, add(CFA_XSP16, literal(-7)))
          CFI (cfiCond17) R7 load(1, XDATA, add(CFA_XSP16, literal(-6)))
          CFI (cfiCond17) ?RET_LOW load(1, XDATA, add(CFA_XSP16, literal(-5)))
          CFI (cfiCond17) ?RET_HIGH load(1, XDATA, add(CFA_XSP16, literal(-4)))
          CFI (cfiCond17) ?BRET_EXT load(1, XDATA, add(CFA_XSP16, literal(-3)))
          CFI (cfiCond17) DPL0 load(1, XDATA, add(CFA_XSP16, literal(-2)))
          CFI (cfiCond17) DPH0 load(1, XDATA, add(CFA_XSP16, literal(-1)))
          CFI (cfiCond17) CFA_SP SP+-2
          CFI (cfiCond17) CFA_XSP16 add(XSP16, 14)
          CFI Block cfiPicker18 Using cfiCommon1
          CFI (cfiPicker18) NoFunction
          CFI (cfiPicker18) Picker
        MOV       R2,#0x2
          CFI EndBlock cfiCond16
          CFI EndBlock cfiCond17
          CFI EndBlock cfiPicker18
        REQUIRE ??Subroutine56_0
        ; // Fall through to label ??Subroutine56_0

        RSEG BANKED_CODE:HUGECODE:NOROOT(0)
??Subroutine56_0:
          CFI Block cfiCond19 Using cfiCommon0
          CFI Function zclController_PrintfAttrData
          CFI Conditional ??CrossCallReturnLabel_103
          CFI R6 load(1, XDATA, add(CFA_XSP16, literal(-14)))
          CFI VB load(1, XDATA, add(CFA_XSP16, literal(-13)))
          CFI V0 load(1, XDATA, add(CFA_XSP16, literal(-12)))
          CFI V1 load(1, XDATA, add(CFA_XSP16, literal(-11)))
          CFI V2 load(1, XDATA, add(CFA_XSP16, literal(-10)))
          CFI V3 load(1, XDATA, add(CFA_XSP16, literal(-9)))
          CFI V4 load(1, XDATA, add(CFA_XSP16, literal(-8)))
          CFI V5 load(1, XDATA, add(CFA_XSP16, literal(-7)))
          CFI R7 load(1, XDATA, add(CFA_XSP16, literal(-6)))
          CFI ?RET_LOW load(1, XDATA, add(CFA_XSP16, literal(-5)))
          CFI ?RET_HIGH load(1, XDATA, add(CFA_XSP16, literal(-4)))
          CFI ?BRET_EXT load(1, XDATA, add(CFA_XSP16, literal(-3)))
          CFI DPL0 load(1, XDATA, add(CFA_XSP16, literal(-2)))
          CFI DPH0 load(1, XDATA, add(CFA_XSP16, literal(-1)))
          CFI CFA_SP SP+-2
          CFI CFA_XSP16 add(XSP16, 14)
          CFI Block cfiCond20 Using cfiCommon0
          CFI (cfiCond20) Function zclController_PrintfAttrData
          CFI (cfiCond20) Conditional ??CrossCallReturnLabel_104
          CFI (cfiCond20) R6 load(1, XDATA, add(CFA_XSP16, literal(-14)))
          CFI (cfiCond20) VB load(1, XDATA, add(CFA_XSP16, literal(-13)))
          CFI (cfiCond20) V0 load(1, XDATA, add(CFA_XSP16, literal(-12)))
          CFI (cfiCond20) V1 load(1, XDATA, add(CFA_XSP16, literal(-11)))
          CFI (cfiCond20) V2 load(1, XDATA, add(CFA_XSP16, literal(-10)))
          CFI (cfiCond20) V3 load(1, XDATA, add(CFA_XSP16, literal(-9)))
          CFI (cfiCond20) V4 load(1, XDATA, add(CFA_XSP16, literal(-8)))
          CFI (cfiCond20) V5 load(1, XDATA, add(CFA_XSP16, literal(-7)))
          CFI (cfiCond20) R7 load(1, XDATA, add(CFA_XSP16, literal(-6)))
          CFI (cfiCond20) ?RET_LOW load(1, XDATA, add(CFA_XSP16, literal(-5)))
          CFI (cfiCond20) ?RET_HIGH load(1, XDATA, add(CFA_XSP16, literal(-4)))
          CFI (cfiCond20) ?BRET_EXT load(1, XDATA, add(CFA_XSP16, literal(-3)))
          CFI (cfiCond20) DPL0 load(1, XDATA, add(CFA_XSP16, literal(-2)))
          CFI (cfiCond20) DPH0 load(1, XDATA, add(CFA_XSP16, literal(-1)))
          CFI (cfiCond20) CFA_SP SP+-2
          CFI (cfiCond20) CFA_XSP16 add(XSP16, 14)
          CFI Block cfiCond21 Using cfiCommon0
          CFI (cfiCond21) Function zclController_PrintfAttrData
          CFI (cfiCond21) Conditional ??CrossCallReturnLabel_105
          CFI (cfiCond21) R6 load(1, XDATA, add(CFA_XSP16, literal(-14)))
          CFI (cfiCond21) VB load(1, XDATA, add(CFA_XSP16, literal(-13)))
          CFI (cfiCond21) V0 load(1, XDATA, add(CFA_XSP16, literal(-12)))
          CFI (cfiCond21) V1 load(1, XDATA, add(CFA_XSP16, literal(-11)))
          CFI (cfiCond21) V2 load(1, XDATA, add(CFA_XSP16, literal(-10)))
          CFI (cfiCond21) V3 load(1, XDATA, add(CFA_XSP16, literal(-9)))
          CFI (cfiCond21) V4 load(1, XDATA, add(CFA_XSP16, literal(-8)))
          CFI (cfiCond21) V5 load(1, XDATA, add(CFA_XSP16, literal(-7)))
          CFI (cfiCond21) R7 load(1, XDATA, add(CFA_XSP16, literal(-6)))
          CFI (cfiCond21) ?RET_LOW load(1, XDATA, add(CFA_XSP16, literal(-5)))
          CFI (cfiCond21) ?RET_HIGH load(1, XDATA, add(CFA_XSP16, literal(-4)))
          CFI (cfiCond21) ?BRET_EXT load(1, XDATA, add(CFA_XSP16, literal(-3)))
          CFI (cfiCond21) DPL0 load(1, XDATA, add(CFA_XSP16, literal(-2)))
          CFI (cfiCond21) DPH0 load(1, XDATA, add(CFA_XSP16, literal(-1)))
          CFI (cfiCond21) CFA_SP SP+-2
          CFI (cfiCond21) CFA_XSP16 add(XSP16, 14)
          CFI Block cfiCond22 Using cfiCommon0
          CFI (cfiCond22) Function zclController_PrintfAttrData
          CFI (cfiCond22) Conditional ??CrossCallReturnLabel_106
          CFI (cfiCond22) R6 load(1, XDATA, add(CFA_XSP16, literal(-14)))
          CFI (cfiCond22) VB load(1, XDATA, add(CFA_XSP16, literal(-13)))
          CFI (cfiCond22) V0 load(1, XDATA, add(CFA_XSP16, literal(-12)))
          CFI (cfiCond22) V1 load(1, XDATA, add(CFA_XSP16, literal(-11)))
          CFI (cfiCond22) V2 load(1, XDATA, add(CFA_XSP16, literal(-10)))
          CFI (cfiCond22) V3 load(1, XDATA, add(CFA_XSP16, literal(-9)))
          CFI (cfiCond22) V4 load(1, XDATA, add(CFA_XSP16, literal(-8)))
          CFI (cfiCond22) V5 load(1, XDATA, add(CFA_XSP16, literal(-7)))
          CFI (cfiCond22) R7 load(1, XDATA, add(CFA_XSP16, literal(-6)))
          CFI (cfiCond22) ?RET_LOW load(1, XDATA, add(CFA_XSP16, literal(-5)))
          CFI (cfiCond22) ?RET_HIGH load(1, XDATA, add(CFA_XSP16, literal(-4)))
          CFI (cfiCond22) ?BRET_EXT load(1, XDATA, add(CFA_XSP16, literal(-3)))
          CFI (cfiCond22) DPL0 load(1, XDATA, add(CFA_XSP16, literal(-2)))
          CFI (cfiCond22) DPH0 load(1, XDATA, add(CFA_XSP16, literal(-1)))
          CFI (cfiCond22) CFA_SP SP+-2
          CFI (cfiCond22) CFA_XSP16 add(XSP16, 14)
          CFI Block cfiCond23 Using cfiCommon0
          CFI (cfiCond23) Function zclController_PrintfAttrData
          CFI (cfiCond23) Conditional ??CrossCallReturnLabel_107
          CFI (cfiCond23) R6 load(1, XDATA, add(CFA_XSP16, literal(-14)))
          CFI (cfiCond23) VB load(1, XDATA, add(CFA_XSP16, literal(-13)))
          CFI (cfiCond23) V0 load(1, XDATA, add(CFA_XSP16, literal(-12)))
          CFI (cfiCond23) V1 load(1, XDATA, add(CFA_XSP16, literal(-11)))
          CFI (cfiCond23) V2 load(1, XDATA, add(CFA_XSP16, literal(-10)))
          CFI (cfiCond23) V3 load(1, XDATA, add(CFA_XSP16, literal(-9)))
          CFI (cfiCond23) V4 load(1, XDATA, add(CFA_XSP16, literal(-8)))
          CFI (cfiCond23) V5 load(1, XDATA, add(CFA_XSP16, literal(-7)))
          CFI (cfiCond23) R7 load(1, XDATA, add(CFA_XSP16, literal(-6)))
          CFI (cfiCond23) ?RET_LOW load(1, XDATA, add(CFA_XSP16, literal(-5)))
          CFI (cfiCond23) ?RET_HIGH load(1, XDATA, add(CFA_XSP16, literal(-4)))
          CFI (cfiCond23) ?BRET_EXT load(1, XDATA, add(CFA_XSP16, literal(-3)))
          CFI (cfiCond23) DPL0 load(1, XDATA, add(CFA_XSP16, literal(-2)))
          CFI (cfiCond23) DPH0 load(1, XDATA, add(CFA_XSP16, literal(-1)))
          CFI (cfiCond23) CFA_SP SP+-2
          CFI (cfiCond23) CFA_XSP16 add(XSP16, 14)
          CFI Block cfiCond24 Using cfiCommon0
          CFI (cfiCond24) Function zclController_PrintfAttrData
          CFI (cfiCond24) Conditional ??CrossCallReturnLabel_108
          CFI (cfiCond24) R6 load(1, XDATA, add(CFA_XSP16, literal(-14)))
          CFI (cfiCond24) VB load(1, XDATA, add(CFA_XSP16, literal(-13)))
          CFI (cfiCond24) V0 load(1, XDATA, add(CFA_XSP16, literal(-12)))
          CFI (cfiCond24) V1 load(1, XDATA, add(CFA_XSP16, literal(-11)))
          CFI (cfiCond24) V2 load(1, XDATA, add(CFA_XSP16, literal(-10)))
          CFI (cfiCond24) V3 load(1, XDATA, add(CFA_XSP16, literal(-9)))
          CFI (cfiCond24) V4 load(1, XDATA, add(CFA_XSP16, literal(-8)))
          CFI (cfiCond24) V5 load(1, XDATA, add(CFA_XSP16, literal(-7)))
          CFI (cfiCond24) R7 load(1, XDATA, add(CFA_XSP16, literal(-6)))
          CFI (cfiCond24) ?RET_LOW load(1, XDATA, add(CFA_XSP16, literal(-5)))
          CFI (cfiCond24) ?RET_HIGH load(1, XDATA, add(CFA_XSP16, literal(-4)))
          CFI (cfiCond24) ?BRET_EXT load(1, XDATA, add(CFA_XSP16, literal(-3)))
          CFI (cfiCond24) DPL0 load(1, XDATA, add(CFA_XSP16, literal(-2)))
          CFI (cfiCond24) DPH0 load(1, XDATA, add(CFA_XSP16, literal(-1)))
          CFI (cfiCond24) CFA_SP SP+-2
          CFI (cfiCond24) CFA_XSP16 add(XSP16, 14)
          CFI Block cfiCond25 Using cfiCommon0
          CFI (cfiCond25) Function AT_zclCtrl_REpCtrl_req
          CFI (cfiCond25) Conditional ??CrossCallReturnLabel_101
          CFI (cfiCond25) R6 load(1, XDATA, add(CFA_XSP16, literal(-14)))
          CFI (cfiCond25) VB load(1, XDATA, add(CFA_XSP16, literal(-13)))
          CFI (cfiCond25) V0 load(1, XDATA, add(CFA_XSP16, literal(-12)))
          CFI (cfiCond25) V1 load(1, XDATA, add(CFA_XSP16, literal(-11)))
          CFI (cfiCond25) V2 load(1, XDATA, add(CFA_XSP16, literal(-10)))
          CFI (cfiCond25) V3 load(1, XDATA, add(CFA_XSP16, literal(-9)))
          CFI (cfiCond25) V4 load(1, XDATA, add(CFA_XSP16, literal(-8)))
          CFI (cfiCond25) V5 load(1, XDATA, add(CFA_XSP16, literal(-7)))
          CFI (cfiCond25) R7 load(1, XDATA, add(CFA_XSP16, literal(-6)))
          CFI (cfiCond25) ?RET_LOW load(1, XDATA, add(CFA_XSP16, literal(-5)))
          CFI (cfiCond25) ?RET_HIGH load(1, XDATA, add(CFA_XSP16, literal(-4)))
          CFI (cfiCond25) ?BRET_EXT load(1, XDATA, add(CFA_XSP16, literal(-3)))
          CFI (cfiCond25) DPL0 load(1, XDATA, add(CFA_XSP16, literal(-2)))
          CFI (cfiCond25) DPH0 load(1, XDATA, add(CFA_XSP16, literal(-1)))
          CFI (cfiCond25) CFA_SP SP+-2
          CFI (cfiCond25) CFA_XSP16 add(XSP16, 14)
          CFI Block cfiCond26 Using cfiCommon0
          CFI (cfiCond26) Function zclController_PrintfAttrData
          CFI (cfiCond26) Conditional ??CrossCallReturnLabel_102
          CFI (cfiCond26) R6 load(1, XDATA, add(CFA_XSP16, literal(-14)))
          CFI (cfiCond26) VB load(1, XDATA, add(CFA_XSP16, literal(-13)))
          CFI (cfiCond26) V0 load(1, XDATA, add(CFA_XSP16, literal(-12)))
          CFI (cfiCond26) V1 load(1, XDATA, add(CFA_XSP16, literal(-11)))
          CFI (cfiCond26) V2 load(1, XDATA, add(CFA_XSP16, literal(-10)))
          CFI (cfiCond26) V3 load(1, XDATA, add(CFA_XSP16, literal(-9)))
          CFI (cfiCond26) V4 load(1, XDATA, add(CFA_XSP16, literal(-8)))
          CFI (cfiCond26) V5 load(1, XDATA, add(CFA_XSP16, literal(-7)))
          CFI (cfiCond26) R7 load(1, XDATA, add(CFA_XSP16, literal(-6)))
          CFI (cfiCond26) ?RET_LOW load(1, XDATA, add(CFA_XSP16, literal(-5)))
          CFI (cfiCond26) ?RET_HIGH load(1, XDATA, add(CFA_XSP16, literal(-4)))
          CFI (cfiCond26) ?BRET_EXT load(1, XDATA, add(CFA_XSP16, literal(-3)))
          CFI (cfiCond26) DPL0 load(1, XDATA, add(CFA_XSP16, literal(-2)))
          CFI (cfiCond26) DPH0 load(1, XDATA, add(CFA_XSP16, literal(-1)))
          CFI (cfiCond26) CFA_SP SP+-2
          CFI (cfiCond26) CFA_XSP16 add(XSP16, 14)
          CFI Block cfiPicker27 Using cfiCommon1
          CFI (cfiPicker27) NoFunction
          CFI (cfiPicker27) Picker
        MOV       R3,#0x0
        LCALL     `??osal_mem_alloc::?relay`; Banked call to: osal_mem_alloc
        MOV       ?V2,R2
        MOV       ?V3,R3
        RET
          CFI EndBlock cfiCond19
          CFI EndBlock cfiCond20
          CFI EndBlock cfiCond21
          CFI EndBlock cfiCond22
          CFI EndBlock cfiCond23
          CFI EndBlock cfiCond24
          CFI EndBlock cfiCond25
          CFI EndBlock cfiCond26
          CFI EndBlock cfiPicker27
//  312 
//  313 /*****************************************************************************
//  314 * @fn      AT_zclCtrl_REpCtrl_rsp
//  315 *
//  316 * @brief   processing remote endpoint control incoming response messages
//  317 *
//  318 * @param   pkt - incoming message
//  319 *
//  320 * @return  None
//  321 *****************************************************************************/

        RSEG BANKED_CODE:HUGECODE:NOROOT(0)
//  322 void AT_zclCtrl_REpCtrl_rsp( afIncomingMSGPacket_t *pkt )
AT_zclCtrl_REpCtrl_rsp:
          CFI Block cfiBlock28 Using cfiCommon0
          CFI Function AT_zclCtrl_REpCtrl_rsp
        CODE
//  323 {
        FUNCALL AT_zclCtrl_REpCtrl_rsp, AT_Uart0_Send
        LOCFRAME ISTACK, 0, STACK
        LOCFRAME PSTACK, 0, STACK
        LOCFRAME XSTACK, 13, STACK
        LOCFRAME IOVERLAY, 0, STATIC
        LOCFRAME DOVERLAY, 0, STATIC
        ARGFRAME ISTACK, 0, STACK
        ARGFRAME PSTACK, 0, STACK
        ARGFRAME XSTACK, 13, STACK
        ARGFRAME IOVERLAY, 0, STATIC
        ARGFRAME DOVERLAY, 0, STATIC
        FUNCALL AT_zclCtrl_REpCtrl_rsp, AT_Uart0_Send
        LOCFRAME ISTACK, 0, STACK
        LOCFRAME PSTACK, 0, STACK
        LOCFRAME XSTACK, 13, STACK
        LOCFRAME IOVERLAY, 0, STATIC
        LOCFRAME DOVERLAY, 0, STATIC
        ARGFRAME ISTACK, 0, STACK
        ARGFRAME PSTACK, 0, STACK
        ARGFRAME XSTACK, 13, STACK
        ARGFRAME IOVERLAY, 0, STATIC
        ARGFRAME DOVERLAY, 0, STATIC
        FUNCALL AT_zclCtrl_REpCtrl_rsp, AT_Uart0_Send
        LOCFRAME ISTACK, 0, STACK
        LOCFRAME PSTACK, 0, STACK
        LOCFRAME XSTACK, 13, STACK
        LOCFRAME IOVERLAY, 0, STATIC
        LOCFRAME DOVERLAY, 0, STATIC
        ARGFRAME ISTACK, 0, STACK
        ARGFRAME PSTACK, 0, STACK
        ARGFRAME XSTACK, 13, STACK
        ARGFRAME IOVERLAY, 0, STATIC
        ARGFRAME DOVERLAY, 0, STATIC
        FUNCALL AT_zclCtrl_REpCtrl_rsp, AT_Uart0_Send
        LOCFRAME ISTACK, 0, STACK
        LOCFRAME PSTACK, 0, STACK
        LOCFRAME XSTACK, 13, STACK
        LOCFRAME IOVERLAY, 0, STATIC
        LOCFRAME DOVERLAY, 0, STATIC
        ARGFRAME ISTACK, 0, STACK
        ARGFRAME PSTACK, 0, STACK
        ARGFRAME XSTACK, 13, STACK
        ARGFRAME IOVERLAY, 0, STATIC
        ARGFRAME DOVERLAY, 0, STATIC
        FUNCALL AT_zclCtrl_REpCtrl_rsp, AT_Int8toChar
        LOCFRAME ISTACK, 0, STACK
        LOCFRAME PSTACK, 0, STACK
        LOCFRAME XSTACK, 13, STACK
        LOCFRAME IOVERLAY, 0, STATIC
        LOCFRAME DOVERLAY, 0, STATIC
        ARGFRAME ISTACK, 0, STACK
        ARGFRAME PSTACK, 0, STACK
        ARGFRAME XSTACK, 13, STACK
        ARGFRAME IOVERLAY, 0, STATIC
        ARGFRAME DOVERLAY, 0, STATIC
        FUNCALL AT_zclCtrl_REpCtrl_rsp, AT_Uart0_Send
        LOCFRAME ISTACK, 0, STACK
        LOCFRAME PSTACK, 0, STACK
        LOCFRAME XSTACK, 13, STACK
        LOCFRAME IOVERLAY, 0, STATIC
        LOCFRAME DOVERLAY, 0, STATIC
        ARGFRAME ISTACK, 0, STACK
        ARGFRAME PSTACK, 0, STACK
        ARGFRAME XSTACK, 13, STACK
        ARGFRAME IOVERLAY, 0, STATIC
        ARGFRAME DOVERLAY, 0, STATIC
        FUNCALL AT_zclCtrl_REpCtrl_rsp, AT_Uart0_Send
        LOCFRAME ISTACK, 0, STACK
        LOCFRAME PSTACK, 0, STACK
        LOCFRAME XSTACK, 13, STACK
        LOCFRAME IOVERLAY, 0, STATIC
        LOCFRAME DOVERLAY, 0, STATIC
        ARGFRAME ISTACK, 0, STACK
        ARGFRAME PSTACK, 0, STACK
        ARGFRAME XSTACK, 13, STACK
        ARGFRAME IOVERLAY, 0, STATIC
        ARGFRAME DOVERLAY, 0, STATIC
        FUNCALL AT_zclCtrl_REpCtrl_rsp, AT_Uart0_Send
        LOCFRAME ISTACK, 0, STACK
        LOCFRAME PSTACK, 0, STACK
        LOCFRAME XSTACK, 13, STACK
        LOCFRAME IOVERLAY, 0, STATIC
        LOCFRAME DOVERLAY, 0, STATIC
        ARGFRAME ISTACK, 0, STACK
        ARGFRAME PSTACK, 0, STACK
        ARGFRAME XSTACK, 13, STACK
        ARGFRAME IOVERLAY, 0, STATIC
        ARGFRAME DOVERLAY, 0, STATIC
        FUNCALL AT_zclCtrl_REpCtrl_rsp, AT_Uart0_Send
        LOCFRAME ISTACK, 0, STACK
        LOCFRAME PSTACK, 0, STACK
        LOCFRAME XSTACK, 13, STACK
        LOCFRAME IOVERLAY, 0, STATIC
        LOCFRAME DOVERLAY, 0, STATIC
        ARGFRAME ISTACK, 0, STACK
        ARGFRAME PSTACK, 0, STACK
        ARGFRAME XSTACK, 13, STACK
        ARGFRAME IOVERLAY, 0, STATIC
        ARGFRAME DOVERLAY, 0, STATIC
        FUNCALL AT_zclCtrl_REpCtrl_rsp, AT_Int8toChar
        LOCFRAME ISTACK, 0, STACK
        LOCFRAME PSTACK, 0, STACK
        LOCFRAME XSTACK, 13, STACK
        LOCFRAME IOVERLAY, 0, STATIC
        LOCFRAME DOVERLAY, 0, STATIC
        ARGFRAME ISTACK, 0, STACK
        ARGFRAME PSTACK, 0, STACK
        ARGFRAME XSTACK, 13, STACK
        ARGFRAME IOVERLAY, 0, STATIC
        ARGFRAME DOVERLAY, 0, STATIC
        FUNCALL AT_zclCtrl_REpCtrl_rsp, AT_Uart0_Send
        LOCFRAME ISTACK, 0, STACK
        LOCFRAME PSTACK, 0, STACK
        LOCFRAME XSTACK, 13, STACK
        LOCFRAME IOVERLAY, 0, STATIC
        LOCFRAME DOVERLAY, 0, STATIC
        ARGFRAME ISTACK, 0, STACK
        ARGFRAME PSTACK, 0, STACK
        ARGFRAME XSTACK, 13, STACK
        ARGFRAME IOVERLAY, 0, STATIC
        ARGFRAME DOVERLAY, 0, STATIC
        FUNCALL AT_zclCtrl_REpCtrl_rsp, AT_Uart0_Send
        LOCFRAME ISTACK, 0, STACK
        LOCFRAME PSTACK, 0, STACK
        LOCFRAME XSTACK, 13, STACK
        LOCFRAME IOVERLAY, 0, STATIC
        LOCFRAME DOVERLAY, 0, STATIC
        ARGFRAME ISTACK, 0, STACK
        ARGFRAME PSTACK, 0, STACK
        ARGFRAME XSTACK, 13, STACK
        ARGFRAME IOVERLAY, 0, STATIC
        ARGFRAME DOVERLAY, 0, STATIC
        FUNCALL AT_zclCtrl_REpCtrl_rsp, AT_Uart0_Send
        LOCFRAME ISTACK, 0, STACK
        LOCFRAME PSTACK, 0, STACK
        LOCFRAME XSTACK, 13, STACK
        LOCFRAME IOVERLAY, 0, STATIC
        LOCFRAME DOVERLAY, 0, STATIC
        ARGFRAME ISTACK, 0, STACK
        ARGFRAME PSTACK, 0, STACK
        ARGFRAME XSTACK, 13, STACK
        ARGFRAME IOVERLAY, 0, STATIC
        ARGFRAME DOVERLAY, 0, STATIC
        FUNCALL AT_zclCtrl_REpCtrl_rsp, AT_Uart0_Send
        LOCFRAME ISTACK, 0, STACK
        LOCFRAME PSTACK, 0, STACK
        LOCFRAME XSTACK, 13, STACK
        LOCFRAME IOVERLAY, 0, STATIC
        LOCFRAME DOVERLAY, 0, STATIC
        ARGFRAME ISTACK, 0, STACK
        ARGFRAME PSTACK, 0, STACK
        ARGFRAME XSTACK, 13, STACK
        ARGFRAME IOVERLAY, 0, STATIC
        ARGFRAME DOVERLAY, 0, STATIC
        FUNCALL AT_zclCtrl_REpCtrl_rsp, AT_Uart0_Send
        LOCFRAME ISTACK, 0, STACK
        LOCFRAME PSTACK, 0, STACK
        LOCFRAME XSTACK, 13, STACK
        LOCFRAME IOVERLAY, 0, STATIC
        LOCFRAME DOVERLAY, 0, STATIC
        ARGFRAME ISTACK, 0, STACK
        ARGFRAME PSTACK, 0, STACK
        ARGFRAME XSTACK, 13, STACK
        ARGFRAME IOVERLAY, 0, STATIC
        ARGFRAME DOVERLAY, 0, STATIC
        FUNCALL AT_zclCtrl_REpCtrl_rsp, AT_Uart0_Send
        LOCFRAME ISTACK, 0, STACK
        LOCFRAME PSTACK, 0, STACK
        LOCFRAME XSTACK, 13, STACK
        LOCFRAME IOVERLAY, 0, STATIC
        LOCFRAME DOVERLAY, 0, STATIC
        ARGFRAME ISTACK, 0, STACK
        ARGFRAME PSTACK, 0, STACK
        ARGFRAME XSTACK, 13, STACK
        ARGFRAME IOVERLAY, 0, STATIC
        ARGFRAME DOVERLAY, 0, STATIC
        REQUIRE ?V0
        REQUIRE ?V1
        MOV       A,#-0xa
        LCALL     ?BANKED_ENTER_XDATA
          CFI DPH0 load(1, XDATA, add(CFA_XSP16, literal(-1)))
          CFI DPL0 load(1, XDATA, add(CFA_XSP16, literal(-2)))
          CFI ?BRET_EXT load(1, XDATA, add(CFA_XSP16, literal(-3)))
          CFI ?RET_HIGH load(1, XDATA, add(CFA_XSP16, literal(-4)))
          CFI ?RET_LOW load(1, XDATA, add(CFA_XSP16, literal(-5)))
          CFI R7 load(1, XDATA, add(CFA_XSP16, literal(-6)))
          CFI V1 load(1, XDATA, add(CFA_XSP16, literal(-7)))
          CFI V0 load(1, XDATA, add(CFA_XSP16, literal(-8)))
          CFI VB load(1, XDATA, add(CFA_XSP16, literal(-9)))
          CFI R6 load(1, XDATA, add(CFA_XSP16, literal(-10)))
          CFI CFA_SP SP+0
          CFI CFA_XSP16 add(XSP16, 10)
        ; Saved register size: 10
        ; Auto size: 3
        MOV       A,#-0x3
        LCALL     ?ALLOC_XSTACK8
          CFI CFA_XSP16 add(XSP16, 13)
//  324   EPCtrlCmd_rsp *epCtrlCmd_rsp = (EPCtrlCmd_rsp*) &(pkt->cmd.Data[1]);
        LCALL     ?Subroutine45 & 0xFFFF
??CrossCallReturnLabel_82:
        MOVX      A,@DPTR
        ADD       A,#0x1
        MOV       R0,A
        INC       DPTR
        MOVX      A,@DPTR
        ADDC      A,#0x0
        MOV       DPL,R0
        MOV       DPH,A
//  325 
//  326   uint8 ep     = epCtrlCmd_rsp->ep;
        MOVX      A,@DPTR
        MOV       ?V0,A
//  327   uint8 status = epCtrlCmd_rsp->status;
        INC       DPTR
        MOVX      A,@DPTR
        MOV       ?V1,A
//  328 
//  329   uint8 str[3];
//  330   AT_NEW_LINE();
        ; Setup parameters for call to function AT_Uart0_Send
        MOV       R4,#0x2
        MOV       R5,#0x0
        MOV       R2,#`?<Constant "\\r\\n">` & 0xff
        MOV       R3,#(`?<Constant "\\r\\n">` >> 8) & 0xff
        LCALL     `??AT_Uart0_Send::?relay`; Banked call to: AT_Uart0_Send
//  331   AT_RESP("REMOTE RESPONSE:", 16);
        ; Setup parameters for call to function AT_Uart0_Send
        MOV       R4,#0x10
        MOV       R5,#0x0
        MOV       R2,#`?<Constant "REMOTE RESPONSE:">` & 0xff
        MOV       R3,#(`?<Constant "REMOTE RESPONSE:">` >> 8) & 0xff
        LCALL     `??AT_Uart0_Send::?relay`; Banked call to: AT_Uart0_Send
//  332   if (status == EndpointEnabled) {
        MOV       A,#0x1
        XRL       A,?V1
        JNZ       ??AT_zclCtrl_REpCtrl_rsp_0
//  333     AT_NEW_LINE();
        ; Setup parameters for call to function AT_Uart0_Send
        MOV       R4,#0x2
        MOV       R5,#0x0
        MOV       R2,#`?<Constant "\\r\\n">` & 0xff
        MOV       R3,#(`?<Constant "\\r\\n">` >> 8) & 0xff
        LCALL     `??AT_Uart0_Send::?relay`; Banked call to: AT_Uart0_Send
//  334     AT_RESP("ENABLED:", sizeof("ENABLED:")-1);
        ; Setup parameters for call to function AT_Uart0_Send
        MOV       R4,#0x8
        MOV       R5,#0x0
        MOV       R2,#`?<Constant "ENABLED:">` & 0xff
        MOV       R3,#(`?<Constant "ENABLED:">` >> 8) & 0xff
        SJMP      ??AT_zclCtrl_REpCtrl_rsp_1
//  335     AT_Int8toChar(ep, str);
//  336     AT_RESP(str, 2);
//  337     AT_NEW_LINE();
//  338   } else if (status == EndpointDisabled) {
??AT_zclCtrl_REpCtrl_rsp_0:
        MOV       A,?V1
        JNZ       ??AT_zclCtrl_REpCtrl_rsp_2
//  339     AT_NEW_LINE();
        ; Setup parameters for call to function AT_Uart0_Send
        MOV       R4,#0x2
        MOV       R5,#0x0
        MOV       R2,#`?<Constant "\\r\\n">` & 0xff
        MOV       R3,#(`?<Constant "\\r\\n">` >> 8) & 0xff
        LCALL     `??AT_Uart0_Send::?relay`; Banked call to: AT_Uart0_Send
//  340     AT_RESP("DISABLED:", sizeof("DISABLED:")-1);
        ; Setup parameters for call to function AT_Uart0_Send
        MOV       R4,#0x9
        MOV       R5,#0x0
        MOV       R2,#`?<Constant "DISABLED:">` & 0xff
        MOV       R3,#(`?<Constant "DISABLED:">` >> 8) & 0xff
??AT_zclCtrl_REpCtrl_rsp_1:
        LCALL     `??AT_Uart0_Send::?relay`; Banked call to: AT_Uart0_Send
//  341     AT_Int8toChar(ep, str);
        ; Setup parameters for call to function AT_Int8toChar
        MOV       R2,?XSP + 0
        MOV       R3,?XSP + 1
        MOV       R1,?V0
        LCALL     ?Subroutine55 & 0xFFFF
//  342     AT_RESP(str, 2);
//  343     AT_NEW_LINE();
//  344   } else if (status == EndpointUnknown) {
??CrossCallReturnLabel_99:
        SJMP      ??AT_zclCtrl_REpCtrl_rsp_3
??AT_zclCtrl_REpCtrl_rsp_2:
        MOV       A,#0x2
        XRL       A,?V1
        JNZ       ??CrossCallReturnLabel_54
//  345     AT_NEW_LINE();
        ; Setup parameters for call to function AT_Uart0_Send
        MOV       R4,#0x2
        MOV       R5,#0x0
        MOV       R2,#`?<Constant "\\r\\n">` & 0xff
        MOV       R3,#(`?<Constant "\\r\\n">` >> 8) & 0xff
        LCALL     `??AT_Uart0_Send::?relay`; Banked call to: AT_Uart0_Send
//  346     AT_RESP("UNKNOWNEP ERROR", sizeof("UNKNOWNEP ERROR")-1);
        ; Setup parameters for call to function AT_Uart0_Send
        MOV       R4,#0xf
        MOV       R5,#0x0
        MOV       R2,#`?<Constant "UNKNOWNEP ERROR">` & 0xff
        MOV       R3,#(`?<Constant "UNKNOWNEP ERROR">` >> 8) & 0xff
//  347     AT_NEW_LINE();
//  348   }
??AT_zclCtrl_REpCtrl_rsp_3:
        LCALL     ?Subroutine33 & 0xFFFF
//  349   AT_OK();
??CrossCallReturnLabel_54:
        ; Setup parameters for call to function AT_Uart0_Send
        MOV       R4,#0x6
        MOV       R5,#0x0
        MOV       R2,#`?<Constant "\\r\\nOK\\r\\n">` & 0xff
        MOV       R3,#(`?<Constant "\\r\\nOK\\r\\n">` >> 8) & 0xff
        LCALL     `??AT_Uart0_Send::?relay`; Banked call to: AT_Uart0_Send
//  350 }
        MOV       A,#0x3
        LCALL     ?DEALLOC_XSTACK8
          CFI CFA_XSP16 add(XSP16, 10)
        LJMP      ?Subroutine2 & 0xFFFF
          CFI EndBlock cfiBlock28

        RSEG BANKED_CODE:HUGECODE:NOROOT(0)
?Subroutine45:
          CFI Block cfiCond29 Using cfiCommon0
          CFI Function ATApp_MessageMSGCB
          CFI Conditional ??CrossCallReturnLabel_83, ??CrossCallReturnLabel_36
          CFI R6 load(1, XDATA, add(CFA_XSP16, literal(-10)))
          CFI VB load(1, XDATA, add(CFA_XSP16, literal(-9)))
          CFI V0 load(1, XDATA, add(CFA_XSP16, literal(-8)))
          CFI V1 load(1, XDATA, add(CFA_XSP16, literal(-7)))
          CFI R7 load(1, XDATA, add(CFA_XSP16, literal(-6)))
          CFI ?RET_LOW load(1, XDATA, add(CFA_XSP16, literal(-5)))
          CFI ?RET_HIGH load(1, XDATA, add(CFA_XSP16, literal(-4)))
          CFI ?BRET_EXT load(1, XDATA, add(CFA_XSP16, literal(-3)))
          CFI DPL0 load(1, XDATA, add(CFA_XSP16, literal(-2)))
          CFI DPH0 load(1, XDATA, add(CFA_XSP16, literal(-1)))
          CFI CFA_SP SP+-4
          CFI CFA_XSP16 add(XSP16, 10)
          CFI Block cfiCond30 Using cfiCommon0
          CFI (cfiCond30) Function ATApp_MessageMSGCB
          CFI (cfiCond30) Conditional ??CrossCallReturnLabel_83, ??CrossCallReturnLabel_37
          CFI (cfiCond30) R6 load(1, XDATA, add(CFA_XSP16, literal(-10)))
          CFI (cfiCond30) VB load(1, XDATA, add(CFA_XSP16, literal(-9)))
          CFI (cfiCond30) V0 load(1, XDATA, add(CFA_XSP16, literal(-8)))
          CFI (cfiCond30) V1 load(1, XDATA, add(CFA_XSP16, literal(-7)))
          CFI (cfiCond30) R7 load(1, XDATA, add(CFA_XSP16, literal(-6)))
          CFI (cfiCond30) ?RET_LOW load(1, XDATA, add(CFA_XSP16, literal(-5)))
          CFI (cfiCond30) ?RET_HIGH load(1, XDATA, add(CFA_XSP16, literal(-4)))
          CFI (cfiCond30) ?BRET_EXT load(1, XDATA, add(CFA_XSP16, literal(-3)))
          CFI (cfiCond30) DPL0 load(1, XDATA, add(CFA_XSP16, literal(-2)))
          CFI (cfiCond30) DPH0 load(1, XDATA, add(CFA_XSP16, literal(-1)))
          CFI (cfiCond30) CFA_SP SP+-4
          CFI (cfiCond30) CFA_XSP16 add(XSP16, 10)
          CFI Block cfiCond31 Using cfiCommon0
          CFI (cfiCond31) Function AT_zclCtrl_REpCtrl_rsp
          CFI (cfiCond31) Conditional ??CrossCallReturnLabel_82
          CFI (cfiCond31) R6 load(1, XDATA, add(CFA_XSP16, literal(-10)))
          CFI (cfiCond31) VB load(1, XDATA, add(CFA_XSP16, literal(-9)))
          CFI (cfiCond31) V0 load(1, XDATA, add(CFA_XSP16, literal(-8)))
          CFI (cfiCond31) V1 load(1, XDATA, add(CFA_XSP16, literal(-7)))
          CFI (cfiCond31) R7 load(1, XDATA, add(CFA_XSP16, literal(-6)))
          CFI (cfiCond31) ?RET_LOW load(1, XDATA, add(CFA_XSP16, literal(-5)))
          CFI (cfiCond31) ?RET_HIGH load(1, XDATA, add(CFA_XSP16, literal(-4)))
          CFI (cfiCond31) ?BRET_EXT load(1, XDATA, add(CFA_XSP16, literal(-3)))
          CFI (cfiCond31) DPL0 load(1, XDATA, add(CFA_XSP16, literal(-2)))
          CFI (cfiCond31) DPH0 load(1, XDATA, add(CFA_XSP16, literal(-1)))
          CFI (cfiCond31) CFA_SP SP+-2
          CFI (cfiCond31) CFA_XSP16 add(XSP16, 13)
          CFI Block cfiPicker32 Using cfiCommon1
          CFI (cfiPicker32) NoFunction
          CFI (cfiPicker32) Picker
        MOV       A,R2
        ADD       A,#0x22
        MOV       DPL,A
        CLR       A
        ADDC      A,R3
        MOV       DPH,A
        RET
          CFI EndBlock cfiCond29
          CFI EndBlock cfiCond30
          CFI EndBlock cfiCond31
          CFI EndBlock cfiPicker32
//  351 
//  352 /*****************************************************************************
//  353 * @fn      AT_ATF_Cmd_req
//  354 *
//  355 * @brief   processing remote ATF command incoming request messages
//  356 *
//  357 * @param   pkt - incoming message
//  358 *
//  359 * @return  None
//  360 *****************************************************************************/
//  361 void AT_ATF_Cmd_req( afIncomingMSGPacket_t *pkt )
//  362 {
//  363   // AT_clear_AT_SYSTEM_NVs(); if Application use NV, we need to define this function
//  364   bdb_resetLocalAction();
//  365 }
//  366 
//  367 /*********************************************************************
//  368  * @fn      zclCtrlCalcHdrSize
//  369  *
//  370  * @brief   Calculate the number of bytes needed for an outgoing
//  371  *          ZCL header.
//  372  *
//  373  * @param   hdr - outgoing header information
//  374  *
//  375  * @return  returns the number of bytes needed
//  376  ***********************************************************************/
//  377 static uint8 zclCtrlCalcHdrSize( ZCLCtrlCmd_hdr *hdr )
//  378 {
//  379   uint8 needed = sizeof(uint8);
//  380 
//  381   return needed;
//  382 }
//  383 
//  384 /*********************************************************************
//  385  * @fn      zclCtrlBuildHdr
//  386  *
//  387  * @brief   Build header of the ZCL format
//  388  *
//  389  * @param   hdr - outgoing header information
//  390  * @param   pData - outgoing header space
//  391  *
//  392  * @return  pointer past the header
//  393  ***********************************************************************/
//  394 static uint8* zclCtrlBuildHdr( ZCLCtrlCmd_hdr *hdr, uint8 *pData )
//  395 {
//  396   // Add the command ID
//  397   *pData++ = hdr->cmd;
//  398 
//  399   // Should point to the frame payload
//  400   return ( pData );
//  401 }
//  402 
//  403 /******************************************************************************
//  404  * @fn      AT_SendCmd
//  405  *
//  406  * @brief   Used to send zcl control Command messages.
//  407  *
//  408  * @param   srcEp - source endpoint
//  409  * @param   destAddr - destination address
//  410  * @param   clusterID - cluster ID
//  411  * @param   cmd - command ID
//  412  * @param   cmdFormatLen - length of the command to be sent
//  413  * @param   cmdFormat - command to be sent
//  414  *
//  415  * @return  ZCL_CTRL_SUCCESS
//  416  ******************************************************************************/

        RSEG BANKED_CODE:HUGECODE:NOROOT(0)
//  417 uint8 AT_SendCmd( uint8 srcEP, afAddrType_t *destAddr,
AT_SendCmd:
          CFI Block cfiBlock33 Using cfiCommon0
          CFI Function AT_SendCmd
        CODE
//  418                            uint16 clusterID, uint8 cmd,
//  419                            uint16 cmdFormatLen, uint8 *cmdFormat )
//  420 {
        FUNCALL AT_SendCmd, afFindEndPointDesc
        LOCFRAME ISTACK, 0, STACK
        LOCFRAME PSTACK, 0, STACK
        LOCFRAME XSTACK, 22, STACK
        LOCFRAME IOVERLAY, 0, STATIC
        LOCFRAME DOVERLAY, 0, STATIC
        ARGFRAME ISTACK, 0, STACK
        ARGFRAME PSTACK, 0, STACK
        ARGFRAME XSTACK, 22, STACK
        ARGFRAME IOVERLAY, 0, STATIC
        ARGFRAME DOVERLAY, 0, STATIC
        FUNCALL AT_SendCmd, osal_mem_alloc
        LOCFRAME ISTACK, 0, STACK
        LOCFRAME PSTACK, 0, STACK
        LOCFRAME XSTACK, 22, STACK
        LOCFRAME IOVERLAY, 0, STATIC
        LOCFRAME DOVERLAY, 0, STATIC
        ARGFRAME ISTACK, 0, STACK
        ARGFRAME PSTACK, 0, STACK
        ARGFRAME XSTACK, 22, STACK
        ARGFRAME IOVERLAY, 0, STATIC
        ARGFRAME DOVERLAY, 0, STATIC
        FUNCALL AT_SendCmd, osal_memcpy
        LOCFRAME ISTACK, 0, STACK
        LOCFRAME PSTACK, 0, STACK
        LOCFRAME XSTACK, 25, STACK
        LOCFRAME IOVERLAY, 0, STATIC
        LOCFRAME DOVERLAY, 0, STATIC
        ARGFRAME ISTACK, 0, STACK
        ARGFRAME PSTACK, 0, STACK
        ARGFRAME XSTACK, 25, STACK
        ARGFRAME IOVERLAY, 0, STATIC
        ARGFRAME DOVERLAY, 0, STATIC
        FUNCALL AT_SendCmd, AF_DataRequest
        LOCFRAME ISTACK, 0, STACK
        LOCFRAME PSTACK, 0, STACK
        LOCFRAME XSTACK, 31, STACK
        LOCFRAME IOVERLAY, 0, STATIC
        LOCFRAME DOVERLAY, 0, STATIC
        ARGFRAME ISTACK, 0, STACK
        ARGFRAME PSTACK, 0, STACK
        ARGFRAME XSTACK, 31, STACK
        ARGFRAME IOVERLAY, 0, STATIC
        ARGFRAME DOVERLAY, 0, STATIC
        FUNCALL AT_SendCmd, osal_mem_free
        LOCFRAME ISTACK, 0, STACK
        LOCFRAME PSTACK, 0, STACK
        LOCFRAME XSTACK, 22, STACK
        LOCFRAME IOVERLAY, 0, STATIC
        LOCFRAME DOVERLAY, 0, STATIC
        ARGFRAME ISTACK, 0, STACK
        ARGFRAME PSTACK, 0, STACK
        ARGFRAME XSTACK, 22, STACK
        ARGFRAME IOVERLAY, 0, STATIC
        ARGFRAME DOVERLAY, 0, STATIC
        REQUIRE ?V0
        REQUIRE ?V1
        REQUIRE ?V2
        REQUIRE ?V3
        REQUIRE ?V4
        REQUIRE ?V5
        REQUIRE ?V6
        REQUIRE ?V7
        REQUIRE ?V8
        REQUIRE ?V9
        REQUIRE ?V10
        REQUIRE ?V11
        REQUIRE ?V12
        REQUIRE ?V13
        MOV       A,#-0x16
        LCALL     ?BANKED_ENTER_XDATA
          CFI DPH0 load(1, XDATA, add(CFA_XSP16, literal(-1)))
          CFI DPL0 load(1, XDATA, add(CFA_XSP16, literal(-2)))
          CFI ?BRET_EXT load(1, XDATA, add(CFA_XSP16, literal(-3)))
          CFI ?RET_HIGH load(1, XDATA, add(CFA_XSP16, literal(-4)))
          CFI ?RET_LOW load(1, XDATA, add(CFA_XSP16, literal(-5)))
          CFI R7 load(1, XDATA, add(CFA_XSP16, literal(-6)))
          CFI V13 load(1, XDATA, add(CFA_XSP16, literal(-7)))
          CFI V12 load(1, XDATA, add(CFA_XSP16, literal(-8)))
          CFI V11 load(1, XDATA, add(CFA_XSP16, literal(-9)))
          CFI V10 load(1, XDATA, add(CFA_XSP16, literal(-10)))
          CFI V9 load(1, XDATA, add(CFA_XSP16, literal(-11)))
          CFI V8 load(1, XDATA, add(CFA_XSP16, literal(-12)))
          CFI V7 load(1, XDATA, add(CFA_XSP16, literal(-13)))
          CFI V6 load(1, XDATA, add(CFA_XSP16, literal(-14)))
          CFI V5 load(1, XDATA, add(CFA_XSP16, literal(-15)))
          CFI V4 load(1, XDATA, add(CFA_XSP16, literal(-16)))
          CFI V3 load(1, XDATA, add(CFA_XSP16, literal(-17)))
          CFI V2 load(1, XDATA, add(CFA_XSP16, literal(-18)))
          CFI V1 load(1, XDATA, add(CFA_XSP16, literal(-19)))
          CFI V0 load(1, XDATA, add(CFA_XSP16, literal(-20)))
          CFI VB load(1, XDATA, add(CFA_XSP16, literal(-21)))
          CFI R6 load(1, XDATA, add(CFA_XSP16, literal(-22)))
          CFI CFA_SP SP+0
          CFI CFA_XSP16 add(XSP16, 22)
        ; Saved register size: 22
        ; Auto size: 0
        MOV       ?V12,R2
        MOV       ?V13,R3
        MOV       ?V2,R4
        MOV       ?V3,R5
//  421   endPointDesc_t *epDesc;
//  422   ZCLCtrlCmd_hdr hdr;
//  423   uint8 *msgBuf;
//  424   uint16 msgLen;
//  425   uint8 *pBuf;
//  426   uint8 status;
//  427 
//  428   epDesc = afFindEndPointDesc( srcEP );
        ; Setup parameters for call to function afFindEndPointDesc
        LCALL     `??afFindEndPointDesc::?relay`; Banked call to: afFindEndPointDesc
        MOV       ?V10,R2
        MOV       ?V11,R3
//  429   if ( epDesc == NULL )
        MOV       A,R2
        ORL       A,R3
        JNZ       ??AT_SendCmd_0
//  430   {
//  431    return ( ZCL_CTRLCmd_ParaError ); // EMBEDDED RETURN
        MOV       R1,#0x2
        LJMP      ??AT_SendCmd_1 & 0xFFFF
//  432   }
??AT_SendCmd_0:
        MOV       A,#0x17
        LCALL     ?XSTACK_DISP0_8
        LCALL     ??Subroutine58_0 & 0xFFFF
//  433 
//  434   // build hdr
//  435   hdr.cmd = cmd;
//  436 
//  437   // calculate the buffer size
//  438   msgLen = zclCtrlCalcHdrSize( &hdr );
//  439   msgLen += cmdFormatLen;
??CrossCallReturnLabel_109:
        MOV       A,?V8
        ADD       A,#0x1
        MOV       R6,A
        CLR       A
        ADDC      A,?V9
        MOV       R7,A
//  440 
//  441   // allocate the buffer needed
//  442   msgBuf = osal_mem_alloc(msgLen);
        ; Setup parameters for call to function osal_mem_alloc
        MOV       A,R6
        MOV       R2,A
        MOV       A,R7
        MOV       R3,A
        LCALL     `??osal_mem_alloc::?relay`; Banked call to: osal_mem_alloc
        MOV       ?V0,R2
        MOV       ?V1,R3
//  443   if ( msgBuf != NULL ) {
        MOV       A,R2
        ORL       A,R3
        JZ        ??AT_SendCmd_2
//  444     // fill in the ZCL Header
//  445     pBuf = zclCtrlBuildHdr(&hdr, msgBuf);
        MOV       A,#0x16
        LCALL     ?XSTACK_DISP0_8
        MOVX      A,@DPTR
        MOV       DPL,R2
        MOV       DPH,R3
        MOVX      @DPTR,A
        INC       DPTR
        MOV       R2,DPL
        MOV       R3,DPH
//  446 
//  447     // Fill in the command frame
//  448     osal_memcpy( pBuf, cmdFormat, cmdFormatLen );
        ; Setup parameters for call to function osal_memcpy
        MOV       A,#0x19
        LCALL     ?XSTACK_DISP0_8
        MOVX      A,@DPTR
        MOV       ?V4,A
        INC       DPTR
        MOVX      A,@DPTR
        MOV       ?V5,A
        MOV       ?V6,#0x0
        MOV       R0,#?V4
        LCALL     ?PUSH_XSTACK_I_THREE
          CFI CFA_XSP16 add(XSP16, 25)
        MOV       R4,?V8
        MOV       R5,?V9
        LCALL     `??osal_memcpy::?relay`; Banked call to: osal_memcpy
        MOV       A,#0x3
        LCALL     ?DEALLOC_XSTACK8
          CFI CFA_XSP16 add(XSP16, 22)
//  449 
//  450     status = AF_DataRequest( destAddr, epDesc, clusterID, msgLen, msgBuf,
//  451                           &zclCtrl_TransID, AF_DISCV_ROUTE, AF_DEFAULT_RADIUS );
        ; Setup parameters for call to function AF_DataRequest
        MOV       ?V4,#0x1e
        MOV       R0,#?V4
        LCALL     ?PUSH_XSTACK_I_ONE
          CFI CFA_XSP16 add(XSP16, 23)
        MOV       ?V4,#zclCtrl_TransID & 0xff
        MOV       ?V5,#(zclCtrl_TransID >> 8) & 0xff
        MOV       R0,#?V4
        LCALL     ?PUSH_XSTACK_I_TWO
          CFI CFA_XSP16 add(XSP16, 25)
        MOV       R0,#?V0
        LCALL     ?PUSH_XSTACK_I_TWO
          CFI CFA_XSP16 add(XSP16, 27)
        MOV       ?V4,R6
        MOV       ?V5,R7
        MOV       R0,#?V4
        LCALL     ?PUSH_XSTACK_I_TWO
          CFI CFA_XSP16 add(XSP16, 29)
        MOV       R0,#?V2
        LCALL     ?PUSH_XSTACK_I_TWO
          CFI CFA_XSP16 add(XSP16, 31)
        MOV       R1,#0x0
        MOV       R4,?V10
        MOV       R5,?V11
        MOV       R2,?V12
        MOV       R3,?V13
        LCALL     `??AF_DataRequest::?relay`; Banked call to: AF_DataRequest
        MOV       A,#0x9
        LCALL     ?DEALLOC_XSTACK8
          CFI CFA_XSP16 add(XSP16, 22)
        MOV       A,R1
        MOV       R6,A
//  452     osal_mem_free ( msgBuf );
        ; Setup parameters for call to function osal_mem_free
        MOV       R2,?V0
        MOV       R3,?V1
        LCALL     `??osal_mem_free::?relay`; Banked call to: osal_mem_free
        SJMP      ??AT_SendCmd_3
//  453   } else {
//  454     status = ZCL_CTRLCmd_MemError;
??AT_SendCmd_2:
        MOV       R6,#0x1
//  455   }
//  456 
//  457   return status;
??AT_SendCmd_3:
        MOV       A,R6
        MOV       R1,A
??AT_SendCmd_1:
        LJMP      ??Subroutine59_0 & 0xFFFF
//  458 }
          CFI EndBlock cfiBlock33
//  459 
//  460 /*****************************************************************************
//  461  * @fn      AT_SendEPCtrl
//  462  *
//  463  * @brief   Send remote endPoint control command
//  464  *
//  465  * @param   srcEP - Application's endpoint
//  466  * @param   dstAddr - destination address
//  467  * @param   clusterID - cluster ID
//  468  * @param   epCtrlCmd - endPoint control command to be sent
//  469  *
//  470  * @return  status
//  471  *****************************************************************************/

        RSEG BANKED_CODE:HUGECODE:NOROOT(0)
//  472 uint8 AT_SendEPCtrl(uint8 srcEP, afAddrType_t *dstAddr, uint16 clusterID, EPCtrlCmd_t *epCtrlCmd)
AT_SendEPCtrl:
          CFI Block cfiBlock34 Using cfiCommon0
          CFI Function AT_SendEPCtrl
        CODE
//  473 {
        FUNCALL AT_SendEPCtrl, osal_mem_alloc
        LOCFRAME ISTACK, 0, STACK
        LOCFRAME PSTACK, 0, STACK
        LOCFRAME XSTACK, 16, STACK
        LOCFRAME IOVERLAY, 0, STATIC
        LOCFRAME DOVERLAY, 0, STATIC
        ARGFRAME ISTACK, 0, STACK
        ARGFRAME PSTACK, 0, STACK
        ARGFRAME XSTACK, 16, STACK
        ARGFRAME IOVERLAY, 0, STATIC
        ARGFRAME DOVERLAY, 0, STATIC
        FUNCALL AT_SendEPCtrl, AT_SendCmd
        LOCFRAME ISTACK, 0, STACK
        LOCFRAME PSTACK, 0, STACK
        LOCFRAME XSTACK, 21, STACK
        LOCFRAME IOVERLAY, 0, STATIC
        LOCFRAME DOVERLAY, 0, STATIC
        ARGFRAME ISTACK, 0, STACK
        ARGFRAME PSTACK, 0, STACK
        ARGFRAME XSTACK, 21, STACK
        ARGFRAME IOVERLAY, 0, STATIC
        ARGFRAME DOVERLAY, 0, STATIC
        FUNCALL AT_SendEPCtrl, osal_mem_free
        LOCFRAME ISTACK, 0, STACK
        LOCFRAME PSTACK, 0, STACK
        LOCFRAME XSTACK, 16, STACK
        LOCFRAME IOVERLAY, 0, STATIC
        LOCFRAME DOVERLAY, 0, STATIC
        ARGFRAME ISTACK, 0, STACK
        ARGFRAME PSTACK, 0, STACK
        ARGFRAME XSTACK, 16, STACK
        ARGFRAME IOVERLAY, 0, STATIC
        ARGFRAME DOVERLAY, 0, STATIC
        REQUIRE ?V0
        REQUIRE ?V1
        REQUIRE ?V2
        REQUIRE ?V3
        REQUIRE ?V4
        REQUIRE ?V5
        REQUIRE ?V6
        REQUIRE ?V7
        MOV       A,#-0x10
        LCALL     ?BANKED_ENTER_XDATA
          CFI DPH0 load(1, XDATA, add(CFA_XSP16, literal(-1)))
          CFI DPL0 load(1, XDATA, add(CFA_XSP16, literal(-2)))
          CFI ?BRET_EXT load(1, XDATA, add(CFA_XSP16, literal(-3)))
          CFI ?RET_HIGH load(1, XDATA, add(CFA_XSP16, literal(-4)))
          CFI ?RET_LOW load(1, XDATA, add(CFA_XSP16, literal(-5)))
          CFI R7 load(1, XDATA, add(CFA_XSP16, literal(-6)))
          CFI V7 load(1, XDATA, add(CFA_XSP16, literal(-7)))
          CFI V6 load(1, XDATA, add(CFA_XSP16, literal(-8)))
          CFI V5 load(1, XDATA, add(CFA_XSP16, literal(-9)))
          CFI V4 load(1, XDATA, add(CFA_XSP16, literal(-10)))
          CFI V3 load(1, XDATA, add(CFA_XSP16, literal(-11)))
          CFI V2 load(1, XDATA, add(CFA_XSP16, literal(-12)))
          CFI V1 load(1, XDATA, add(CFA_XSP16, literal(-13)))
          CFI V0 load(1, XDATA, add(CFA_XSP16, literal(-14)))
          CFI VB load(1, XDATA, add(CFA_XSP16, literal(-15)))
          CFI R6 load(1, XDATA, add(CFA_XSP16, literal(-16)))
          CFI CFA_SP SP+0
          CFI CFA_XSP16 add(XSP16, 16)
        ; Saved register size: 16
        ; Auto size: 0
        LCALL     ?Subroutine29 & 0xFFFF
//  474   uint16 dataLen;
//  475   uint8 *buf;
//  476   uint8 *pBuf;
//  477   uint8 status;
//  478 
//  479   dataLen = sizeof(EPCtrlCmd_t);
//  480 
//  481   buf = osal_mem_alloc( dataLen );
//  482   if ( buf != NULL )
??CrossCallReturnLabel_42:
        JZ        ??AT_SendEPCtrl_0
        MOV       A,#0x10
        LCALL     ?XSTACK_DISP0_8
        LCALL     ?Subroutine12 & 0xFFFF
//  483   {
//  484     // Load the buffer - serially
//  485     pBuf = buf;
//  486     *pBuf++ = epCtrlCmd->ep;
//  487     *pBuf   = epCtrlCmd->isEnable;
//  488 
//  489     status = AT_SendCmd( srcEP, dstAddr, clusterID,
//  490                               ZCL_EPCtrl_Cmd_req, dataLen, buf );
??CrossCallReturnLabel_10:
        LCALL     ?PUSH_XSTACK_I_TWO
          CFI CFA_XSP16 add(XSP16, 18)
        MOV       ?V6,#0x2
        MOV       ?V7,#0x0
        MOV       R0,#?V6
        LCALL     ?PUSH_XSTACK_I_TWO
          CFI CFA_XSP16 add(XSP16, 20)
        MOV       ?V3,#0x1
        MOV       R0,#?V3
        LCALL     ?PUSH_XSTACK_I_ONE
          CFI CFA_XSP16 add(XSP16, 21)
        MOV       R4,?V0
        MOV       R5,?V1
        MOV       A,R6
        MOV       R2,A
        MOV       A,R7
        MOV       R3,A
        MOV       R1,?V2
        LCALL     `??AT_SendCmd::?relay`; Banked call to: AT_SendCmd
        MOV       A,#0x5
        LCALL     ?DEALLOC_XSTACK8
          CFI CFA_XSP16 add(XSP16, 16)
        MOV       A,R1
        MOV       R6,A
//  491     osal_mem_free( buf );
        ; Setup parameters for call to function osal_mem_free
        MOV       R2,?V4
        MOV       R3,?V5
        LCALL     `??osal_mem_free::?relay`; Banked call to: osal_mem_free
        SJMP      ??AT_SendEPCtrl_1
//  492   }
//  493   else
//  494   {
//  495     status = ZCL_CTRLCmd_MemError;
??AT_SendEPCtrl_0:
        MOV       R6,#0x1
//  496   }
//  497 
//  498   return ( status );
??AT_SendEPCtrl_1:
          CFI EndBlock cfiBlock34
        REQUIRE ?Subroutine4
        ; // Fall through to label ?Subroutine4
//  499 }

        RSEG BANKED_CODE:HUGECODE:NOROOT(0)
?Subroutine4:
          CFI Block cfiBlock35 Using cfiCommon0
          CFI NoFunction
          CFI CFA_SP SP+0
          CFI CFA_XSP16 add(XSP16, 16)
          CFI VB load(1, XDATA, add(CFA_XSP16, literal(-15)))
          CFI DPL0 load(1, XDATA, add(CFA_XSP16, literal(-2)))
          CFI DPH0 load(1, XDATA, add(CFA_XSP16, literal(-1)))
          CFI R6 load(1, XDATA, add(CFA_XSP16, literal(-16)))
          CFI R7 load(1, XDATA, add(CFA_XSP16, literal(-6)))
          CFI V0 load(1, XDATA, add(CFA_XSP16, literal(-14)))
          CFI V1 load(1, XDATA, add(CFA_XSP16, literal(-13)))
          CFI V2 load(1, XDATA, add(CFA_XSP16, literal(-12)))
          CFI V3 load(1, XDATA, add(CFA_XSP16, literal(-11)))
          CFI V4 load(1, XDATA, add(CFA_XSP16, literal(-10)))
          CFI V5 load(1, XDATA, add(CFA_XSP16, literal(-9)))
          CFI V6 load(1, XDATA, add(CFA_XSP16, literal(-8)))
          CFI V7 load(1, XDATA, add(CFA_XSP16, literal(-7)))
          CFI ?BRET_EXT load(1, XDATA, add(CFA_XSP16, literal(-3)))
          CFI ?RET_HIGH load(1, XDATA, add(CFA_XSP16, literal(-4)))
          CFI ?RET_LOW load(1, XDATA, add(CFA_XSP16, literal(-5)))
        MOV       A,R6
        MOV       R1,A
          CFI EndBlock cfiBlock35
        REQUIRE ??Subroutine57_0
        ; // Fall through to label ??Subroutine57_0

        RSEG BANKED_CODE:HUGECODE:NOROOT(0)
??Subroutine57_0:
          CFI Block cfiBlock36 Using cfiCommon0
          CFI NoFunction
          CFI CFA_SP SP+0
          CFI CFA_XSP16 add(XSP16, 16)
          CFI VB load(1, XDATA, add(CFA_XSP16, literal(-15)))
          CFI DPL0 load(1, XDATA, add(CFA_XSP16, literal(-2)))
          CFI DPH0 load(1, XDATA, add(CFA_XSP16, literal(-1)))
          CFI R6 load(1, XDATA, add(CFA_XSP16, literal(-16)))
          CFI R7 load(1, XDATA, add(CFA_XSP16, literal(-6)))
          CFI V0 load(1, XDATA, add(CFA_XSP16, literal(-14)))
          CFI V1 load(1, XDATA, add(CFA_XSP16, literal(-13)))
          CFI V2 load(1, XDATA, add(CFA_XSP16, literal(-12)))
          CFI V3 load(1, XDATA, add(CFA_XSP16, literal(-11)))
          CFI V4 load(1, XDATA, add(CFA_XSP16, literal(-10)))
          CFI V5 load(1, XDATA, add(CFA_XSP16, literal(-9)))
          CFI V6 load(1, XDATA, add(CFA_XSP16, literal(-8)))
          CFI V7 load(1, XDATA, add(CFA_XSP16, literal(-7)))
          CFI ?BRET_EXT load(1, XDATA, add(CFA_XSP16, literal(-3)))
          CFI ?RET_HIGH load(1, XDATA, add(CFA_XSP16, literal(-4)))
          CFI ?RET_LOW load(1, XDATA, add(CFA_XSP16, literal(-5)))
        MOV       R7,#0x8
        LJMP      ?BANKED_LEAVE_XDATA
          CFI EndBlock cfiBlock36
//  500 
//  501 /*****************************************************************************
//  502  * @fn      AT_SendEPCtrl_rsp
//  503  *
//  504  * @brief   Send remote endPoint control command
//  505  *
//  506  * @param   srcEP - Application's endpoint
//  507  * @param   dstAddr - destination address
//  508  * @param   clusterID - cluster ID
//  509  * @param   epCtrlCmd - endPoint control command to be sent
//  510  *
//  511  * @return  status
//  512  *****************************************************************************/

        RSEG BANKED_CODE:HUGECODE:NOROOT(0)
//  513 uint8 AT_SendEPCtrl_rsp( uint8 srcEP, afAddrType_t *dstAddr, uint16 clusterID, EPCtrlCmd_rsp *epCtrlCmd_rsp )
AT_SendEPCtrl_rsp:
          CFI Block cfiBlock37 Using cfiCommon0
          CFI Function AT_SendEPCtrl_rsp
        CODE
//  514 {
        FUNCALL AT_SendEPCtrl_rsp, osal_mem_alloc
        LOCFRAME ISTACK, 0, STACK
        LOCFRAME PSTACK, 0, STACK
        LOCFRAME XSTACK, 16, STACK
        LOCFRAME IOVERLAY, 0, STATIC
        LOCFRAME DOVERLAY, 0, STATIC
        ARGFRAME ISTACK, 0, STACK
        ARGFRAME PSTACK, 0, STACK
        ARGFRAME XSTACK, 16, STACK
        ARGFRAME IOVERLAY, 0, STATIC
        ARGFRAME DOVERLAY, 0, STATIC
        FUNCALL AT_SendEPCtrl_rsp, AT_SendCmd
        LOCFRAME ISTACK, 0, STACK
        LOCFRAME PSTACK, 0, STACK
        LOCFRAME XSTACK, 21, STACK
        LOCFRAME IOVERLAY, 0, STATIC
        LOCFRAME DOVERLAY, 0, STATIC
        ARGFRAME ISTACK, 0, STACK
        ARGFRAME PSTACK, 0, STACK
        ARGFRAME XSTACK, 21, STACK
        ARGFRAME IOVERLAY, 0, STATIC
        ARGFRAME DOVERLAY, 0, STATIC
        FUNCALL AT_SendEPCtrl_rsp, osal_mem_free
        LOCFRAME ISTACK, 0, STACK
        LOCFRAME PSTACK, 0, STACK
        LOCFRAME XSTACK, 16, STACK
        LOCFRAME IOVERLAY, 0, STATIC
        LOCFRAME DOVERLAY, 0, STATIC
        ARGFRAME ISTACK, 0, STACK
        ARGFRAME PSTACK, 0, STACK
        ARGFRAME XSTACK, 16, STACK
        ARGFRAME IOVERLAY, 0, STATIC
        ARGFRAME DOVERLAY, 0, STATIC
        REQUIRE ?V0
        REQUIRE ?V1
        REQUIRE ?V2
        REQUIRE ?V3
        REQUIRE ?V4
        REQUIRE ?V5
        REQUIRE ?V6
        REQUIRE ?V7
        MOV       A,#-0x10
        LCALL     ?BANKED_ENTER_XDATA
          CFI DPH0 load(1, XDATA, add(CFA_XSP16, literal(-1)))
          CFI DPL0 load(1, XDATA, add(CFA_XSP16, literal(-2)))
          CFI ?BRET_EXT load(1, XDATA, add(CFA_XSP16, literal(-3)))
          CFI ?RET_HIGH load(1, XDATA, add(CFA_XSP16, literal(-4)))
          CFI ?RET_LOW load(1, XDATA, add(CFA_XSP16, literal(-5)))
          CFI R7 load(1, XDATA, add(CFA_XSP16, literal(-6)))
          CFI V7 load(1, XDATA, add(CFA_XSP16, literal(-7)))
          CFI V6 load(1, XDATA, add(CFA_XSP16, literal(-8)))
          CFI V5 load(1, XDATA, add(CFA_XSP16, literal(-9)))
          CFI V4 load(1, XDATA, add(CFA_XSP16, literal(-10)))
          CFI V3 load(1, XDATA, add(CFA_XSP16, literal(-11)))
          CFI V2 load(1, XDATA, add(CFA_XSP16, literal(-12)))
          CFI V1 load(1, XDATA, add(CFA_XSP16, literal(-13)))
          CFI V0 load(1, XDATA, add(CFA_XSP16, literal(-14)))
          CFI VB load(1, XDATA, add(CFA_XSP16, literal(-15)))
          CFI R6 load(1, XDATA, add(CFA_XSP16, literal(-16)))
          CFI CFA_SP SP+0
          CFI CFA_XSP16 add(XSP16, 16)
        ; Saved register size: 16
        ; Auto size: 0
        LCALL     ?Subroutine29 & 0xFFFF
//  515   uint16 dataLen;
//  516   uint8 *buf;
//  517   uint8 *pBuf;
//  518   uint8 status;
//  519 
//  520   dataLen = sizeof(EPCtrlCmd_rsp);
//  521 
//  522   buf = osal_mem_alloc( dataLen );
//  523   if ( buf != NULL )
??CrossCallReturnLabel_43:
        JZ        ??AT_SendEPCtrl_rsp_0
        MOV       A,#0x10
        LCALL     ?XSTACK_DISP0_8
        LCALL     ?Subroutine12 & 0xFFFF
//  524   {
//  525     // Load the buffer - serially
//  526     pBuf = buf;
//  527     *pBuf++ = epCtrlCmd_rsp->ep;
//  528     *pBuf   = epCtrlCmd_rsp->status;
//  529 
//  530     status = AT_SendCmd( srcEP, dstAddr, clusterID,
//  531                               ZCL_EPCtrl_Cmd_rsp, dataLen, buf );
??CrossCallReturnLabel_11:
        LCALL     ?PUSH_XSTACK_I_TWO
          CFI CFA_XSP16 add(XSP16, 18)
        MOV       ?V6,#0x2
        MOV       ?V7,#0x0
        MOV       R0,#?V6
        LCALL     ?PUSH_XSTACK_I_TWO
          CFI CFA_XSP16 add(XSP16, 20)
        MOV       ?V3,#0x2
        MOV       R0,#?V3
        LCALL     ?PUSH_XSTACK_I_ONE
          CFI CFA_XSP16 add(XSP16, 21)
        MOV       R4,?V0
        MOV       R5,?V1
        MOV       A,R6
        MOV       R2,A
        MOV       A,R7
        MOV       R3,A
        MOV       R1,?V2
        LCALL     `??AT_SendCmd::?relay`; Banked call to: AT_SendCmd
        MOV       A,#0x5
        LCALL     ?DEALLOC_XSTACK8
          CFI CFA_XSP16 add(XSP16, 16)
        MOV       A,R1
        MOV       R6,A
//  532     osal_mem_free( buf );
        ; Setup parameters for call to function osal_mem_free
        MOV       R2,?V4
        MOV       R3,?V5
        LCALL     `??osal_mem_free::?relay`; Banked call to: osal_mem_free
        SJMP      ??AT_SendEPCtrl_rsp_1
//  533   }
//  534   else
//  535   {
//  536     status = ZCL_CTRLCmd_MemError;
??AT_SendEPCtrl_rsp_0:
        MOV       R6,#0x1
//  537   }
//  538 
//  539   return ( status );
??AT_SendEPCtrl_rsp_1:
        SJMP      ?Subroutine4
//  540 }
          CFI EndBlock cfiBlock37

        RSEG BANKED_CODE:HUGECODE:NOROOT(0)
?Subroutine29:
          CFI Block cfiCond38 Using cfiCommon0
          CFI Function AT_SendEPCtrl
          CFI Conditional ??CrossCallReturnLabel_42
          CFI R6 load(1, XDATA, add(CFA_XSP16, literal(-16)))
          CFI VB load(1, XDATA, add(CFA_XSP16, literal(-15)))
          CFI V0 load(1, XDATA, add(CFA_XSP16, literal(-14)))
          CFI V1 load(1, XDATA, add(CFA_XSP16, literal(-13)))
          CFI V2 load(1, XDATA, add(CFA_XSP16, literal(-12)))
          CFI V3 load(1, XDATA, add(CFA_XSP16, literal(-11)))
          CFI V4 load(1, XDATA, add(CFA_XSP16, literal(-10)))
          CFI V5 load(1, XDATA, add(CFA_XSP16, literal(-9)))
          CFI V6 load(1, XDATA, add(CFA_XSP16, literal(-8)))
          CFI V7 load(1, XDATA, add(CFA_XSP16, literal(-7)))
          CFI R7 load(1, XDATA, add(CFA_XSP16, literal(-6)))
          CFI ?RET_LOW load(1, XDATA, add(CFA_XSP16, literal(-5)))
          CFI ?RET_HIGH load(1, XDATA, add(CFA_XSP16, literal(-4)))
          CFI ?BRET_EXT load(1, XDATA, add(CFA_XSP16, literal(-3)))
          CFI DPL0 load(1, XDATA, add(CFA_XSP16, literal(-2)))
          CFI DPH0 load(1, XDATA, add(CFA_XSP16, literal(-1)))
          CFI CFA_SP SP+-2
          CFI CFA_XSP16 add(XSP16, 16)
          CFI Block cfiCond39 Using cfiCommon0
          CFI (cfiCond39) Function AT_SendEPCtrl_rsp
          CFI (cfiCond39) Conditional ??CrossCallReturnLabel_43
          CFI (cfiCond39) R6 load(1, XDATA, add(CFA_XSP16, literal(-16)))
          CFI (cfiCond39) VB load(1, XDATA, add(CFA_XSP16, literal(-15)))
          CFI (cfiCond39) V0 load(1, XDATA, add(CFA_XSP16, literal(-14)))
          CFI (cfiCond39) V1 load(1, XDATA, add(CFA_XSP16, literal(-13)))
          CFI (cfiCond39) V2 load(1, XDATA, add(CFA_XSP16, literal(-12)))
          CFI (cfiCond39) V3 load(1, XDATA, add(CFA_XSP16, literal(-11)))
          CFI (cfiCond39) V4 load(1, XDATA, add(CFA_XSP16, literal(-10)))
          CFI (cfiCond39) V5 load(1, XDATA, add(CFA_XSP16, literal(-9)))
          CFI (cfiCond39) V6 load(1, XDATA, add(CFA_XSP16, literal(-8)))
          CFI (cfiCond39) V7 load(1, XDATA, add(CFA_XSP16, literal(-7)))
          CFI (cfiCond39) R7 load(1, XDATA, add(CFA_XSP16, literal(-6)))
          CFI (cfiCond39) ?RET_LOW load(1, XDATA, add(CFA_XSP16, literal(-5)))
          CFI (cfiCond39) ?RET_HIGH load(1, XDATA, add(CFA_XSP16, literal(-4)))
          CFI (cfiCond39) ?BRET_EXT load(1, XDATA, add(CFA_XSP16, literal(-3)))
          CFI (cfiCond39) DPL0 load(1, XDATA, add(CFA_XSP16, literal(-2)))
          CFI (cfiCond39) DPH0 load(1, XDATA, add(CFA_XSP16, literal(-1)))
          CFI (cfiCond39) CFA_SP SP+-2
          CFI (cfiCond39) CFA_XSP16 add(XSP16, 16)
          CFI Block cfiPicker40 Using cfiCommon1
          CFI (cfiPicker40) NoFunction
          CFI (cfiPicker40) Picker
        MOV       ?V2,R1
        MOV       A,R2
        MOV       R6,A
        MOV       A,R3
        MOV       R7,A
        MOV       ?V0,R4
        MOV       ?V1,R5
        ; Setup parameters for call to function osal_mem_alloc
        ; Setup parameters for call to function osal_mem_alloc
        MOV       R2,#0x2
        MOV       R3,#0x0
        LCALL     `??osal_mem_alloc::?relay`; Banked call to: osal_mem_alloc
        MOV       ?V4,R2
        MOV       ?V5,R3
        MOV       A,R2
        ORL       A,R3
        RET
          CFI EndBlock cfiCond38
          CFI EndBlock cfiCond39
          CFI EndBlock cfiPicker40

        RSEG BANKED_CODE:HUGECODE:NOROOT(0)
?Subroutine12:
          CFI Block cfiCond41 Using cfiCommon0
          CFI Function AT_SendEPCtrl
          CFI Conditional ??CrossCallReturnLabel_10
          CFI R6 load(1, XDATA, add(CFA_XSP16, literal(-16)))
          CFI VB load(1, XDATA, add(CFA_XSP16, literal(-15)))
          CFI V0 load(1, XDATA, add(CFA_XSP16, literal(-14)))
          CFI V1 load(1, XDATA, add(CFA_XSP16, literal(-13)))
          CFI V2 load(1, XDATA, add(CFA_XSP16, literal(-12)))
          CFI V3 load(1, XDATA, add(CFA_XSP16, literal(-11)))
          CFI V4 load(1, XDATA, add(CFA_XSP16, literal(-10)))
          CFI V5 load(1, XDATA, add(CFA_XSP16, literal(-9)))
          CFI V6 load(1, XDATA, add(CFA_XSP16, literal(-8)))
          CFI V7 load(1, XDATA, add(CFA_XSP16, literal(-7)))
          CFI R7 load(1, XDATA, add(CFA_XSP16, literal(-6)))
          CFI ?RET_LOW load(1, XDATA, add(CFA_XSP16, literal(-5)))
          CFI ?RET_HIGH load(1, XDATA, add(CFA_XSP16, literal(-4)))
          CFI ?BRET_EXT load(1, XDATA, add(CFA_XSP16, literal(-3)))
          CFI DPL0 load(1, XDATA, add(CFA_XSP16, literal(-2)))
          CFI DPH0 load(1, XDATA, add(CFA_XSP16, literal(-1)))
          CFI CFA_SP SP+-2
          CFI CFA_XSP16 add(XSP16, 16)
          CFI Block cfiCond42 Using cfiCommon0
          CFI (cfiCond42) Function AT_SendEPCtrl_rsp
          CFI (cfiCond42) Conditional ??CrossCallReturnLabel_11
          CFI (cfiCond42) R6 load(1, XDATA, add(CFA_XSP16, literal(-16)))
          CFI (cfiCond42) VB load(1, XDATA, add(CFA_XSP16, literal(-15)))
          CFI (cfiCond42) V0 load(1, XDATA, add(CFA_XSP16, literal(-14)))
          CFI (cfiCond42) V1 load(1, XDATA, add(CFA_XSP16, literal(-13)))
          CFI (cfiCond42) V2 load(1, XDATA, add(CFA_XSP16, literal(-12)))
          CFI (cfiCond42) V3 load(1, XDATA, add(CFA_XSP16, literal(-11)))
          CFI (cfiCond42) V4 load(1, XDATA, add(CFA_XSP16, literal(-10)))
          CFI (cfiCond42) V5 load(1, XDATA, add(CFA_XSP16, literal(-9)))
          CFI (cfiCond42) V6 load(1, XDATA, add(CFA_XSP16, literal(-8)))
          CFI (cfiCond42) V7 load(1, XDATA, add(CFA_XSP16, literal(-7)))
          CFI (cfiCond42) R7 load(1, XDATA, add(CFA_XSP16, literal(-6)))
          CFI (cfiCond42) ?RET_LOW load(1, XDATA, add(CFA_XSP16, literal(-5)))
          CFI (cfiCond42) ?RET_HIGH load(1, XDATA, add(CFA_XSP16, literal(-4)))
          CFI (cfiCond42) ?BRET_EXT load(1, XDATA, add(CFA_XSP16, literal(-3)))
          CFI (cfiCond42) DPL0 load(1, XDATA, add(CFA_XSP16, literal(-2)))
          CFI (cfiCond42) DPH0 load(1, XDATA, add(CFA_XSP16, literal(-1)))
          CFI (cfiCond42) CFA_SP SP+-2
          CFI (cfiCond42) CFA_XSP16 add(XSP16, 16)
          CFI Block cfiPicker43 Using cfiCommon1
          CFI (cfiPicker43) NoFunction
          CFI (cfiPicker43) Picker
        MOVX      A,@DPTR
        MOV       R0,A
        INC       DPTR
        MOVX      A,@DPTR
        MOV       R1,A
        MOV       DPL,R0
        MOV       DPH,A
        MOVX      A,@DPTR
        MOV       DPL,R2
        MOV       DPH,R3
        MOVX      @DPTR,A
        MOV       DPL,R0
        MOV       DPH,R1
        INC       DPTR
        MOVX      A,@DPTR
        MOV       DPL,R2
        MOV       DPH,R3
        INC       DPTR
        MOVX      @DPTR,A
        ; Setup parameters for call to function AT_SendCmd
        ; Setup parameters for call to function AT_SendCmd
        MOV       R0,#?V4
        RET
          CFI EndBlock cfiCond41
          CFI EndBlock cfiCond42
          CFI EndBlock cfiPicker43
//  541 
//  542 /******************************************************************************
//  543  *
//  544  *  Functions for processing ZCL Foundation incoming Command/Response messages
//  545  *
//  546  *****************************************************************************/
//  547 
//  548 /*********************************************************************
//  549  * @fn      AT_zclController_ProcessIncomingMsg
//  550  *
//  551  * @brief   Process ZCL Foundation incoming message
//  552  *
//  553  * @param   pInMsg - pointer to the received message
//  554  *
//  555  * @return  none
//  556  */

        RSEG BANKED_CODE:HUGECODE:NOROOT(0)
//  557 void AT_zclController_ProcessIncomingMsg( zclIncomingMsg_t *pInMsg )
AT_zclController_ProcessIncomingMsg:
          CFI Block cfiBlock44 Using cfiCommon0
          CFI Function AT_zclController_ProcessIncomingMsg
        CODE
//  558 {
        FUNCALL AT_zclController_ProcessIncomingMsg, zclController_ProcessInReadRspCmd
        LOCFRAME ISTACK, 0, STACK
        LOCFRAME PSTACK, 0, STACK
        LOCFRAME XSTACK, 20, STACK
        LOCFRAME IOVERLAY, 0, STATIC
        LOCFRAME DOVERLAY, 0, STATIC
        ARGFRAME ISTACK, 0, STACK
        ARGFRAME PSTACK, 0, STACK
        ARGFRAME XSTACK, 20, STACK
        ARGFRAME IOVERLAY, 0, STATIC
        ARGFRAME DOVERLAY, 0, STATIC
        FUNCALL AT_zclController_ProcessIncomingMsg, zclController_ProcessInWriteRspCmd
        LOCFRAME ISTACK, 0, STACK
        LOCFRAME PSTACK, 0, STACK
        LOCFRAME XSTACK, 20, STACK
        LOCFRAME IOVERLAY, 0, STATIC
        LOCFRAME DOVERLAY, 0, STATIC
        ARGFRAME ISTACK, 0, STACK
        ARGFRAME PSTACK, 0, STACK
        ARGFRAME XSTACK, 20, STACK
        ARGFRAME IOVERLAY, 0, STATIC
        ARGFRAME DOVERLAY, 0, STATIC
        FUNCALL AT_zclController_ProcessIncomingMsg, zclController_ProcessInConfigReportRspCmd
        LOCFRAME ISTACK, 0, STACK
        LOCFRAME PSTACK, 0, STACK
        LOCFRAME XSTACK, 20, STACK
        LOCFRAME IOVERLAY, 0, STATIC
        LOCFRAME DOVERLAY, 0, STATIC
        ARGFRAME ISTACK, 0, STACK
        ARGFRAME PSTACK, 0, STACK
        ARGFRAME XSTACK, 20, STACK
        ARGFRAME IOVERLAY, 0, STATIC
        ARGFRAME DOVERLAY, 0, STATIC
        FUNCALL AT_zclController_ProcessIncomingMsg, zclController_ProcessInReadReportCfgRspCmd
        LOCFRAME ISTACK, 0, STACK
        LOCFRAME PSTACK, 0, STACK
        LOCFRAME XSTACK, 20, STACK
        LOCFRAME IOVERLAY, 0, STATIC
        LOCFRAME DOVERLAY, 0, STATIC
        ARGFRAME ISTACK, 0, STACK
        ARGFRAME PSTACK, 0, STACK
        ARGFRAME XSTACK, 20, STACK
        ARGFRAME IOVERLAY, 0, STATIC
        ARGFRAME DOVERLAY, 0, STATIC
        FUNCALL AT_zclController_ProcessIncomingMsg, zclController_ProcessInReportCmd
        LOCFRAME ISTACK, 0, STACK
        LOCFRAME PSTACK, 0, STACK
        LOCFRAME XSTACK, 20, STACK
        LOCFRAME IOVERLAY, 0, STATIC
        LOCFRAME DOVERLAY, 0, STATIC
        ARGFRAME ISTACK, 0, STACK
        ARGFRAME PSTACK, 0, STACK
        ARGFRAME XSTACK, 20, STACK
        ARGFRAME IOVERLAY, 0, STATIC
        ARGFRAME DOVERLAY, 0, STATIC
        FUNCALL AT_zclController_ProcessIncomingMsg, AT_Uart0_Send
        LOCFRAME ISTACK, 0, STACK
        LOCFRAME PSTACK, 0, STACK
        LOCFRAME XSTACK, 20, STACK
        LOCFRAME IOVERLAY, 0, STATIC
        LOCFRAME DOVERLAY, 0, STATIC
        ARGFRAME ISTACK, 0, STACK
        ARGFRAME PSTACK, 0, STACK
        ARGFRAME XSTACK, 20, STACK
        ARGFRAME IOVERLAY, 0, STATIC
        ARGFRAME DOVERLAY, 0, STATIC
        FUNCALL AT_zclController_ProcessIncomingMsg, printf
        LOCFRAME ISTACK, 0, STACK
        LOCFRAME PSTACK, 0, STACK
        LOCFRAME XSTACK, 30, STACK
        LOCFRAME IOVERLAY, 0, STATIC
        LOCFRAME DOVERLAY, 0, STATIC
        ARGFRAME ISTACK, 0, STACK
        ARGFRAME PSTACK, 0, STACK
        ARGFRAME XSTACK, 30, STACK
        ARGFRAME IOVERLAY, 0, STATIC
        ARGFRAME DOVERLAY, 0, STATIC
        FUNCALL AT_zclController_ProcessIncomingMsg, AT_Uart0_Send
        LOCFRAME ISTACK, 0, STACK
        LOCFRAME PSTACK, 0, STACK
        LOCFRAME XSTACK, 20, STACK
        LOCFRAME IOVERLAY, 0, STATIC
        LOCFRAME DOVERLAY, 0, STATIC
        ARGFRAME ISTACK, 0, STACK
        ARGFRAME PSTACK, 0, STACK
        ARGFRAME XSTACK, 20, STACK
        ARGFRAME IOVERLAY, 0, STATIC
        ARGFRAME DOVERLAY, 0, STATIC
        FUNCALL AT_zclController_ProcessIncomingMsg, zclController_ProcessInDiscCmdsRspCmd
        LOCFRAME ISTACK, 0, STACK
        LOCFRAME PSTACK, 0, STACK
        LOCFRAME XSTACK, 20, STACK
        LOCFRAME IOVERLAY, 0, STATIC
        LOCFRAME DOVERLAY, 0, STATIC
        ARGFRAME ISTACK, 0, STACK
        ARGFRAME PSTACK, 0, STACK
        ARGFRAME XSTACK, 20, STACK
        ARGFRAME IOVERLAY, 0, STATIC
        ARGFRAME DOVERLAY, 0, STATIC
        FUNCALL AT_zclController_ProcessIncomingMsg, zclController_ProcessInDiscCmdsRspCmd
        LOCFRAME ISTACK, 0, STACK
        LOCFRAME PSTACK, 0, STACK
        LOCFRAME XSTACK, 20, STACK
        LOCFRAME IOVERLAY, 0, STATIC
        LOCFRAME DOVERLAY, 0, STATIC
        ARGFRAME ISTACK, 0, STACK
        ARGFRAME PSTACK, 0, STACK
        ARGFRAME XSTACK, 20, STACK
        ARGFRAME IOVERLAY, 0, STATIC
        ARGFRAME DOVERLAY, 0, STATIC
        FUNCALL AT_zclController_ProcessIncomingMsg, zclController_ProcessInDiscAttrsRspCmd
        LOCFRAME ISTACK, 0, STACK
        LOCFRAME PSTACK, 0, STACK
        LOCFRAME XSTACK, 20, STACK
        LOCFRAME IOVERLAY, 0, STATIC
        LOCFRAME DOVERLAY, 0, STATIC
        ARGFRAME ISTACK, 0, STACK
        ARGFRAME PSTACK, 0, STACK
        ARGFRAME XSTACK, 20, STACK
        ARGFRAME IOVERLAY, 0, STATIC
        ARGFRAME DOVERLAY, 0, STATIC
        FUNCALL AT_zclController_ProcessIncomingMsg, osal_mem_free
        LOCFRAME ISTACK, 0, STACK
        LOCFRAME PSTACK, 0, STACK
        LOCFRAME XSTACK, 20, STACK
        LOCFRAME IOVERLAY, 0, STATIC
        LOCFRAME DOVERLAY, 0, STATIC
        ARGFRAME ISTACK, 0, STACK
        ARGFRAME PSTACK, 0, STACK
        ARGFRAME XSTACK, 20, STACK
        ARGFRAME IOVERLAY, 0, STATIC
        ARGFRAME DOVERLAY, 0, STATIC
        REQUIRE ?V0
        REQUIRE ?V1
        REQUIRE ?V2
        REQUIRE ?V3
        REQUIRE ?V4
        REQUIRE ?V6
        REQUIRE ?V7
        REQUIRE ?V8
        REQUIRE ?V9
        REQUIRE ?V10
        REQUIRE ?V11
        MOV       A,#-0x14
        LCALL     ?BANKED_ENTER_XDATA
          CFI DPH0 load(1, XDATA, add(CFA_XSP16, literal(-1)))
          CFI DPL0 load(1, XDATA, add(CFA_XSP16, literal(-2)))
          CFI ?BRET_EXT load(1, XDATA, add(CFA_XSP16, literal(-3)))
          CFI ?RET_HIGH load(1, XDATA, add(CFA_XSP16, literal(-4)))
          CFI ?RET_LOW load(1, XDATA, add(CFA_XSP16, literal(-5)))
          CFI R7 load(1, XDATA, add(CFA_XSP16, literal(-6)))
          CFI V11 load(1, XDATA, add(CFA_XSP16, literal(-7)))
          CFI V10 load(1, XDATA, add(CFA_XSP16, literal(-8)))
          CFI V9 load(1, XDATA, add(CFA_XSP16, literal(-9)))
          CFI V8 load(1, XDATA, add(CFA_XSP16, literal(-10)))
          CFI V7 load(1, XDATA, add(CFA_XSP16, literal(-11)))
          CFI V6 load(1, XDATA, add(CFA_XSP16, literal(-12)))
          CFI V5 load(1, XDATA, add(CFA_XSP16, literal(-13)))
          CFI V4 load(1, XDATA, add(CFA_XSP16, literal(-14)))
          CFI V3 load(1, XDATA, add(CFA_XSP16, literal(-15)))
          CFI V2 load(1, XDATA, add(CFA_XSP16, literal(-16)))
          CFI V1 load(1, XDATA, add(CFA_XSP16, literal(-17)))
          CFI V0 load(1, XDATA, add(CFA_XSP16, literal(-18)))
          CFI VB load(1, XDATA, add(CFA_XSP16, literal(-19)))
          CFI R6 load(1, XDATA, add(CFA_XSP16, literal(-20)))
          CFI CFA_SP SP+0
          CFI CFA_XSP16 add(XSP16, 20)
        ; Saved register size: 20
        ; Auto size: 0
//  559   switch ( pInMsg->zclHdr.commandID )
        MOV       A,R2
        ADD       A,#0x17
        MOV       R0,A
        CLR       A
        ADDC      A,R3
        MOV       ?V0,R0
        MOV       ?V1,A
        MOV       DPL,R2
        MOV       DPH,R3
        INC       DPTR
        INC       DPTR
        INC       DPTR
        INC       DPTR
        INC       DPTR
        INC       DPTR
        INC       DPTR
        MOVX      A,@DPTR
        DEC       A
        JZ        ??AT_zclController_ProcessIncomingMsg_0
        ADD       A,#-0x3
        JZ        ??AT_zclController_ProcessIncomingMsg_1
        ADD       A,#-0x3
        JZ        ??AT_zclController_ProcessIncomingMsg_2
        ADD       A,#-0x2
        JZ        ??AT_zclController_ProcessIncomingMsg_3
        DEC       A
        JZ        ??AT_zclController_ProcessIncomingMsg_4
        DEC       A
        JZ        ??AT_zclController_ProcessIncomingMsg_5
        ADD       A,#-0x2
        JNZ       $+5
        LJMP      ??AT_zclController_ProcessIncomingMsg_6 & 0xFFFF
        ADD       A,#-0x5
        JNZ       $+5
        LJMP      ??AT_zclController_ProcessIncomingMsg_7 & 0xFFFF
        ADD       A,#-0x2
        JNZ       $+5
        LJMP      ??AT_zclController_ProcessIncomingMsg_7 & 0xFFFF
        ADD       A,#-0x2
        JNZ       $+5
        LJMP      ??AT_zclController_ProcessIncomingMsg_8 & 0xFFFF
        LJMP      ??AT_zclController_ProcessIncomingMsg_9 & 0xFFFF
//  560   {
//  561 #ifdef ZCL_READ
//  562     case ZCL_CMD_READ_RSP:
//  563       zclController_ProcessInReadRspCmd( pInMsg );
??AT_zclController_ProcessIncomingMsg_0:
        ; Setup parameters for call to function zclController_ProcessInReadRspCmd
        LCALL     `??zclController_ProcessInReadRspCmd::?relay`; Banked call to: zclController_ProcessInReadRspCmd
//  564       break;
        LJMP      ??AT_zclController_ProcessIncomingMsg_9 & 0xFFFF
//  565 #endif
//  566 #ifdef ZCL_WRITE
//  567     case ZCL_CMD_WRITE_RSP:
//  568       zclController_ProcessInWriteRspCmd( pInMsg );
??AT_zclController_ProcessIncomingMsg_1:
        ; Setup parameters for call to function zclController_ProcessInWriteRspCmd
        LCALL     `??zclController_ProcessInWriteRspCmd::?relay`; Banked call to: zclController_ProcessInWriteRspCmd
//  569       break;
        LJMP      ??AT_zclController_ProcessIncomingMsg_9 & 0xFFFF
//  570 #endif
//  571 #ifdef ZCL_REPORTING_DEVICE
//  572     case ZCL_CMD_CONFIG_REPORT:
//  573       break;
//  574 #endif
//  575 #ifdef ZCL_REPORT_CONFIGURING_DEVICE
//  576     case ZCL_CMD_CONFIG_REPORT_RSP:
//  577       zclController_ProcessInConfigReportRspCmd( pInMsg );
??AT_zclController_ProcessIncomingMsg_2:
        ; Setup parameters for call to function zclController_ProcessInConfigReportRspCmd
        LCALL     `??zclController_ProcessInConfigReportRspCmd::?r`; Banked call to: zclController_ProcessInConfigReportRspCmd
//  578       break;
        LJMP      ??AT_zclController_ProcessIncomingMsg_9 & 0xFFFF
//  579 #endif
//  580 #ifdef ZCL_REPORTING_DEVICE
//  581     case ZCL_CMD_READ_REPORT_CFG:
//  582       break;
//  583 #endif
//  584 #ifdef ZCL_REPORT_CONFIGURING_DEVICE
//  585     case ZCL_CMD_READ_REPORT_CFG_RSP:
//  586       zclController_ProcessInReadReportCfgRspCmd( pInMsg );
??AT_zclController_ProcessIncomingMsg_3:
        ; Setup parameters for call to function zclController_ProcessInReadReportCfgRspCmd
        LCALL     `??zclController_ProcessInReadReportCfgRspCmd::?`; Banked call to: zclController_ProcessInReadReportCfgRspCmd
//  587       break;
        LJMP      ??AT_zclController_ProcessIncomingMsg_9 & 0xFFFF
//  588 #endif
//  589 #ifdef ZCL_REPORT_DESTINATION_DEVICE
//  590     case ZCL_CMD_REPORT:
//  591       zclController_ProcessInReportCmd( pInMsg );
??AT_zclController_ProcessIncomingMsg_4:
        ; Setup parameters for call to function zclController_ProcessInReportCmd
        LCALL     `??zclController_ProcessInReportCmd::?relay`; Banked call to: zclController_ProcessInReportCmd
//  592       break;
        LJMP      ??AT_zclController_ProcessIncomingMsg_9 & 0xFFFF
//  593 #endif
//  594 
//  595     case ZCL_CMD_DEFAULT_RSP:
//  596       zclController_ProcessInDefaultRspCmd( pInMsg );
??AT_zclController_ProcessIncomingMsg_5:
        MOV       DPL,R2
        MOV       DPH,R3
        INC       DPTR
        INC       DPTR
        LCALL     ?Subroutine44 & 0xFFFF
??CrossCallReturnLabel_80:
        LCALL     ?Subroutine37 & 0xFFFF
??CrossCallReturnLabel_64:
        ADDC      A,R3
        MOV       DPH,A
        MOVX      A,@DPTR
        MOV       ?V4,A
        MOV       DPL,R2
        MOV       DPH,R3
        LCALL     ?Subroutine19 & 0xFFFF
??CrossCallReturnLabel_111:
        LCALL     ?Subroutine25 & 0xFFFF
??CrossCallReturnLabel_131:
        MOV       ?V2,R0
        LCALL     ?Subroutine48 & 0xFFFF
??CrossCallReturnLabel_88:
        INC       DPTR
        LCALL     ?Subroutine21 & 0xFFFF
??CrossCallReturnLabel_26:
        LCALL     ?PUSH_XSTACK_I_TWO
          CFI CFA_XSP16 add(XSP16, 22)
        MOV       DPL,?V2
        MOV       DPH,?V3
        MOVX      A,@DPTR
        MOV       ?V2,A
        MOV       ?V3,#0x0
        MOV       R0,#?V2
        LCALL     ?PUSH_XSTACK_I_TWO
          CFI CFA_XSP16 add(XSP16, 24)
        MOV       R0,#?V8
        LCALL     ?PUSH_XSTACK_I_TWO
          CFI CFA_XSP16 add(XSP16, 26)
        MOV       A,?V4
        MOV       ?V2,A
        MOV       R0,#?V2
        LCALL     ?PUSH_XSTACK_I_TWO
          CFI CFA_XSP16 add(XSP16, 28)
        MOV       R0,#?V6
        LCALL     ?PUSH_XSTACK_I_TWO
          CFI CFA_XSP16 add(XSP16, 30)
        MOV       R2,#`?<Constant "DFTRSP:%04X,%02X,%04X...">` & 0xff
        MOV       R3,#(`?<Constant "DFTRSP:%04X,%02X,%04X...">` >> 8) & 0xff
        LCALL     `??printf::?relay`; Banked call to: printf
        MOV       A,#0xa
        LCALL     ?DEALLOC_XSTACK8
          CFI CFA_XSP16 add(XSP16, 20)
        ; Setup parameters for call to function AT_Uart0_Send
        MOV       R4,#0x2
        MOV       R5,#0x0
        MOV       R2,#`?<Constant "\\r\\n">` & 0xff
        MOV       R3,#(`?<Constant "\\r\\n">` >> 8) & 0xff
        LCALL     `??AT_Uart0_Send::?relay`; Banked call to: AT_Uart0_Send
//  597       break;
        SJMP      ??AT_zclController_ProcessIncomingMsg_9
//  598 #ifdef ZCL_DISCOVER
//  599     case ZCL_CMD_DISCOVER_CMDS_RECEIVED_RSP:
//  600       zclController_ProcessInDiscCmdsRspCmd( pInMsg );
??AT_zclController_ProcessIncomingMsg_7:
        ; Setup parameters for call to function zclController_ProcessInDiscCmdsRspCmd
//  601       break;
//  602 
//  603     case ZCL_CMD_DISCOVER_CMDS_GEN_RSP:
//  604       zclController_ProcessInDiscCmdsRspCmd( pInMsg );
        ; Setup parameters for call to function zclController_ProcessInDiscCmdsRspCmd
        LCALL     `??zclController_ProcessInDiscCmdsRspCmd::?relay`; Banked call to: zclController_ProcessInDiscCmdsRspCmd
//  605       break;
        SJMP      ??AT_zclController_ProcessIncomingMsg_9
//  606 
//  607     case ZCL_CMD_DISCOVER_ATTRS_RSP:
//  608       zclController_ProcessInDiscAttrsRspCmd( pInMsg );
??AT_zclController_ProcessIncomingMsg_6:
        ; Setup parameters for call to function zclController_ProcessInDiscAttrsRspCmd
        LCALL     `??zclController_ProcessInDiscAttrsRspCmd::?rela`; Banked call to: zclController_ProcessInDiscAttrsRspCmd
//  609       break;
        SJMP      ??AT_zclController_ProcessIncomingMsg_9
//  610 
//  611     case ZCL_CMD_DISCOVER_ATTRS_EXT_RSP:
//  612       zclController_ProcessInDiscAttrsExtRspCmd( pInMsg );
??AT_zclController_ProcessIncomingMsg_8:
        LCALL     ?Subroutine25 & 0xFFFF
//  613       break;
//  614 #endif
//  615     default:
//  616       break;
//  617   }
??CrossCallReturnLabel_132:
        MOV       R1,A
        MOV       R2,#0x0
        SJMP      ??AT_zclController_ProcessIncomingMsg_10
??AT_zclController_ProcessIncomingMsg_11:
        INC       R2
??AT_zclController_ProcessIncomingMsg_10:
        MOV       DPL,R0
        MOV       DPH,R1
        INC       DPTR
        MOVX      A,@DPTR
        MOV       R3,A
        MOV       A,R2
        CLR       C
        SUBB      A,R3
        JC        ??AT_zclController_ProcessIncomingMsg_11
//  618 
//  619   if ( pInMsg->attrCmd )
??AT_zclController_ProcessIncomingMsg_9:
        MOV       DPL,?V0
        MOV       DPH,?V1
        LCALL     ?Subroutine54 & 0xFFFF
??CrossCallReturnLabel_123:
        MOV       A,R2
        ORL       A,R3
        JZ        ??AT_zclController_ProcessIncomingMsg_12
//  620     osal_mem_free( pInMsg->attrCmd );
        ; Setup parameters for call to function osal_mem_free
        LCALL     `??osal_mem_free::?relay`; Banked call to: osal_mem_free
//  621 }
??AT_zclController_ProcessIncomingMsg_12:
        LJMP      ??Subroutine61_0 & 0xFFFF
          CFI EndBlock cfiBlock44

        RSEG BANKED_CODE:HUGECODE:NOROOT(0)
?Subroutine19:
          CFI Block cfiCond45 Using cfiCommon0
          CFI Function AT_zclController_ProcessIncomingMsg
          CFI Conditional ??CrossCallReturnLabel_111
          CFI R6 load(1, XDATA, add(CFA_XSP16, literal(-20)))
          CFI VB load(1, XDATA, add(CFA_XSP16, literal(-19)))
          CFI V0 load(1, XDATA, add(CFA_XSP16, literal(-18)))
          CFI V1 load(1, XDATA, add(CFA_XSP16, literal(-17)))
          CFI V2 load(1, XDATA, add(CFA_XSP16, literal(-16)))
          CFI V3 load(1, XDATA, add(CFA_XSP16, literal(-15)))
          CFI V4 load(1, XDATA, add(CFA_XSP16, literal(-14)))
          CFI V5 load(1, XDATA, add(CFA_XSP16, literal(-13)))
          CFI V6 load(1, XDATA, add(CFA_XSP16, literal(-12)))
          CFI V7 load(1, XDATA, add(CFA_XSP16, literal(-11)))
          CFI V8 load(1, XDATA, add(CFA_XSP16, literal(-10)))
          CFI V9 load(1, XDATA, add(CFA_XSP16, literal(-9)))
          CFI V10 load(1, XDATA, add(CFA_XSP16, literal(-8)))
          CFI V11 load(1, XDATA, add(CFA_XSP16, literal(-7)))
          CFI R7 load(1, XDATA, add(CFA_XSP16, literal(-6)))
          CFI ?RET_LOW load(1, XDATA, add(CFA_XSP16, literal(-5)))
          CFI ?RET_HIGH load(1, XDATA, add(CFA_XSP16, literal(-4)))
          CFI ?BRET_EXT load(1, XDATA, add(CFA_XSP16, literal(-3)))
          CFI DPL0 load(1, XDATA, add(CFA_XSP16, literal(-2)))
          CFI DPH0 load(1, XDATA, add(CFA_XSP16, literal(-1)))
          CFI CFA_SP SP+-2
          CFI CFA_XSP16 add(XSP16, 20)
          CFI Block cfiCond46 Using cfiCommon0
          CFI (cfiCond46) Function zclController_ProcessInDiscAttrsRspCmd
          CFI (cfiCond46) Conditional ??CrossCallReturnLabel_112
          CFI (cfiCond46) R6 load(1, XDATA, add(CFA_XSP16, literal(-20)))
          CFI (cfiCond46) VB load(1, XDATA, add(CFA_XSP16, literal(-19)))
          CFI (cfiCond46) V0 load(1, XDATA, add(CFA_XSP16, literal(-18)))
          CFI (cfiCond46) V1 load(1, XDATA, add(CFA_XSP16, literal(-17)))
          CFI (cfiCond46) V2 load(1, XDATA, add(CFA_XSP16, literal(-16)))
          CFI (cfiCond46) V3 load(1, XDATA, add(CFA_XSP16, literal(-15)))
          CFI (cfiCond46) V4 load(1, XDATA, add(CFA_XSP16, literal(-14)))
          CFI (cfiCond46) V5 load(1, XDATA, add(CFA_XSP16, literal(-13)))
          CFI (cfiCond46) V6 load(1, XDATA, add(CFA_XSP16, literal(-12)))
          CFI (cfiCond46) V7 load(1, XDATA, add(CFA_XSP16, literal(-11)))
          CFI (cfiCond46) V8 load(1, XDATA, add(CFA_XSP16, literal(-10)))
          CFI (cfiCond46) V9 load(1, XDATA, add(CFA_XSP16, literal(-9)))
          CFI (cfiCond46) V10 load(1, XDATA, add(CFA_XSP16, literal(-8)))
          CFI (cfiCond46) V11 load(1, XDATA, add(CFA_XSP16, literal(-7)))
          CFI (cfiCond46) R7 load(1, XDATA, add(CFA_XSP16, literal(-6)))
          CFI (cfiCond46) ?RET_LOW load(1, XDATA, add(CFA_XSP16, literal(-5)))
          CFI (cfiCond46) ?RET_HIGH load(1, XDATA, add(CFA_XSP16, literal(-4)))
          CFI (cfiCond46) ?BRET_EXT load(1, XDATA, add(CFA_XSP16, literal(-3)))
          CFI (cfiCond46) DPL0 load(1, XDATA, add(CFA_XSP16, literal(-2)))
          CFI (cfiCond46) DPH0 load(1, XDATA, add(CFA_XSP16, literal(-1)))
          CFI (cfiCond46) CFA_SP SP+-2
          CFI (cfiCond46) CFA_XSP16 add(XSP16, 20)
          CFI Block cfiPicker47 Using cfiCommon1
          CFI (cfiPicker47) NoFunction
          CFI (cfiPicker47) Picker
        INC       DPTR
        INC       DPTR
        INC       DPTR
        INC       DPTR
        INC       DPTR
        INC       DPTR
        INC       DPTR
        INC       DPTR
          CFI EndBlock cfiCond45
          CFI EndBlock cfiCond46
          CFI EndBlock cfiPicker47
        REQUIRE ??Subroutine58_0
        ; // Fall through to label ??Subroutine58_0

        RSEG BANKED_CODE:HUGECODE:NOROOT(0)
??Subroutine58_0:
          CFI Block cfiCond48 Using cfiCommon0
          CFI Function AT_SendCmd
          CFI Conditional ??CrossCallReturnLabel_109
          CFI R6 load(1, XDATA, add(CFA_XSP16, literal(-22)))
          CFI VB load(1, XDATA, add(CFA_XSP16, literal(-21)))
          CFI V0 load(1, XDATA, add(CFA_XSP16, literal(-20)))
          CFI V1 load(1, XDATA, add(CFA_XSP16, literal(-19)))
          CFI V2 load(1, XDATA, add(CFA_XSP16, literal(-18)))
          CFI V3 load(1, XDATA, add(CFA_XSP16, literal(-17)))
          CFI V4 load(1, XDATA, add(CFA_XSP16, literal(-16)))
          CFI V5 load(1, XDATA, add(CFA_XSP16, literal(-15)))
          CFI V6 load(1, XDATA, add(CFA_XSP16, literal(-14)))
          CFI V7 load(1, XDATA, add(CFA_XSP16, literal(-13)))
          CFI V8 load(1, XDATA, add(CFA_XSP16, literal(-12)))
          CFI V9 load(1, XDATA, add(CFA_XSP16, literal(-11)))
          CFI V10 load(1, XDATA, add(CFA_XSP16, literal(-10)))
          CFI V11 load(1, XDATA, add(CFA_XSP16, literal(-9)))
          CFI V12 load(1, XDATA, add(CFA_XSP16, literal(-8)))
          CFI V13 load(1, XDATA, add(CFA_XSP16, literal(-7)))
          CFI R7 load(1, XDATA, add(CFA_XSP16, literal(-6)))
          CFI ?RET_LOW load(1, XDATA, add(CFA_XSP16, literal(-5)))
          CFI ?RET_HIGH load(1, XDATA, add(CFA_XSP16, literal(-4)))
          CFI ?BRET_EXT load(1, XDATA, add(CFA_XSP16, literal(-3)))
          CFI DPL0 load(1, XDATA, add(CFA_XSP16, literal(-2)))
          CFI DPH0 load(1, XDATA, add(CFA_XSP16, literal(-1)))
          CFI CFA_SP SP+-2
          CFI CFA_XSP16 add(XSP16, 22)
          CFI Block cfiCond49 Using cfiCommon0
          CFI (cfiCond49) Function zclController_ProcessInReportCmd
          CFI (cfiCond49) Conditional ??CrossCallReturnLabel_110
          CFI (cfiCond49) R6 load(1, XDATA, add(CFA_XSP16, literal(-18)))
          CFI (cfiCond49) VB load(1, XDATA, add(CFA_XSP16, literal(-17)))
          CFI (cfiCond49) V0 load(1, XDATA, add(CFA_XSP16, literal(-16)))
          CFI (cfiCond49) V1 load(1, XDATA, add(CFA_XSP16, literal(-15)))
          CFI (cfiCond49) V2 load(1, XDATA, add(CFA_XSP16, literal(-14)))
          CFI (cfiCond49) V3 load(1, XDATA, add(CFA_XSP16, literal(-13)))
          CFI (cfiCond49) V4 load(1, XDATA, add(CFA_XSP16, literal(-12)))
          CFI (cfiCond49) V5 load(1, XDATA, add(CFA_XSP16, literal(-11)))
          CFI (cfiCond49) V6 load(1, XDATA, add(CFA_XSP16, literal(-10)))
          CFI (cfiCond49) V7 load(1, XDATA, add(CFA_XSP16, literal(-9)))
          CFI (cfiCond49) V8 load(1, XDATA, add(CFA_XSP16, literal(-8)))
          CFI (cfiCond49) V9 load(1, XDATA, add(CFA_XSP16, literal(-7)))
          CFI (cfiCond49) R7 load(1, XDATA, add(CFA_XSP16, literal(-6)))
          CFI (cfiCond49) ?RET_LOW load(1, XDATA, add(CFA_XSP16, literal(-5)))
          CFI (cfiCond49) ?RET_HIGH load(1, XDATA, add(CFA_XSP16, literal(-4)))
          CFI (cfiCond49) ?BRET_EXT load(1, XDATA, add(CFA_XSP16, literal(-3)))
          CFI (cfiCond49) DPL0 load(1, XDATA, add(CFA_XSP16, literal(-2)))
          CFI (cfiCond49) DPH0 load(1, XDATA, add(CFA_XSP16, literal(-1)))
          CFI (cfiCond49) CFA_SP SP+-2
          CFI (cfiCond49) CFA_XSP16 add(XSP16, 35)
          CFI Block cfiCond50 Using cfiCommon0
          CFI (cfiCond50) Function AT_zclController_ProcessIncomingMsg
          CFI (cfiCond50) Conditional ??CrossCallReturnLabel_111
          CFI (cfiCond50) R6 load(1, XDATA, add(CFA_XSP16, literal(-20)))
          CFI (cfiCond50) VB load(1, XDATA, add(CFA_XSP16, literal(-19)))
          CFI (cfiCond50) V0 load(1, XDATA, add(CFA_XSP16, literal(-18)))
          CFI (cfiCond50) V1 load(1, XDATA, add(CFA_XSP16, literal(-17)))
          CFI (cfiCond50) V2 load(1, XDATA, add(CFA_XSP16, literal(-16)))
          CFI (cfiCond50) V3 load(1, XDATA, add(CFA_XSP16, literal(-15)))
          CFI (cfiCond50) V4 load(1, XDATA, add(CFA_XSP16, literal(-14)))
          CFI (cfiCond50) V5 load(1, XDATA, add(CFA_XSP16, literal(-13)))
          CFI (cfiCond50) V6 load(1, XDATA, add(CFA_XSP16, literal(-12)))
          CFI (cfiCond50) V7 load(1, XDATA, add(CFA_XSP16, literal(-11)))
          CFI (cfiCond50) V8 load(1, XDATA, add(CFA_XSP16, literal(-10)))
          CFI (cfiCond50) V9 load(1, XDATA, add(CFA_XSP16, literal(-9)))
          CFI (cfiCond50) V10 load(1, XDATA, add(CFA_XSP16, literal(-8)))
          CFI (cfiCond50) V11 load(1, XDATA, add(CFA_XSP16, literal(-7)))
          CFI (cfiCond50) R7 load(1, XDATA, add(CFA_XSP16, literal(-6)))
          CFI (cfiCond50) ?RET_LOW load(1, XDATA, add(CFA_XSP16, literal(-5)))
          CFI (cfiCond50) ?RET_HIGH load(1, XDATA, add(CFA_XSP16, literal(-4)))
          CFI (cfiCond50) ?BRET_EXT load(1, XDATA, add(CFA_XSP16, literal(-3)))
          CFI (cfiCond50) DPL0 load(1, XDATA, add(CFA_XSP16, literal(-2)))
          CFI (cfiCond50) DPH0 load(1, XDATA, add(CFA_XSP16, literal(-1)))
          CFI (cfiCond50) CFA_SP SP+-2
          CFI (cfiCond50) CFA_XSP16 add(XSP16, 20)
          CFI Block cfiCond51 Using cfiCommon0
          CFI (cfiCond51) Function zclController_ProcessInDiscAttrsRspCmd
          CFI (cfiCond51) Conditional ??CrossCallReturnLabel_112
          CFI (cfiCond51) R6 load(1, XDATA, add(CFA_XSP16, literal(-20)))
          CFI (cfiCond51) VB load(1, XDATA, add(CFA_XSP16, literal(-19)))
          CFI (cfiCond51) V0 load(1, XDATA, add(CFA_XSP16, literal(-18)))
          CFI (cfiCond51) V1 load(1, XDATA, add(CFA_XSP16, literal(-17)))
          CFI (cfiCond51) V2 load(1, XDATA, add(CFA_XSP16, literal(-16)))
          CFI (cfiCond51) V3 load(1, XDATA, add(CFA_XSP16, literal(-15)))
          CFI (cfiCond51) V4 load(1, XDATA, add(CFA_XSP16, literal(-14)))
          CFI (cfiCond51) V5 load(1, XDATA, add(CFA_XSP16, literal(-13)))
          CFI (cfiCond51) V6 load(1, XDATA, add(CFA_XSP16, literal(-12)))
          CFI (cfiCond51) V7 load(1, XDATA, add(CFA_XSP16, literal(-11)))
          CFI (cfiCond51) V8 load(1, XDATA, add(CFA_XSP16, literal(-10)))
          CFI (cfiCond51) V9 load(1, XDATA, add(CFA_XSP16, literal(-9)))
          CFI (cfiCond51) V10 load(1, XDATA, add(CFA_XSP16, literal(-8)))
          CFI (cfiCond51) V11 load(1, XDATA, add(CFA_XSP16, literal(-7)))
          CFI (cfiCond51) R7 load(1, XDATA, add(CFA_XSP16, literal(-6)))
          CFI (cfiCond51) ?RET_LOW load(1, XDATA, add(CFA_XSP16, literal(-5)))
          CFI (cfiCond51) ?RET_HIGH load(1, XDATA, add(CFA_XSP16, literal(-4)))
          CFI (cfiCond51) ?BRET_EXT load(1, XDATA, add(CFA_XSP16, literal(-3)))
          CFI (cfiCond51) DPL0 load(1, XDATA, add(CFA_XSP16, literal(-2)))
          CFI (cfiCond51) DPH0 load(1, XDATA, add(CFA_XSP16, literal(-1)))
          CFI (cfiCond51) CFA_SP SP+-2
          CFI (cfiCond51) CFA_XSP16 add(XSP16, 20)
          CFI Block cfiPicker52 Using cfiCommon1
          CFI (cfiPicker52) NoFunction
          CFI (cfiPicker52) Picker
        MOVX      A,@DPTR
        MOV       ?V8,A
        INC       DPTR
        MOVX      A,@DPTR
        MOV       ?V9,A
        RET
          CFI EndBlock cfiCond48
          CFI EndBlock cfiCond49
          CFI EndBlock cfiCond50
          CFI EndBlock cfiCond51
          CFI EndBlock cfiPicker52
//  622 
//  623 #ifdef ZCL_REPORT_CONFIGURING_DEVICE
//  624 /*********************************************************************
//  625  * @fn      zclController_PrintfAttrData
//  626  *
//  627  * @brief   Tool Function. Print different types of Attributes' Data
//  628  *
//  629  * @param   dataType - data types defined in zcl.h
//  630  * @param   attrData - pointer to the attribute data
//  631  *
//  632  * @return  none
//  633  *********************************************************************/

        RSEG BANKED_CODE:HUGECODE:NOROOT(0)
//  634 static void zclController_PrintfAttrData( uint8 dataType, uint8 *attrData )
zclController_PrintfAttrData:
          CFI Block cfiBlock53 Using cfiCommon0
          CFI Function zclController_PrintfAttrData
        CODE
//  635 {
        FUNCALL zclController_PrintfAttrData, osal_mem_alloc
        LOCFRAME ISTACK, 0, STACK
        LOCFRAME PSTACK, 0, STACK
        LOCFRAME XSTACK, 14, STACK
        LOCFRAME IOVERLAY, 0, STATIC
        LOCFRAME DOVERLAY, 0, STATIC
        ARGFRAME ISTACK, 0, STACK
        ARGFRAME PSTACK, 0, STACK
        ARGFRAME XSTACK, 14, STACK
        ARGFRAME IOVERLAY, 0, STATIC
        ARGFRAME DOVERLAY, 0, STATIC
        FUNCALL zclController_PrintfAttrData, AT_IntxtoChar
        LOCFRAME ISTACK, 0, STACK
        LOCFRAME PSTACK, 0, STACK
        LOCFRAME XSTACK, 14, STACK
        LOCFRAME IOVERLAY, 0, STATIC
        LOCFRAME DOVERLAY, 0, STATIC
        ARGFRAME ISTACK, 0, STACK
        ARGFRAME PSTACK, 0, STACK
        ARGFRAME XSTACK, 14, STACK
        ARGFRAME IOVERLAY, 0, STATIC
        ARGFRAME DOVERLAY, 0, STATIC
        FUNCALL zclController_PrintfAttrData, AT_Uart0_Send
        LOCFRAME ISTACK, 0, STACK
        LOCFRAME PSTACK, 0, STACK
        LOCFRAME XSTACK, 14, STACK
        LOCFRAME IOVERLAY, 0, STATIC
        LOCFRAME DOVERLAY, 0, STATIC
        ARGFRAME ISTACK, 0, STACK
        ARGFRAME PSTACK, 0, STACK
        ARGFRAME XSTACK, 14, STACK
        ARGFRAME IOVERLAY, 0, STATIC
        ARGFRAME DOVERLAY, 0, STATIC
        FUNCALL zclController_PrintfAttrData, osal_mem_free
        LOCFRAME ISTACK, 0, STACK
        LOCFRAME PSTACK, 0, STACK
        LOCFRAME XSTACK, 14, STACK
        LOCFRAME IOVERLAY, 0, STATIC
        LOCFRAME DOVERLAY, 0, STATIC
        ARGFRAME ISTACK, 0, STACK
        ARGFRAME PSTACK, 0, STACK
        ARGFRAME XSTACK, 14, STACK
        ARGFRAME IOVERLAY, 0, STATIC
        ARGFRAME DOVERLAY, 0, STATIC
        FUNCALL zclController_PrintfAttrData, osal_mem_alloc
        LOCFRAME ISTACK, 0, STACK
        LOCFRAME PSTACK, 0, STACK
        LOCFRAME XSTACK, 14, STACK
        LOCFRAME IOVERLAY, 0, STATIC
        LOCFRAME DOVERLAY, 0, STATIC
        ARGFRAME ISTACK, 0, STACK
        ARGFRAME PSTACK, 0, STACK
        ARGFRAME XSTACK, 14, STACK
        ARGFRAME IOVERLAY, 0, STATIC
        ARGFRAME DOVERLAY, 0, STATIC
        FUNCALL zclController_PrintfAttrData, AT_IntxtoChar
        LOCFRAME ISTACK, 0, STACK
        LOCFRAME PSTACK, 0, STACK
        LOCFRAME XSTACK, 14, STACK
        LOCFRAME IOVERLAY, 0, STATIC
        LOCFRAME DOVERLAY, 0, STATIC
        ARGFRAME ISTACK, 0, STACK
        ARGFRAME PSTACK, 0, STACK
        ARGFRAME XSTACK, 14, STACK
        ARGFRAME IOVERLAY, 0, STATIC
        ARGFRAME DOVERLAY, 0, STATIC
        FUNCALL zclController_PrintfAttrData, AT_Uart0_Send
        LOCFRAME ISTACK, 0, STACK
        LOCFRAME PSTACK, 0, STACK
        LOCFRAME XSTACK, 14, STACK
        LOCFRAME IOVERLAY, 0, STATIC
        LOCFRAME DOVERLAY, 0, STATIC
        ARGFRAME ISTACK, 0, STACK
        ARGFRAME PSTACK, 0, STACK
        ARGFRAME XSTACK, 14, STACK
        ARGFRAME IOVERLAY, 0, STATIC
        ARGFRAME DOVERLAY, 0, STATIC
        FUNCALL zclController_PrintfAttrData, osal_mem_free
        LOCFRAME ISTACK, 0, STACK
        LOCFRAME PSTACK, 0, STACK
        LOCFRAME XSTACK, 14, STACK
        LOCFRAME IOVERLAY, 0, STATIC
        LOCFRAME DOVERLAY, 0, STATIC
        ARGFRAME ISTACK, 0, STACK
        ARGFRAME PSTACK, 0, STACK
        ARGFRAME XSTACK, 14, STACK
        ARGFRAME IOVERLAY, 0, STATIC
        ARGFRAME DOVERLAY, 0, STATIC
        FUNCALL zclController_PrintfAttrData, osal_mem_alloc
        LOCFRAME ISTACK, 0, STACK
        LOCFRAME PSTACK, 0, STACK
        LOCFRAME XSTACK, 14, STACK
        LOCFRAME IOVERLAY, 0, STATIC
        LOCFRAME DOVERLAY, 0, STATIC
        ARGFRAME ISTACK, 0, STACK
        ARGFRAME PSTACK, 0, STACK
        ARGFRAME XSTACK, 14, STACK
        ARGFRAME IOVERLAY, 0, STATIC
        ARGFRAME DOVERLAY, 0, STATIC
        FUNCALL zclController_PrintfAttrData, AT_IntxtoChar
        LOCFRAME ISTACK, 0, STACK
        LOCFRAME PSTACK, 0, STACK
        LOCFRAME XSTACK, 14, STACK
        LOCFRAME IOVERLAY, 0, STATIC
        LOCFRAME DOVERLAY, 0, STATIC
        ARGFRAME ISTACK, 0, STACK
        ARGFRAME PSTACK, 0, STACK
        ARGFRAME XSTACK, 14, STACK
        ARGFRAME IOVERLAY, 0, STATIC
        ARGFRAME DOVERLAY, 0, STATIC
        FUNCALL zclController_PrintfAttrData, AT_Uart0_Send
        LOCFRAME ISTACK, 0, STACK
        LOCFRAME PSTACK, 0, STACK
        LOCFRAME XSTACK, 14, STACK
        LOCFRAME IOVERLAY, 0, STATIC
        LOCFRAME DOVERLAY, 0, STATIC
        ARGFRAME ISTACK, 0, STACK
        ARGFRAME PSTACK, 0, STACK
        ARGFRAME XSTACK, 14, STACK
        ARGFRAME IOVERLAY, 0, STATIC
        ARGFRAME DOVERLAY, 0, STATIC
        FUNCALL zclController_PrintfAttrData, osal_mem_free
        LOCFRAME ISTACK, 0, STACK
        LOCFRAME PSTACK, 0, STACK
        LOCFRAME XSTACK, 14, STACK
        LOCFRAME IOVERLAY, 0, STATIC
        LOCFRAME DOVERLAY, 0, STATIC
        ARGFRAME ISTACK, 0, STACK
        ARGFRAME PSTACK, 0, STACK
        ARGFRAME XSTACK, 14, STACK
        ARGFRAME IOVERLAY, 0, STATIC
        ARGFRAME DOVERLAY, 0, STATIC
        FUNCALL zclController_PrintfAttrData, osal_mem_alloc
        LOCFRAME ISTACK, 0, STACK
        LOCFRAME PSTACK, 0, STACK
        LOCFRAME XSTACK, 14, STACK
        LOCFRAME IOVERLAY, 0, STATIC
        LOCFRAME DOVERLAY, 0, STATIC
        ARGFRAME ISTACK, 0, STACK
        ARGFRAME PSTACK, 0, STACK
        ARGFRAME XSTACK, 14, STACK
        ARGFRAME IOVERLAY, 0, STATIC
        ARGFRAME DOVERLAY, 0, STATIC
        FUNCALL zclController_PrintfAttrData, AT_IntxtoChar
        LOCFRAME ISTACK, 0, STACK
        LOCFRAME PSTACK, 0, STACK
        LOCFRAME XSTACK, 14, STACK
        LOCFRAME IOVERLAY, 0, STATIC
        LOCFRAME DOVERLAY, 0, STATIC
        ARGFRAME ISTACK, 0, STACK
        ARGFRAME PSTACK, 0, STACK
        ARGFRAME XSTACK, 14, STACK
        ARGFRAME IOVERLAY, 0, STATIC
        ARGFRAME DOVERLAY, 0, STATIC
        FUNCALL zclController_PrintfAttrData, AT_Uart0_Send
        LOCFRAME ISTACK, 0, STACK
        LOCFRAME PSTACK, 0, STACK
        LOCFRAME XSTACK, 14, STACK
        LOCFRAME IOVERLAY, 0, STATIC
        LOCFRAME DOVERLAY, 0, STATIC
        ARGFRAME ISTACK, 0, STACK
        ARGFRAME PSTACK, 0, STACK
        ARGFRAME XSTACK, 14, STACK
        ARGFRAME IOVERLAY, 0, STATIC
        ARGFRAME DOVERLAY, 0, STATIC
        FUNCALL zclController_PrintfAttrData, osal_mem_free
        LOCFRAME ISTACK, 0, STACK
        LOCFRAME PSTACK, 0, STACK
        LOCFRAME XSTACK, 14, STACK
        LOCFRAME IOVERLAY, 0, STATIC
        LOCFRAME DOVERLAY, 0, STATIC
        ARGFRAME ISTACK, 0, STACK
        ARGFRAME PSTACK, 0, STACK
        ARGFRAME XSTACK, 14, STACK
        ARGFRAME IOVERLAY, 0, STATIC
        ARGFRAME DOVERLAY, 0, STATIC
        FUNCALL zclController_PrintfAttrData, osal_mem_alloc
        LOCFRAME ISTACK, 0, STACK
        LOCFRAME PSTACK, 0, STACK
        LOCFRAME XSTACK, 14, STACK
        LOCFRAME IOVERLAY, 0, STATIC
        LOCFRAME DOVERLAY, 0, STATIC
        ARGFRAME ISTACK, 0, STACK
        ARGFRAME PSTACK, 0, STACK
        ARGFRAME XSTACK, 14, STACK
        ARGFRAME IOVERLAY, 0, STATIC
        ARGFRAME DOVERLAY, 0, STATIC
        FUNCALL zclController_PrintfAttrData, AT_IntxtoChar
        LOCFRAME ISTACK, 0, STACK
        LOCFRAME PSTACK, 0, STACK
        LOCFRAME XSTACK, 14, STACK
        LOCFRAME IOVERLAY, 0, STATIC
        LOCFRAME DOVERLAY, 0, STATIC
        ARGFRAME ISTACK, 0, STACK
        ARGFRAME PSTACK, 0, STACK
        ARGFRAME XSTACK, 14, STACK
        ARGFRAME IOVERLAY, 0, STATIC
        ARGFRAME DOVERLAY, 0, STATIC
        FUNCALL zclController_PrintfAttrData, AT_Uart0_Send
        LOCFRAME ISTACK, 0, STACK
        LOCFRAME PSTACK, 0, STACK
        LOCFRAME XSTACK, 14, STACK
        LOCFRAME IOVERLAY, 0, STATIC
        LOCFRAME DOVERLAY, 0, STATIC
        ARGFRAME ISTACK, 0, STACK
        ARGFRAME PSTACK, 0, STACK
        ARGFRAME XSTACK, 14, STACK
        ARGFRAME IOVERLAY, 0, STATIC
        ARGFRAME DOVERLAY, 0, STATIC
        FUNCALL zclController_PrintfAttrData, osal_mem_free
        LOCFRAME ISTACK, 0, STACK
        LOCFRAME PSTACK, 0, STACK
        LOCFRAME XSTACK, 14, STACK
        LOCFRAME IOVERLAY, 0, STATIC
        LOCFRAME DOVERLAY, 0, STATIC
        ARGFRAME ISTACK, 0, STACK
        ARGFRAME PSTACK, 0, STACK
        ARGFRAME XSTACK, 14, STACK
        ARGFRAME IOVERLAY, 0, STATIC
        ARGFRAME DOVERLAY, 0, STATIC
        FUNCALL zclController_PrintfAttrData, osal_mem_alloc
        LOCFRAME ISTACK, 0, STACK
        LOCFRAME PSTACK, 0, STACK
        LOCFRAME XSTACK, 14, STACK
        LOCFRAME IOVERLAY, 0, STATIC
        LOCFRAME DOVERLAY, 0, STATIC
        ARGFRAME ISTACK, 0, STACK
        ARGFRAME PSTACK, 0, STACK
        ARGFRAME XSTACK, 14, STACK
        ARGFRAME IOVERLAY, 0, STATIC
        ARGFRAME DOVERLAY, 0, STATIC
        FUNCALL zclController_PrintfAttrData, AT_IntxtoChar
        LOCFRAME ISTACK, 0, STACK
        LOCFRAME PSTACK, 0, STACK
        LOCFRAME XSTACK, 14, STACK
        LOCFRAME IOVERLAY, 0, STATIC
        LOCFRAME DOVERLAY, 0, STATIC
        ARGFRAME ISTACK, 0, STACK
        ARGFRAME PSTACK, 0, STACK
        ARGFRAME XSTACK, 14, STACK
        ARGFRAME IOVERLAY, 0, STATIC
        ARGFRAME DOVERLAY, 0, STATIC
        FUNCALL zclController_PrintfAttrData, AT_Uart0_Send
        LOCFRAME ISTACK, 0, STACK
        LOCFRAME PSTACK, 0, STACK
        LOCFRAME XSTACK, 14, STACK
        LOCFRAME IOVERLAY, 0, STATIC
        LOCFRAME DOVERLAY, 0, STATIC
        ARGFRAME ISTACK, 0, STACK
        ARGFRAME PSTACK, 0, STACK
        ARGFRAME XSTACK, 14, STACK
        ARGFRAME IOVERLAY, 0, STATIC
        ARGFRAME DOVERLAY, 0, STATIC
        FUNCALL zclController_PrintfAttrData, osal_mem_free
        LOCFRAME ISTACK, 0, STACK
        LOCFRAME PSTACK, 0, STACK
        LOCFRAME XSTACK, 14, STACK
        LOCFRAME IOVERLAY, 0, STATIC
        LOCFRAME DOVERLAY, 0, STATIC
        ARGFRAME ISTACK, 0, STACK
        ARGFRAME PSTACK, 0, STACK
        ARGFRAME XSTACK, 14, STACK
        ARGFRAME IOVERLAY, 0, STATIC
        ARGFRAME DOVERLAY, 0, STATIC
        FUNCALL zclController_PrintfAttrData, osal_mem_alloc
        LOCFRAME ISTACK, 0, STACK
        LOCFRAME PSTACK, 0, STACK
        LOCFRAME XSTACK, 14, STACK
        LOCFRAME IOVERLAY, 0, STATIC
        LOCFRAME DOVERLAY, 0, STATIC
        ARGFRAME ISTACK, 0, STACK
        ARGFRAME PSTACK, 0, STACK
        ARGFRAME XSTACK, 14, STACK
        ARGFRAME IOVERLAY, 0, STATIC
        ARGFRAME DOVERLAY, 0, STATIC
        FUNCALL zclController_PrintfAttrData, AT_IntxtoChar
        LOCFRAME ISTACK, 0, STACK
        LOCFRAME PSTACK, 0, STACK
        LOCFRAME XSTACK, 14, STACK
        LOCFRAME IOVERLAY, 0, STATIC
        LOCFRAME DOVERLAY, 0, STATIC
        ARGFRAME ISTACK, 0, STACK
        ARGFRAME PSTACK, 0, STACK
        ARGFRAME XSTACK, 14, STACK
        ARGFRAME IOVERLAY, 0, STATIC
        ARGFRAME DOVERLAY, 0, STATIC
        FUNCALL zclController_PrintfAttrData, AT_Uart0_Send
        LOCFRAME ISTACK, 0, STACK
        LOCFRAME PSTACK, 0, STACK
        LOCFRAME XSTACK, 14, STACK
        LOCFRAME IOVERLAY, 0, STATIC
        LOCFRAME DOVERLAY, 0, STATIC
        ARGFRAME ISTACK, 0, STACK
        ARGFRAME PSTACK, 0, STACK
        ARGFRAME XSTACK, 14, STACK
        ARGFRAME IOVERLAY, 0, STATIC
        ARGFRAME DOVERLAY, 0, STATIC
        FUNCALL zclController_PrintfAttrData, osal_mem_free
        LOCFRAME ISTACK, 0, STACK
        LOCFRAME PSTACK, 0, STACK
        LOCFRAME XSTACK, 14, STACK
        LOCFRAME IOVERLAY, 0, STATIC
        LOCFRAME DOVERLAY, 0, STATIC
        ARGFRAME ISTACK, 0, STACK
        ARGFRAME PSTACK, 0, STACK
        ARGFRAME XSTACK, 14, STACK
        ARGFRAME IOVERLAY, 0, STATIC
        ARGFRAME DOVERLAY, 0, STATIC
        FUNCALL zclController_PrintfAttrData, osal_mem_alloc
        LOCFRAME ISTACK, 0, STACK
        LOCFRAME PSTACK, 0, STACK
        LOCFRAME XSTACK, 14, STACK
        LOCFRAME IOVERLAY, 0, STATIC
        LOCFRAME DOVERLAY, 0, STATIC
        ARGFRAME ISTACK, 0, STACK
        ARGFRAME PSTACK, 0, STACK
        ARGFRAME XSTACK, 14, STACK
        ARGFRAME IOVERLAY, 0, STATIC
        ARGFRAME DOVERLAY, 0, STATIC
        FUNCALL zclController_PrintfAttrData, AT_IntxtoChar
        LOCFRAME ISTACK, 0, STACK
        LOCFRAME PSTACK, 0, STACK
        LOCFRAME XSTACK, 14, STACK
        LOCFRAME IOVERLAY, 0, STATIC
        LOCFRAME DOVERLAY, 0, STATIC
        ARGFRAME ISTACK, 0, STACK
        ARGFRAME PSTACK, 0, STACK
        ARGFRAME XSTACK, 14, STACK
        ARGFRAME IOVERLAY, 0, STATIC
        ARGFRAME DOVERLAY, 0, STATIC
        FUNCALL zclController_PrintfAttrData, AT_Uart0_Send
        LOCFRAME ISTACK, 0, STACK
        LOCFRAME PSTACK, 0, STACK
        LOCFRAME XSTACK, 14, STACK
        LOCFRAME IOVERLAY, 0, STATIC
        LOCFRAME DOVERLAY, 0, STATIC
        ARGFRAME ISTACK, 0, STACK
        ARGFRAME PSTACK, 0, STACK
        ARGFRAME XSTACK, 14, STACK
        ARGFRAME IOVERLAY, 0, STATIC
        ARGFRAME DOVERLAY, 0, STATIC
        FUNCALL zclController_PrintfAttrData, osal_mem_free
        LOCFRAME ISTACK, 0, STACK
        LOCFRAME PSTACK, 0, STACK
        LOCFRAME XSTACK, 14, STACK
        LOCFRAME IOVERLAY, 0, STATIC
        LOCFRAME DOVERLAY, 0, STATIC
        ARGFRAME ISTACK, 0, STACK
        ARGFRAME PSTACK, 0, STACK
        ARGFRAME XSTACK, 14, STACK
        ARGFRAME IOVERLAY, 0, STATIC
        ARGFRAME DOVERLAY, 0, STATIC
        FUNCALL zclController_PrintfAttrData, osal_mem_alloc
        LOCFRAME ISTACK, 0, STACK
        LOCFRAME PSTACK, 0, STACK
        LOCFRAME XSTACK, 14, STACK
        LOCFRAME IOVERLAY, 0, STATIC
        LOCFRAME DOVERLAY, 0, STATIC
        ARGFRAME ISTACK, 0, STACK
        ARGFRAME PSTACK, 0, STACK
        ARGFRAME XSTACK, 14, STACK
        ARGFRAME IOVERLAY, 0, STATIC
        ARGFRAME DOVERLAY, 0, STATIC
        FUNCALL zclController_PrintfAttrData, AT_IntxtoChar
        LOCFRAME ISTACK, 0, STACK
        LOCFRAME PSTACK, 0, STACK
        LOCFRAME XSTACK, 14, STACK
        LOCFRAME IOVERLAY, 0, STATIC
        LOCFRAME DOVERLAY, 0, STATIC
        ARGFRAME ISTACK, 0, STACK
        ARGFRAME PSTACK, 0, STACK
        ARGFRAME XSTACK, 14, STACK
        ARGFRAME IOVERLAY, 0, STATIC
        ARGFRAME DOVERLAY, 0, STATIC
        FUNCALL zclController_PrintfAttrData, AT_Uart0_Send
        LOCFRAME ISTACK, 0, STACK
        LOCFRAME PSTACK, 0, STACK
        LOCFRAME XSTACK, 14, STACK
        LOCFRAME IOVERLAY, 0, STATIC
        LOCFRAME DOVERLAY, 0, STATIC
        ARGFRAME ISTACK, 0, STACK
        ARGFRAME PSTACK, 0, STACK
        ARGFRAME XSTACK, 14, STACK
        ARGFRAME IOVERLAY, 0, STATIC
        ARGFRAME DOVERLAY, 0, STATIC
        FUNCALL zclController_PrintfAttrData, osal_mem_free
        LOCFRAME ISTACK, 0, STACK
        LOCFRAME PSTACK, 0, STACK
        LOCFRAME XSTACK, 14, STACK
        LOCFRAME IOVERLAY, 0, STATIC
        LOCFRAME DOVERLAY, 0, STATIC
        ARGFRAME ISTACK, 0, STACK
        ARGFRAME PSTACK, 0, STACK
        ARGFRAME XSTACK, 14, STACK
        ARGFRAME IOVERLAY, 0, STATIC
        ARGFRAME DOVERLAY, 0, STATIC
        REQUIRE ?V0
        REQUIRE ?V2
        REQUIRE ?V3
        REQUIRE ?V4
        REQUIRE ?V5
        MOV       A,#-0xe
        LCALL     ?BANKED_ENTER_XDATA
          CFI DPH0 load(1, XDATA, add(CFA_XSP16, literal(-1)))
          CFI DPL0 load(1, XDATA, add(CFA_XSP16, literal(-2)))
          CFI ?BRET_EXT load(1, XDATA, add(CFA_XSP16, literal(-3)))
          CFI ?RET_HIGH load(1, XDATA, add(CFA_XSP16, literal(-4)))
          CFI ?RET_LOW load(1, XDATA, add(CFA_XSP16, literal(-5)))
          CFI R7 load(1, XDATA, add(CFA_XSP16, literal(-6)))
          CFI V5 load(1, XDATA, add(CFA_XSP16, literal(-7)))
          CFI V4 load(1, XDATA, add(CFA_XSP16, literal(-8)))
          CFI V3 load(1, XDATA, add(CFA_XSP16, literal(-9)))
          CFI V2 load(1, XDATA, add(CFA_XSP16, literal(-10)))
          CFI V1 load(1, XDATA, add(CFA_XSP16, literal(-11)))
          CFI V0 load(1, XDATA, add(CFA_XSP16, literal(-12)))
          CFI VB load(1, XDATA, add(CFA_XSP16, literal(-13)))
          CFI R6 load(1, XDATA, add(CFA_XSP16, literal(-14)))
          CFI CFA_SP SP+0
          CFI CFA_XSP16 add(XSP16, 14)
        ; Saved register size: 14
        ; Auto size: 0
        MOV       A,R2
        MOV       R6,A
        MOV       A,R3
        MOV       R7,A
//  636   uint8 *pStr;
//  637 //  uint16 len;
//  638 
//  639   if ( attrData == NULL )
        MOV       A,R2
        ORL       A,R7
        JNZ       $+5
        LJMP      ??zclController_PrintfAttrData_0 & 0xFFFF
//  640   {
//  641     return;
//  642   }
//  643 
//  644   switch ( dataType )
        MOV       A,R1
        ADD       A,#-0x8
        JNZ       $+5
        LJMP      ??zclController_PrintfAttrData_1 & 0xFFFF
        DEC       A
        JNZ       $+5
        LJMP      ??zclController_PrintfAttrData_2 & 0xFFFF
        DEC       A
        JNZ       $+5
        LJMP      ??zclController_PrintfAttrData_3 & 0xFFFF
        DEC       A
        JNZ       $+5
        LJMP      ??zclController_PrintfAttrData_4 & 0xFFFF
        ADD       A,#-0x5
        JNZ       $+5
        LJMP      ??zclController_PrintfAttrData_1 & 0xFFFF
        ADD       A,#-0x8
        JNZ       $+5
        LJMP      ??zclController_PrintfAttrData_1 & 0xFFFF
        DEC       A
        JNZ       $+5
        LJMP      ??zclController_PrintfAttrData_2 & 0xFFFF
        DEC       A
        JNZ       $+5
        LJMP      ??zclController_PrintfAttrData_3 & 0xFFFF
        DEC       A
        JNZ       $+5
        LJMP      ??zclController_PrintfAttrData_4 & 0xFFFF
        ADD       A,#-0x5
        JNZ       $+5
        LJMP      ??zclController_PrintfAttrData_1 & 0xFFFF
        DEC       A
        JNZ       $+5
        LJMP      ??zclController_PrintfAttrData_2 & 0xFFFF
        DEC       A
        JNZ       $+5
        LJMP      ??zclController_PrintfAttrData_3 & 0xFFFF
        DEC       A
        JNZ       $+5
        LJMP      ??zclController_PrintfAttrData_4 & 0xFFFF
        DEC       A
        JNZ       $+5
        LJMP      ??zclController_PrintfAttrData_5 & 0xFFFF
        DEC       A
        JNZ       $+5
        LJMP      ??zclController_PrintfAttrData_6 & 0xFFFF
        DEC       A
        JNZ       $+5
        LJMP      ??zclController_PrintfAttrData_7 & 0xFFFF
        DEC       A
        JNZ       $+5
        LJMP      ??zclController_PrintfAttrData_8 & 0xFFFF
        DEC       A
        JZ        ??zclController_PrintfAttrData_1
        DEC       A
        JZ        ??zclController_PrintfAttrData_2
        DEC       A
        JZ        ??zclController_PrintfAttrData_3
        DEC       A
        JNZ       $+5
        LJMP      ??zclController_PrintfAttrData_4 & 0xFFFF
        DEC       A
        JNZ       $+5
        LJMP      ??zclController_PrintfAttrData_5 & 0xFFFF
        DEC       A
        JNZ       $+5
        LJMP      ??zclController_PrintfAttrData_6 & 0xFFFF
        DEC       A
        JNZ       $+5
        LJMP      ??zclController_PrintfAttrData_7 & 0xFFFF
        DEC       A
        JNZ       $+5
        LJMP      ??zclController_PrintfAttrData_8 & 0xFFFF
        DEC       A
        JZ        ??zclController_PrintfAttrData_1
        DEC       A
        JZ        ??zclController_PrintfAttrData_2
        ADD       A,#-0x7
        JZ        ??zclController_PrintfAttrData_2
        DEC       A
        JZ        ??zclController_PrintfAttrData_4
        DEC       A
        JNZ       $+5
        LJMP      ??zclController_PrintfAttrData_8 & 0xFFFF
        ADD       A,#0x5a
        JZ        ??zclController_PrintfAttrData_4
        DEC       A
        JZ        ??zclController_PrintfAttrData_4
        DEC       A
        JZ        ??zclController_PrintfAttrData_4
        ADD       A,#-0x6
        JZ        ??zclController_PrintfAttrData_2
        DEC       A
        JZ        ??zclController_PrintfAttrData_2
        DEC       A
        JZ        ??zclController_PrintfAttrData_4
        ADD       A,#-0x6
        JNZ       $+5
        LJMP      ??zclController_PrintfAttrData_8 & 0xFFFF
        DEC       A
        JNZ       $+5
        LJMP      ??zclController_PrintfAttrData_9 & 0xFFFF
        LJMP      ??zclController_PrintfAttrData_0 & 0xFFFF
//  645   {
//  646     case ZCL_DATATYPE_DATA8:
//  647     case ZCL_DATATYPE_BOOLEAN:
//  648     case ZCL_DATATYPE_BITMAP8:
//  649     case ZCL_DATATYPE_INT8:
//  650     case ZCL_DATATYPE_UINT8:
//  651     case ZCL_DATATYPE_ENUM8:
//  652       pStr = zcl_mem_alloc( 2 );
??zclController_PrintfAttrData_1:
        ; Setup parameters for call to function osal_mem_alloc
        LCALL     ?Subroutine28 & 0xFFFF
//  653       AT_IntxtoChar(attrData, pStr, 8);
??CrossCallReturnLabel_102:
        ; Setup parameters for call to function AT_IntxtoChar
        MOV       R1,#0x8
        MOV       R4,?V2
        MOV       R5,?V3
        MOV       A,R6
        MOV       R2,A
        MOV       A,R7
        MOV       R3,A
        LCALL     `??AT_IntxtoChar::?relay`; Banked call to: AT_IntxtoChar
//  654       AT_RESP(pStr, 2);
        ; Setup parameters for call to function AT_Uart0_Send
        MOV       R4,#0x2
        LJMP      ??zclController_PrintfAttrData_10 & 0xFFFF
//  655       zcl_mem_free( pStr );
//  656       break;
//  657 
//  658     case ZCL_DATATYPE_DATA16:
//  659     case ZCL_DATATYPE_BITMAP16:
//  660     case ZCL_DATATYPE_UINT16:
//  661     case ZCL_DATATYPE_INT16:
//  662     case ZCL_DATATYPE_ENUM16:
//  663     case ZCL_DATATYPE_SEMI_PREC:
//  664     case ZCL_DATATYPE_CLUSTER_ID:
//  665     case ZCL_DATATYPE_ATTR_ID:
//  666       pStr = zcl_mem_alloc( 4 );
??zclController_PrintfAttrData_2:
        ; Setup parameters for call to function osal_mem_alloc
        MOV       R2,#0x4
        LCALL     ?Subroutine27 & 0xFFFF
//  667       AT_IntxtoChar(attrData, pStr, 16);
//  668       AT_RESP(pStr, 4);
??CrossCallReturnLabel_40:
        ; Setup parameters for call to function AT_Uart0_Send
        MOV       R4,#0x4
        LJMP      ??zclController_PrintfAttrData_10 & 0xFFFF
//  669       zcl_mem_free( pStr );
//  670       break;
//  671 
//  672     case ZCL_DATATYPE_DATA24:
//  673     case ZCL_DATATYPE_BITMAP24:
//  674     case ZCL_DATATYPE_UINT24:
//  675     case ZCL_DATATYPE_INT24:
//  676       pStr = zcl_mem_alloc( 6 );
??zclController_PrintfAttrData_3:
        ; Setup parameters for call to function osal_mem_alloc
        MOV       R2,#0x6
        LCALL     ??Subroutine56_0 & 0xFFFF
//  677       AT_IntxtoChar(attrData, pStr, 24);
??CrossCallReturnLabel_103:
        ; Setup parameters for call to function AT_IntxtoChar
        MOV       R1,#0x18
        MOV       R4,?V2
        MOV       R5,?V3
        MOV       A,R6
        MOV       R2,A
        MOV       A,R7
        MOV       R3,A
        LCALL     `??AT_IntxtoChar::?relay`; Banked call to: AT_IntxtoChar
//  678       AT_RESP(pStr, 6);
        ; Setup parameters for call to function AT_Uart0_Send
        MOV       R4,#0x6
        SJMP      ??zclController_PrintfAttrData_10
//  679       zcl_mem_free( pStr );
//  680       break;
//  681 
//  682     case ZCL_DATATYPE_DATA32:
//  683     case ZCL_DATATYPE_BITMAP32:
//  684     case ZCL_DATATYPE_UINT32:
//  685     case ZCL_DATATYPE_INT32:
//  686     case ZCL_DATATYPE_SINGLE_PREC:
//  687     case ZCL_DATATYPE_TOD:
//  688     case ZCL_DATATYPE_DATE:
//  689     case ZCL_DATATYPE_UTC:
//  690     case ZCL_DATATYPE_BAC_OID:
//  691       pStr = zcl_mem_alloc( 8 );
??zclController_PrintfAttrData_4:
        ; Setup parameters for call to function osal_mem_alloc
        MOV       R2,#0x8
        LCALL     ??Subroutine56_0 & 0xFFFF
//  692       AT_IntxtoChar(attrData, pStr, 32);
??CrossCallReturnLabel_104:
        ; Setup parameters for call to function AT_IntxtoChar
        MOV       R1,#0x20
        MOV       R4,?V2
        MOV       R5,?V3
        MOV       A,R6
        MOV       R2,A
        MOV       A,R7
        MOV       R3,A
        LCALL     `??AT_IntxtoChar::?relay`; Banked call to: AT_IntxtoChar
//  693       AT_RESP(pStr, 8);
        ; Setup parameters for call to function AT_Uart0_Send
        MOV       R4,#0x8
        SJMP      ??zclController_PrintfAttrData_10
//  694       zcl_mem_free( pStr );
//  695       break;
//  696 
//  697     case ZCL_DATATYPE_UINT40:
//  698     case ZCL_DATATYPE_INT40:
//  699       pStr = zcl_mem_alloc( 10 );
??zclController_PrintfAttrData_5:
        ; Setup parameters for call to function osal_mem_alloc
        MOV       R2,#0xa
        LCALL     ??Subroutine56_0 & 0xFFFF
//  700       AT_IntxtoChar(attrData, pStr, 40);
??CrossCallReturnLabel_105:
        ; Setup parameters for call to function AT_IntxtoChar
        MOV       R1,#0x28
        MOV       R4,?V2
        MOV       R5,?V3
        MOV       A,R6
        MOV       R2,A
        MOV       A,R7
        MOV       R3,A
        LCALL     `??AT_IntxtoChar::?relay`; Banked call to: AT_IntxtoChar
//  701       AT_RESP(pStr, 10);
        ; Setup parameters for call to function AT_Uart0_Send
        MOV       R4,#0xa
        SJMP      ??zclController_PrintfAttrData_10
//  702       zcl_mem_free( pStr );
//  703       break;
//  704 
//  705     case ZCL_DATATYPE_UINT48:
//  706     case ZCL_DATATYPE_INT48:
//  707       pStr = zcl_mem_alloc( 12 );
??zclController_PrintfAttrData_6:
        ; Setup parameters for call to function osal_mem_alloc
        MOV       R2,#0xc
        LCALL     ??Subroutine56_0 & 0xFFFF
//  708       AT_IntxtoChar(attrData, pStr, 48);
??CrossCallReturnLabel_106:
        ; Setup parameters for call to function AT_IntxtoChar
        MOV       R1,#0x30
        MOV       R4,?V2
        MOV       R5,?V3
        MOV       A,R6
        MOV       R2,A
        MOV       A,R7
        MOV       R3,A
        LCALL     `??AT_IntxtoChar::?relay`; Banked call to: AT_IntxtoChar
//  709       AT_RESP(pStr, 12);
        ; Setup parameters for call to function AT_Uart0_Send
        MOV       R4,#0xc
        SJMP      ??zclController_PrintfAttrData_10
//  710       zcl_mem_free( pStr );
//  711       break;
//  712 
//  713     case ZCL_DATATYPE_UINT56:
//  714     case ZCL_DATATYPE_INT56:
//  715       pStr = zcl_mem_alloc( 14 );
??zclController_PrintfAttrData_7:
        ; Setup parameters for call to function osal_mem_alloc
        MOV       R2,#0xe
        LCALL     ??Subroutine56_0 & 0xFFFF
//  716       AT_IntxtoChar(attrData, pStr, 56);
??CrossCallReturnLabel_107:
        ; Setup parameters for call to function AT_IntxtoChar
        MOV       R1,#0x38
        MOV       R4,?V2
        MOV       R5,?V3
        MOV       A,R6
        MOV       R2,A
        MOV       A,R7
        MOV       R3,A
        LCALL     `??AT_IntxtoChar::?relay`; Banked call to: AT_IntxtoChar
//  717       AT_RESP(pStr, 14);
        ; Setup parameters for call to function AT_Uart0_Send
        MOV       R4,#0xe
        SJMP      ??zclController_PrintfAttrData_10
//  718       zcl_mem_free( pStr );
//  719       break;
//  720 
//  721     case ZCL_DATATYPE_DOUBLE_PREC:
//  722     case ZCL_DATATYPE_IEEE_ADDR:
//  723     case ZCL_DATATYPE_UINT64:
//  724     case ZCL_DATATYPE_INT64:
//  725       pStr = zcl_mem_alloc( 16 );
??zclController_PrintfAttrData_8:
        ; Setup parameters for call to function osal_mem_alloc
        MOV       R2,#0x10
        LCALL     ??Subroutine56_0 & 0xFFFF
//  726       AT_IntxtoChar(attrData, pStr, 64);
??CrossCallReturnLabel_108:
        ; Setup parameters for call to function AT_IntxtoChar
        MOV       R1,#0x40
        MOV       R4,?V2
        MOV       R5,?V3
        MOV       A,R6
        MOV       R2,A
        MOV       A,R7
        MOV       R3,A
        LCALL     `??AT_IntxtoChar::?relay`; Banked call to: AT_IntxtoChar
//  727       AT_RESP(pStr, 16);
        ; Setup parameters for call to function AT_Uart0_Send
        MOV       R4,#0x10
        SJMP      ??zclController_PrintfAttrData_10
//  728       zcl_mem_free( pStr );
//  729       break;
//  730 
//  731     case ZCL_DATATYPE_CHAR_STR:
//  732     case ZCL_DATATYPE_OCTET_STR:
//  733       pStr = (uint8*)attrData;
//  734 //      len = *pStr;
//  735 //      AT_RESP(pStr+1, len);
//  736       break;
//  737 
//  738     case ZCL_DATATYPE_LONG_CHAR_STR:
//  739     case ZCL_DATATYPE_LONG_OCTET_STR:
//  740       pStr = (uint8*)attrData;
//  741 //      len = BUILD_UINT16( pStr[0], pStr[1] );
//  742 //      AT_RESP(pStr+2, len);
//  743       break;
//  744 
//  745     case ZCL_DATATYPE_128_BIT_SEC_KEY:
//  746       pStr = zcl_mem_alloc( SEC_KEY_LEN*2 );
??zclController_PrintfAttrData_9:
        ; Setup parameters for call to function osal_mem_alloc
        MOV       R2,#0x20
        LCALL     ?Subroutine27 & 0xFFFF
//  747       AT_IntxtoChar(attrData, pStr, SEC_KEY_LEN);
//  748       AT_RESP(pStr, SEC_KEY_LEN*2);
??CrossCallReturnLabel_41:
        ; Setup parameters for call to function AT_Uart0_Send
        MOV       R4,#0x20
??zclController_PrintfAttrData_10:
        MOV       R5,#0x0
        MOV       R2,?V2
        MOV       R3,?V3
        LCALL     `??AT_Uart0_Send::?relay`; Banked call to: AT_Uart0_Send
//  749       zcl_mem_free( pStr );
        ; Setup parameters for call to function osal_mem_free
        MOV       R2,?V2
        MOV       R3,?V3
        LCALL     `??osal_mem_free::?relay`; Banked call to: osal_mem_free
//  750       break;
//  751 
//  752     case ZCL_DATATYPE_NO_DATA:
//  753     case ZCL_DATATYPE_UNKNOWN:
//  754       // Fall through
//  755 
//  756     default:
//  757       break;
//  758   }
//  759 }
??zclController_PrintfAttrData_0:
        LJMP      ?Subroutine1 & 0xFFFF
          CFI EndBlock cfiBlock53

        RSEG BANKED_CODE:HUGECODE:NOROOT(0)
?Subroutine27:
          CFI Block cfiCond54 Using cfiCommon0
          CFI Function zclController_PrintfAttrData
          CFI Conditional ??CrossCallReturnLabel_40
          CFI R6 load(1, XDATA, add(CFA_XSP16, literal(-14)))
          CFI VB load(1, XDATA, add(CFA_XSP16, literal(-13)))
          CFI V0 load(1, XDATA, add(CFA_XSP16, literal(-12)))
          CFI V1 load(1, XDATA, add(CFA_XSP16, literal(-11)))
          CFI V2 load(1, XDATA, add(CFA_XSP16, literal(-10)))
          CFI V3 load(1, XDATA, add(CFA_XSP16, literal(-9)))
          CFI V4 load(1, XDATA, add(CFA_XSP16, literal(-8)))
          CFI V5 load(1, XDATA, add(CFA_XSP16, literal(-7)))
          CFI R7 load(1, XDATA, add(CFA_XSP16, literal(-6)))
          CFI ?RET_LOW load(1, XDATA, add(CFA_XSP16, literal(-5)))
          CFI ?RET_HIGH load(1, XDATA, add(CFA_XSP16, literal(-4)))
          CFI ?BRET_EXT load(1, XDATA, add(CFA_XSP16, literal(-3)))
          CFI DPL0 load(1, XDATA, add(CFA_XSP16, literal(-2)))
          CFI DPH0 load(1, XDATA, add(CFA_XSP16, literal(-1)))
          CFI CFA_SP SP+-2
          CFI CFA_XSP16 add(XSP16, 14)
          CFI Block cfiCond55 Using cfiCommon0
          CFI (cfiCond55) Function zclController_PrintfAttrData
          CFI (cfiCond55) Conditional ??CrossCallReturnLabel_41
          CFI (cfiCond55) R6 load(1, XDATA, add(CFA_XSP16, literal(-14)))
          CFI (cfiCond55) VB load(1, XDATA, add(CFA_XSP16, literal(-13)))
          CFI (cfiCond55) V0 load(1, XDATA, add(CFA_XSP16, literal(-12)))
          CFI (cfiCond55) V1 load(1, XDATA, add(CFA_XSP16, literal(-11)))
          CFI (cfiCond55) V2 load(1, XDATA, add(CFA_XSP16, literal(-10)))
          CFI (cfiCond55) V3 load(1, XDATA, add(CFA_XSP16, literal(-9)))
          CFI (cfiCond55) V4 load(1, XDATA, add(CFA_XSP16, literal(-8)))
          CFI (cfiCond55) V5 load(1, XDATA, add(CFA_XSP16, literal(-7)))
          CFI (cfiCond55) R7 load(1, XDATA, add(CFA_XSP16, literal(-6)))
          CFI (cfiCond55) ?RET_LOW load(1, XDATA, add(CFA_XSP16, literal(-5)))
          CFI (cfiCond55) ?RET_HIGH load(1, XDATA, add(CFA_XSP16, literal(-4)))
          CFI (cfiCond55) ?BRET_EXT load(1, XDATA, add(CFA_XSP16, literal(-3)))
          CFI (cfiCond55) DPL0 load(1, XDATA, add(CFA_XSP16, literal(-2)))
          CFI (cfiCond55) DPH0 load(1, XDATA, add(CFA_XSP16, literal(-1)))
          CFI (cfiCond55) CFA_SP SP+-2
          CFI (cfiCond55) CFA_XSP16 add(XSP16, 14)
          CFI Block cfiPicker56 Using cfiCommon1
          CFI (cfiPicker56) NoFunction
          CFI (cfiPicker56) Picker
        MOV       R3,#0x0
        LCALL     `??osal_mem_alloc::?relay`; Banked call to: osal_mem_alloc
        MOV       ?V2,R2
        MOV       ?V3,R3
        ; Setup parameters for call to function AT_IntxtoChar
        ; Setup parameters for call to function AT_IntxtoChar
        MOV       R1,#0x10
        MOV       R4,?V2
        MOV       R5,?V3
        MOV       A,R6
        MOV       R2,A
        MOV       A,R7
        MOV       R3,A
        LCALL     `??AT_IntxtoChar::?relay`; Banked call to: AT_IntxtoChar
        RET
          CFI EndBlock cfiCond54
          CFI EndBlock cfiCond55
          CFI EndBlock cfiPicker56
//  760 #endif
//  761 
//  762 #ifdef ZCL_READ
//  763 /*********************************************************************
//  764  * @fn      zclController_ProcessInReadRspCmd
//  765  *
//  766  * @brief   Process the "Profile" Read Response Command
//  767  *
//  768  * @param   pInMsg - incoming message to process
//  769  *
//  770  * @return  none
//  771  *********************************************************************/

        RSEG BANKED_CODE:HUGECODE:NOROOT(0)
//  772 static uint8 zclController_ProcessInReadRspCmd( zclIncomingMsg_t *pInMsg )
zclController_ProcessInReadRspCmd:
          CFI Block cfiBlock57 Using cfiCommon0
          CFI Function zclController_ProcessInReadRspCmd
        CODE
//  773 {
        FUNCALL zclController_ProcessInReadRspCmd, AT_Uart0_Send
        LOCFRAME ISTACK, 0, STACK
        LOCFRAME PSTACK, 0, STACK
        LOCFRAME XSTACK, 39, STACK
        LOCFRAME IOVERLAY, 0, STATIC
        LOCFRAME DOVERLAY, 0, STATIC
        ARGFRAME ISTACK, 0, STACK
        ARGFRAME PSTACK, 0, STACK
        ARGFRAME XSTACK, 39, STACK
        ARGFRAME IOVERLAY, 0, STATIC
        ARGFRAME DOVERLAY, 0, STATIC
        FUNCALL zclController_ProcessInReadRspCmd, AT_Uart0_Send
        LOCFRAME ISTACK, 0, STACK
        LOCFRAME PSTACK, 0, STACK
        LOCFRAME XSTACK, 39, STACK
        LOCFRAME IOVERLAY, 0, STATIC
        LOCFRAME DOVERLAY, 0, STATIC
        ARGFRAME ISTACK, 0, STACK
        ARGFRAME PSTACK, 0, STACK
        ARGFRAME XSTACK, 39, STACK
        ARGFRAME IOVERLAY, 0, STATIC
        ARGFRAME DOVERLAY, 0, STATIC
        FUNCALL zclController_ProcessInReadRspCmd, AT_Uart0_Send
        LOCFRAME ISTACK, 0, STACK
        LOCFRAME PSTACK, 0, STACK
        LOCFRAME XSTACK, 39, STACK
        LOCFRAME IOVERLAY, 0, STATIC
        LOCFRAME DOVERLAY, 0, STATIC
        ARGFRAME ISTACK, 0, STACK
        ARGFRAME PSTACK, 0, STACK
        ARGFRAME XSTACK, 39, STACK
        ARGFRAME IOVERLAY, 0, STATIC
        ARGFRAME DOVERLAY, 0, STATIC
        FUNCALL zclController_ProcessInReadRspCmd, AT_Int8toChar
        LOCFRAME ISTACK, 0, STACK
        LOCFRAME PSTACK, 0, STACK
        LOCFRAME XSTACK, 39, STACK
        LOCFRAME IOVERLAY, 0, STATIC
        LOCFRAME DOVERLAY, 0, STATIC
        ARGFRAME ISTACK, 0, STACK
        ARGFRAME PSTACK, 0, STACK
        ARGFRAME XSTACK, 39, STACK
        ARGFRAME IOVERLAY, 0, STATIC
        ARGFRAME DOVERLAY, 0, STATIC
        FUNCALL zclController_ProcessInReadRspCmd, AT_Uart0_Send
        LOCFRAME ISTACK, 0, STACK
        LOCFRAME PSTACK, 0, STACK
        LOCFRAME XSTACK, 39, STACK
        LOCFRAME IOVERLAY, 0, STATIC
        LOCFRAME DOVERLAY, 0, STATIC
        ARGFRAME ISTACK, 0, STACK
        ARGFRAME PSTACK, 0, STACK
        ARGFRAME XSTACK, 39, STACK
        ARGFRAME IOVERLAY, 0, STATIC
        ARGFRAME DOVERLAY, 0, STATIC
        FUNCALL zclController_ProcessInReadRspCmd, AT_Uart0_Send
        LOCFRAME ISTACK, 0, STACK
        LOCFRAME PSTACK, 0, STACK
        LOCFRAME XSTACK, 39, STACK
        LOCFRAME IOVERLAY, 0, STATIC
        LOCFRAME DOVERLAY, 0, STATIC
        ARGFRAME ISTACK, 0, STACK
        ARGFRAME PSTACK, 0, STACK
        ARGFRAME XSTACK, 39, STACK
        ARGFRAME IOVERLAY, 0, STATIC
        ARGFRAME DOVERLAY, 0, STATIC
        FUNCALL zclController_ProcessInReadRspCmd, AT_Uart0_Send
        LOCFRAME ISTACK, 0, STACK
        LOCFRAME PSTACK, 0, STACK
        LOCFRAME XSTACK, 39, STACK
        LOCFRAME IOVERLAY, 0, STATIC
        LOCFRAME DOVERLAY, 0, STATIC
        ARGFRAME ISTACK, 0, STACK
        ARGFRAME PSTACK, 0, STACK
        ARGFRAME XSTACK, 39, STACK
        ARGFRAME IOVERLAY, 0, STATIC
        ARGFRAME DOVERLAY, 0, STATIC
        FUNCALL zclController_ProcessInReadRspCmd, AT_Int16toChar
        LOCFRAME ISTACK, 0, STACK
        LOCFRAME PSTACK, 0, STACK
        LOCFRAME XSTACK, 39, STACK
        LOCFRAME IOVERLAY, 0, STATIC
        LOCFRAME DOVERLAY, 0, STATIC
        ARGFRAME ISTACK, 0, STACK
        ARGFRAME PSTACK, 0, STACK
        ARGFRAME XSTACK, 39, STACK
        ARGFRAME IOVERLAY, 0, STATIC
        ARGFRAME DOVERLAY, 0, STATIC
        FUNCALL zclController_ProcessInReadRspCmd, AT_Uart0_Send
        LOCFRAME ISTACK, 0, STACK
        LOCFRAME PSTACK, 0, STACK
        LOCFRAME XSTACK, 39, STACK
        LOCFRAME IOVERLAY, 0, STATIC
        LOCFRAME DOVERLAY, 0, STATIC
        ARGFRAME ISTACK, 0, STACK
        ARGFRAME PSTACK, 0, STACK
        ARGFRAME XSTACK, 39, STACK
        ARGFRAME IOVERLAY, 0, STATIC
        ARGFRAME DOVERLAY, 0, STATIC
        FUNCALL zclController_ProcessInReadRspCmd, AT_GetIEEEAddrStr
        LOCFRAME ISTACK, 0, STACK
        LOCFRAME PSTACK, 0, STACK
        LOCFRAME XSTACK, 39, STACK
        LOCFRAME IOVERLAY, 0, STATIC
        LOCFRAME DOVERLAY, 0, STATIC
        ARGFRAME ISTACK, 0, STACK
        ARGFRAME PSTACK, 0, STACK
        ARGFRAME XSTACK, 39, STACK
        ARGFRAME IOVERLAY, 0, STATIC
        ARGFRAME DOVERLAY, 0, STATIC
        FUNCALL zclController_ProcessInReadRspCmd, AT_Uart0_Send
        LOCFRAME ISTACK, 0, STACK
        LOCFRAME PSTACK, 0, STACK
        LOCFRAME XSTACK, 39, STACK
        LOCFRAME IOVERLAY, 0, STATIC
        LOCFRAME DOVERLAY, 0, STATIC
        ARGFRAME ISTACK, 0, STACK
        ARGFRAME PSTACK, 0, STACK
        ARGFRAME XSTACK, 39, STACK
        ARGFRAME IOVERLAY, 0, STATIC
        ARGFRAME DOVERLAY, 0, STATIC
        FUNCALL zclController_ProcessInReadRspCmd, AT_Uart0_Send
        LOCFRAME ISTACK, 0, STACK
        LOCFRAME PSTACK, 0, STACK
        LOCFRAME XSTACK, 39, STACK
        LOCFRAME IOVERLAY, 0, STATIC
        LOCFRAME DOVERLAY, 0, STATIC
        ARGFRAME ISTACK, 0, STACK
        ARGFRAME PSTACK, 0, STACK
        ARGFRAME XSTACK, 39, STACK
        ARGFRAME IOVERLAY, 0, STATIC
        ARGFRAME DOVERLAY, 0, STATIC
        FUNCALL zclController_ProcessInReadRspCmd, AT_Int8toChar
        LOCFRAME ISTACK, 0, STACK
        LOCFRAME PSTACK, 0, STACK
        LOCFRAME XSTACK, 39, STACK
        LOCFRAME IOVERLAY, 0, STATIC
        LOCFRAME DOVERLAY, 0, STATIC
        ARGFRAME ISTACK, 0, STACK
        ARGFRAME PSTACK, 0, STACK
        ARGFRAME XSTACK, 39, STACK
        ARGFRAME IOVERLAY, 0, STATIC
        ARGFRAME DOVERLAY, 0, STATIC
        FUNCALL zclController_ProcessInReadRspCmd, AT_Uart0_Send
        LOCFRAME ISTACK, 0, STACK
        LOCFRAME PSTACK, 0, STACK
        LOCFRAME XSTACK, 39, STACK
        LOCFRAME IOVERLAY, 0, STATIC
        LOCFRAME DOVERLAY, 0, STATIC
        ARGFRAME ISTACK, 0, STACK
        ARGFRAME PSTACK, 0, STACK
        ARGFRAME XSTACK, 39, STACK
        ARGFRAME IOVERLAY, 0, STATIC
        ARGFRAME DOVERLAY, 0, STATIC
        FUNCALL zclController_ProcessInReadRspCmd, AT_Uart0_Send
        LOCFRAME ISTACK, 0, STACK
        LOCFRAME PSTACK, 0, STACK
        LOCFRAME XSTACK, 39, STACK
        LOCFRAME IOVERLAY, 0, STATIC
        LOCFRAME DOVERLAY, 0, STATIC
        ARGFRAME ISTACK, 0, STACK
        ARGFRAME PSTACK, 0, STACK
        ARGFRAME XSTACK, 39, STACK
        ARGFRAME IOVERLAY, 0, STATIC
        ARGFRAME DOVERLAY, 0, STATIC
        FUNCALL zclController_ProcessInReadRspCmd, AT_Int16toChar
        LOCFRAME ISTACK, 0, STACK
        LOCFRAME PSTACK, 0, STACK
        LOCFRAME XSTACK, 39, STACK
        LOCFRAME IOVERLAY, 0, STATIC
        LOCFRAME DOVERLAY, 0, STATIC
        ARGFRAME ISTACK, 0, STACK
        ARGFRAME PSTACK, 0, STACK
        ARGFRAME XSTACK, 39, STACK
        ARGFRAME IOVERLAY, 0, STATIC
        ARGFRAME DOVERLAY, 0, STATIC
        FUNCALL zclController_ProcessInReadRspCmd, AT_Uart0_Send
        LOCFRAME ISTACK, 0, STACK
        LOCFRAME PSTACK, 0, STACK
        LOCFRAME XSTACK, 39, STACK
        LOCFRAME IOVERLAY, 0, STATIC
        LOCFRAME DOVERLAY, 0, STATIC
        ARGFRAME ISTACK, 0, STACK
        ARGFRAME PSTACK, 0, STACK
        ARGFRAME XSTACK, 39, STACK
        ARGFRAME IOVERLAY, 0, STATIC
        ARGFRAME DOVERLAY, 0, STATIC
        FUNCALL zclController_ProcessInReadRspCmd, AT_Uart0_Send
        LOCFRAME ISTACK, 0, STACK
        LOCFRAME PSTACK, 0, STACK
        LOCFRAME XSTACK, 39, STACK
        LOCFRAME IOVERLAY, 0, STATIC
        LOCFRAME DOVERLAY, 0, STATIC
        ARGFRAME ISTACK, 0, STACK
        ARGFRAME PSTACK, 0, STACK
        ARGFRAME XSTACK, 39, STACK
        ARGFRAME IOVERLAY, 0, STATIC
        ARGFRAME DOVERLAY, 0, STATIC
        FUNCALL zclController_ProcessInReadRspCmd, AT_Int16toChar
        LOCFRAME ISTACK, 0, STACK
        LOCFRAME PSTACK, 0, STACK
        LOCFRAME XSTACK, 39, STACK
        LOCFRAME IOVERLAY, 0, STATIC
        LOCFRAME DOVERLAY, 0, STATIC
        ARGFRAME ISTACK, 0, STACK
        ARGFRAME PSTACK, 0, STACK
        ARGFRAME XSTACK, 39, STACK
        ARGFRAME IOVERLAY, 0, STATIC
        ARGFRAME DOVERLAY, 0, STATIC
        FUNCALL zclController_ProcessInReadRspCmd, AT_Uart0_Send
        LOCFRAME ISTACK, 0, STACK
        LOCFRAME PSTACK, 0, STACK
        LOCFRAME XSTACK, 39, STACK
        LOCFRAME IOVERLAY, 0, STATIC
        LOCFRAME DOVERLAY, 0, STATIC
        ARGFRAME ISTACK, 0, STACK
        ARGFRAME PSTACK, 0, STACK
        ARGFRAME XSTACK, 39, STACK
        ARGFRAME IOVERLAY, 0, STATIC
        ARGFRAME DOVERLAY, 0, STATIC
        FUNCALL zclController_ProcessInReadRspCmd, AT_Uart0_Send
        LOCFRAME ISTACK, 0, STACK
        LOCFRAME PSTACK, 0, STACK
        LOCFRAME XSTACK, 39, STACK
        LOCFRAME IOVERLAY, 0, STATIC
        LOCFRAME DOVERLAY, 0, STATIC
        ARGFRAME ISTACK, 0, STACK
        ARGFRAME PSTACK, 0, STACK
        ARGFRAME XSTACK, 39, STACK
        ARGFRAME IOVERLAY, 0, STATIC
        ARGFRAME DOVERLAY, 0, STATIC
        FUNCALL zclController_ProcessInReadRspCmd, AT_Int8toChar
        LOCFRAME ISTACK, 0, STACK
        LOCFRAME PSTACK, 0, STACK
        LOCFRAME XSTACK, 39, STACK
        LOCFRAME IOVERLAY, 0, STATIC
        LOCFRAME DOVERLAY, 0, STATIC
        ARGFRAME ISTACK, 0, STACK
        ARGFRAME PSTACK, 0, STACK
        ARGFRAME XSTACK, 39, STACK
        ARGFRAME IOVERLAY, 0, STATIC
        ARGFRAME DOVERLAY, 0, STATIC
        FUNCALL zclController_ProcessInReadRspCmd, AT_Uart0_Send
        LOCFRAME ISTACK, 0, STACK
        LOCFRAME PSTACK, 0, STACK
        LOCFRAME XSTACK, 39, STACK
        LOCFRAME IOVERLAY, 0, STATIC
        LOCFRAME DOVERLAY, 0, STATIC
        ARGFRAME ISTACK, 0, STACK
        ARGFRAME PSTACK, 0, STACK
        ARGFRAME XSTACK, 39, STACK
        ARGFRAME IOVERLAY, 0, STATIC
        ARGFRAME DOVERLAY, 0, STATIC
        FUNCALL zclController_ProcessInReadRspCmd, AT_Uart0_Send
        LOCFRAME ISTACK, 0, STACK
        LOCFRAME PSTACK, 0, STACK
        LOCFRAME XSTACK, 39, STACK
        LOCFRAME IOVERLAY, 0, STATIC
        LOCFRAME DOVERLAY, 0, STATIC
        ARGFRAME ISTACK, 0, STACK
        ARGFRAME PSTACK, 0, STACK
        ARGFRAME XSTACK, 39, STACK
        ARGFRAME IOVERLAY, 0, STATIC
        ARGFRAME DOVERLAY, 0, STATIC
        FUNCALL zclController_ProcessInReadRspCmd, AT_Int8toChar
        LOCFRAME ISTACK, 0, STACK
        LOCFRAME PSTACK, 0, STACK
        LOCFRAME XSTACK, 39, STACK
        LOCFRAME IOVERLAY, 0, STATIC
        LOCFRAME DOVERLAY, 0, STATIC
        ARGFRAME ISTACK, 0, STACK
        ARGFRAME PSTACK, 0, STACK
        ARGFRAME XSTACK, 39, STACK
        ARGFRAME IOVERLAY, 0, STATIC
        ARGFRAME DOVERLAY, 0, STATIC
        FUNCALL zclController_ProcessInReadRspCmd, AT_Uart0_Send
        LOCFRAME ISTACK, 0, STACK
        LOCFRAME PSTACK, 0, STACK
        LOCFRAME XSTACK, 39, STACK
        LOCFRAME IOVERLAY, 0, STATIC
        LOCFRAME DOVERLAY, 0, STATIC
        ARGFRAME ISTACK, 0, STACK
        ARGFRAME PSTACK, 0, STACK
        ARGFRAME XSTACK, 39, STACK
        ARGFRAME IOVERLAY, 0, STATIC
        ARGFRAME DOVERLAY, 0, STATIC
        FUNCALL zclController_ProcessInReadRspCmd, AT_Uart0_Send
        LOCFRAME ISTACK, 0, STACK
        LOCFRAME PSTACK, 0, STACK
        LOCFRAME XSTACK, 39, STACK
        LOCFRAME IOVERLAY, 0, STATIC
        LOCFRAME DOVERLAY, 0, STATIC
        ARGFRAME ISTACK, 0, STACK
        ARGFRAME PSTACK, 0, STACK
        ARGFRAME XSTACK, 39, STACK
        ARGFRAME IOVERLAY, 0, STATIC
        ARGFRAME DOVERLAY, 0, STATIC
        FUNCALL zclController_ProcessInReadRspCmd, AT_Uart0_Send
        LOCFRAME ISTACK, 0, STACK
        LOCFRAME PSTACK, 0, STACK
        LOCFRAME XSTACK, 39, STACK
        LOCFRAME IOVERLAY, 0, STATIC
        LOCFRAME DOVERLAY, 0, STATIC
        ARGFRAME ISTACK, 0, STACK
        ARGFRAME PSTACK, 0, STACK
        ARGFRAME XSTACK, 39, STACK
        ARGFRAME IOVERLAY, 0, STATIC
        ARGFRAME DOVERLAY, 0, STATIC
        FUNCALL zclController_ProcessInReadRspCmd, AT_Int16toChar
        LOCFRAME ISTACK, 0, STACK
        LOCFRAME PSTACK, 0, STACK
        LOCFRAME XSTACK, 39, STACK
        LOCFRAME IOVERLAY, 0, STATIC
        LOCFRAME DOVERLAY, 0, STATIC
        ARGFRAME ISTACK, 0, STACK
        ARGFRAME PSTACK, 0, STACK
        ARGFRAME XSTACK, 39, STACK
        ARGFRAME IOVERLAY, 0, STATIC
        ARGFRAME DOVERLAY, 0, STATIC
        FUNCALL zclController_ProcessInReadRspCmd, AT_Uart0_Send
        LOCFRAME ISTACK, 0, STACK
        LOCFRAME PSTACK, 0, STACK
        LOCFRAME XSTACK, 39, STACK
        LOCFRAME IOVERLAY, 0, STATIC
        LOCFRAME DOVERLAY, 0, STATIC
        ARGFRAME ISTACK, 0, STACK
        ARGFRAME PSTACK, 0, STACK
        ARGFRAME XSTACK, 39, STACK
        ARGFRAME IOVERLAY, 0, STATIC
        ARGFRAME DOVERLAY, 0, STATIC
        REQUIRE ?V0
        REQUIRE ?V1
        REQUIRE ?V2
        REQUIRE ?V4
        REQUIRE ?V5
        REQUIRE ?V6
        REQUIRE ?V7
        REQUIRE ?V8
        REQUIRE ?V9
        REQUIRE ?V10
        REQUIRE ?V11
        REQUIRE ?V12
        REQUIRE ?V13
        MOV       A,#-0x16
        LCALL     ?BANKED_ENTER_XDATA
          CFI DPH0 load(1, XDATA, add(CFA_XSP16, literal(-1)))
          CFI DPL0 load(1, XDATA, add(CFA_XSP16, literal(-2)))
          CFI ?BRET_EXT load(1, XDATA, add(CFA_XSP16, literal(-3)))
          CFI ?RET_HIGH load(1, XDATA, add(CFA_XSP16, literal(-4)))
          CFI ?RET_LOW load(1, XDATA, add(CFA_XSP16, literal(-5)))
          CFI R7 load(1, XDATA, add(CFA_XSP16, literal(-6)))
          CFI V13 load(1, XDATA, add(CFA_XSP16, literal(-7)))
          CFI V12 load(1, XDATA, add(CFA_XSP16, literal(-8)))
          CFI V11 load(1, XDATA, add(CFA_XSP16, literal(-9)))
          CFI V10 load(1, XDATA, add(CFA_XSP16, literal(-10)))
          CFI V9 load(1, XDATA, add(CFA_XSP16, literal(-11)))
          CFI V8 load(1, XDATA, add(CFA_XSP16, literal(-12)))
          CFI V7 load(1, XDATA, add(CFA_XSP16, literal(-13)))
          CFI V6 load(1, XDATA, add(CFA_XSP16, literal(-14)))
          CFI V5 load(1, XDATA, add(CFA_XSP16, literal(-15)))
          CFI V4 load(1, XDATA, add(CFA_XSP16, literal(-16)))
          CFI V3 load(1, XDATA, add(CFA_XSP16, literal(-17)))
          CFI V2 load(1, XDATA, add(CFA_XSP16, literal(-18)))
          CFI V1 load(1, XDATA, add(CFA_XSP16, literal(-19)))
          CFI V0 load(1, XDATA, add(CFA_XSP16, literal(-20)))
          CFI VB load(1, XDATA, add(CFA_XSP16, literal(-21)))
          CFI R6 load(1, XDATA, add(CFA_XSP16, literal(-22)))
          CFI CFA_SP SP+0
          CFI CFA_XSP16 add(XSP16, 22)
        ; Saved register size: 22
        ; Auto size: 17
        MOV       A,#-0x11
        LCALL     ?ALLOC_XSTACK8
          CFI CFA_XSP16 add(XSP16, 39)
        MOV       ?V6,R2
        MOV       ?V7,R3
//  774   zclReadRspCmd_t *readRspCmd;
//  775   uint8 i;
//  776 
//  777   readRspCmd = (zclReadRspCmd_t *)pInMsg->attrCmd;
        LCALL     ?Subroutine36 & 0xFFFF
??CrossCallReturnLabel_60:
        ADDC      A,?V7
        MOV       DPH,A
        MOVX      A,@DPTR
        MOV       ?V12,A
        INC       DPTR
        MOVX      A,@DPTR
        MOV       ?V13,A
//  778   uint8 str[17];
//  779   AT_NEW_LINE();
        MOV       ?V8,#`?<Constant "\\r\\n">` & 0xff
        MOV       ?V9,#(`?<Constant "\\r\\n">` >> 8) & 0xff
        ; Setup parameters for call to function AT_Uart0_Send
        MOV       R4,#0x2
        MOV       R5,#0x0
        MOV       R2,?V8
        MOV       R3,?V9
        LCALL     `??AT_Uart0_Send::?relay`; Banked call to: AT_Uart0_Send
//  780   AT_RESP("---------ADDR,EP,C_ID,A_ID,ST,DT,DV", 35);
        ; Setup parameters for call to function AT_Uart0_Send
        MOV       R4,#0x23
        MOV       R5,#0x0
        MOV       R2,#`?<Constant "---------ADDR,EP,C_ID...">` & 0xff
        MOV       R3,#(`?<Constant "---------ADDR,EP,C_ID...">` >> 8) & 0xff
        LCALL     ?Subroutine32 & 0xFFFF
//  781   AT_NEW_LINE();
//  782   for (i = 0; i < readRspCmd->numAttr; i++)
??CrossCallReturnLabel_52:
        MOV       A,?V6
        ADD       A,#0xa
        MOV       ?V10,A
        CLR       A
        ADDC      A,?V7
        MOV       ?V11,A
        SJMP      ??zclController_ProcessInReadRspCmd_0
//  783   {
//  784     AT_RESP("ReadAttr:", 9);
//  785     // Node Address
//  786     if (pInMsg->srcAddr.addrMode == (afAddrMode_t)Addr16Bit) {
//  787       AT_Int16toChar(pInMsg->srcAddr.addr.shortAddr, str);
//  788       AT_RESP(str, 4);
//  789     } else {
//  790       AT_GetIEEEAddrStr(pInMsg->srcAddr.addr.extAddr, str);
//  791       AT_RESP(str, 16);
//  792     }
//  793     AT_RESP(",", 1);
//  794 
//  795     // Endpoint
//  796     AT_Int8toChar(pInMsg->srcAddr.endPoint, str);
//  797     AT_RESP(str, 2);
//  798     AT_RESP(",", 1);
//  799 
//  800     // Cluster ID
//  801     AT_Int16toChar(pInMsg->clusterId, str);
//  802     AT_RESP(str, 4);
//  803     AT_RESP(",", 1);
//  804 
//  805     // Attribute ID
//  806     AT_Int16toChar(readRspCmd->attrList[i].attrID, str);
//  807     AT_RESP(str, 4);
//  808     AT_RESP(",", 1);
//  809 
//  810     // Status
//  811     AT_Int8toChar(readRspCmd->attrList[i].status, str);
//  812     AT_RESP(str,2);
//  813     AT_RESP(",",1);
//  814 
//  815     // Data type
//  816     AT_Int8toChar(readRspCmd->attrList[i].dataType, str);
//  817     AT_RESP(str,2);
//  818     AT_RESP(",",1);
//  819 
//  820     // Attribute value
//  821     if (readRspCmd->attrList[i].dataType == ZCL_DATATYPE_CHAR_STR) {
//  822       AT_RESP(readRspCmd->attrList[i].data+1, readRspCmd->attrList[i].data[0]);
//  823     } else if (readRspCmd->attrList[i].dataType == ZCL_DATATYPE_DATA16||
//  824                readRspCmd->attrList[i].dataType == ZCL_DATATYPE_UINT16||
//  825                readRspCmd->attrList[i].dataType == ZCL_DATATYPE_INT16) {
//  826       AT_Int16toChar(*((uint16*)readRspCmd->attrList[i].data),str);
//  827       AT_RESP(str, 4);
//  828     } else {
//  829       AT_Int8toChar((uint8)readRspCmd->attrList[i].data[0],str);
??zclController_ProcessInReadRspCmd_1:
        ; Setup parameters for call to function AT_Int8toChar
        LCALL     ?Subroutine18 & 0xFFFF
//  830       AT_RESP(str,2);
//  831     }
??CrossCallReturnLabel_22:
        MOV       R5,#0x0
        MOV       R2,?XSP + 0
        MOV       R3,?XSP + 1
??zclController_ProcessInReadRspCmd_2:
        LCALL     ?Subroutine46 & 0xFFFF
//  832 
//  833     AT_NEW_LINE();
??CrossCallReturnLabel_84:
        INC       ?V2
??zclController_ProcessInReadRspCmd_0:
        MOV       DPL,?V12
        MOV       DPH,?V13
        LCALL     ?Subroutine22 & 0xFFFF
??CrossCallReturnLabel_29:
        JC        $+5
        LJMP      ??zclController_ProcessInReadRspCmd_3 & 0xFFFF
        ; Setup parameters for call to function AT_Uart0_Send
        MOV       R4,#0x9
        MOV       R5,#0x0
        MOV       R2,#`?<Constant "ReadAttr:">` & 0xff
        MOV       R3,#(`?<Constant "ReadAttr:">` >> 8) & 0xff
        LCALL     `??AT_Uart0_Send::?relay`; Banked call to: AT_Uart0_Send
        MOV       A,?V6
        ADD       A,#0x12
        MOV       DPL,A
        CLR       A
        ADDC      A,?V7
        LCALL     ?Subroutine23 & 0xFFFF
??CrossCallReturnLabel_33:
        JNZ       ??zclController_ProcessInReadRspCmd_4
        ; Setup parameters for call to function AT_Int16toChar
        MOV       DPL,?V10
        MOV       DPH,?V11
        LCALL     ??Subroutine60_0 & 0xFFFF
??CrossCallReturnLabel_115:
        SJMP      ??zclController_ProcessInReadRspCmd_5
??zclController_ProcessInReadRspCmd_4:
        ; Setup parameters for call to function AT_GetIEEEAddrStr
        MOV       R2,?V10
        MOV       R3,?V11
        LCALL     `??AT_GetIEEEAddrStr::?relay`; Banked call to: AT_GetIEEEAddrStr
        ; Setup parameters for call to function AT_Uart0_Send
        MOV       R4,#0x10
??zclController_ProcessInReadRspCmd_5:
        LCALL     ?Subroutine31 & 0xFFFF
??CrossCallReturnLabel_50:
        MOV       A,?V6
        LCALL     ?Subroutine37 & 0xFFFF
??CrossCallReturnLabel_65:
        ADDC      A,?V7
        LCALL     ?Subroutine8 & 0xFFFF
??CrossCallReturnLabel_4:
        MOV       DPL,?V6
        MOV       DPH,?V7
        INC       DPTR
        INC       DPTR
        INC       DPTR
        INC       DPTR
        INC       DPTR
        INC       DPTR
        INC       DPTR
        LCALL     ?Subroutine9 & 0xFFFF
??CrossCallReturnLabel_6:
        MOV       A,?V2
        MOV       B,#0x6
        MUL       AB
        MOV       R0,A
        MOV       R1,B
        MOV       A,?V12
        ADD       A,R0
        MOV       ?V0,A
        MOV       A,?V13
        LCALL     ?Subroutine35 & 0xFFFF
??CrossCallReturnLabel_58:
        LCALL     ?Subroutine7 & 0xFFFF
??CrossCallReturnLabel_2:
        MOV       DPL,?V0
        MOV       DPH,?V1
        INC       DPTR
        INC       DPTR
        INC       DPTR
        LCALL     ?Subroutine14 & 0xFFFF
??CrossCallReturnLabel_14:
        MOV       R2,#`?<Constant ",">` & 0xff
        MOV       R3,#(`?<Constant ",">` >> 8) & 0xff
        LCALL     `??AT_Uart0_Send::?relay`; Banked call to: AT_Uart0_Send
        MOV       A,?V0
        ADD       A,#0x4
        LCALL     ?Subroutine6 & 0xFFFF
??CrossCallReturnLabel_0:
        ADD       A,#0x5
        LCALL     ?Subroutine30 & 0xFFFF
??CrossCallReturnLabel_45:
        MOV       A,#0x42
        XRL       A,R0
        JNZ       ??zclController_ProcessInReadRspCmd_6
        LCALL     ?Subroutine16 & 0xFFFF
??CrossCallReturnLabel_18:
        LJMP      ??zclController_ProcessInReadRspCmd_2 & 0xFFFF
??zclController_ProcessInReadRspCmd_6:
        MOV       A,#0x9
        XRL       A,R0
        JZ        ??zclController_ProcessInReadRspCmd_7
        MOV       A,#0x21
        XRL       A,R0
        JZ        ??zclController_ProcessInReadRspCmd_7
        MOV       A,#0x29
        XRL       A,R0
        JZ        $+5
        LJMP      ??zclController_ProcessInReadRspCmd_1 & 0xFFFF
??zclController_ProcessInReadRspCmd_7:
        ; Setup parameters for call to function AT_Int16toChar
        LCALL     ?Subroutine11 & 0xFFFF
//  834   }
??CrossCallReturnLabel_113:
        LJMP      ??CrossCallReturnLabel_22 & 0xFFFF
//  835 
//  836   return TRUE;
??zclController_ProcessInReadRspCmd_3:
          CFI EndBlock cfiBlock57
        REQUIRE ?Subroutine3
        ; // Fall through to label ?Subroutine3
//  837 }

        RSEG BANKED_CODE:HUGECODE:NOROOT(0)
?Subroutine3:
          CFI Block cfiBlock58 Using cfiCommon0
          CFI NoFunction
          CFI CFA_SP SP+0
          CFI CFA_XSP16 add(XSP16, 39)
          CFI VB load(1, XDATA, add(CFA_XSP16, literal(-21)))
          CFI DPL0 load(1, XDATA, add(CFA_XSP16, literal(-2)))
          CFI DPH0 load(1, XDATA, add(CFA_XSP16, literal(-1)))
          CFI R6 load(1, XDATA, add(CFA_XSP16, literal(-22)))
          CFI R7 load(1, XDATA, add(CFA_XSP16, literal(-6)))
          CFI V0 load(1, XDATA, add(CFA_XSP16, literal(-20)))
          CFI V1 load(1, XDATA, add(CFA_XSP16, literal(-19)))
          CFI V2 load(1, XDATA, add(CFA_XSP16, literal(-18)))
          CFI V3 load(1, XDATA, add(CFA_XSP16, literal(-17)))
          CFI V4 load(1, XDATA, add(CFA_XSP16, literal(-16)))
          CFI V5 load(1, XDATA, add(CFA_XSP16, literal(-15)))
          CFI V6 load(1, XDATA, add(CFA_XSP16, literal(-14)))
          CFI V7 load(1, XDATA, add(CFA_XSP16, literal(-13)))
          CFI V8 load(1, XDATA, add(CFA_XSP16, literal(-12)))
          CFI V9 load(1, XDATA, add(CFA_XSP16, literal(-11)))
          CFI V10 load(1, XDATA, add(CFA_XSP16, literal(-10)))
          CFI V11 load(1, XDATA, add(CFA_XSP16, literal(-9)))
          CFI V12 load(1, XDATA, add(CFA_XSP16, literal(-8)))
          CFI V13 load(1, XDATA, add(CFA_XSP16, literal(-7)))
          CFI ?BRET_EXT load(1, XDATA, add(CFA_XSP16, literal(-3)))
          CFI ?RET_HIGH load(1, XDATA, add(CFA_XSP16, literal(-4)))
          CFI ?RET_LOW load(1, XDATA, add(CFA_XSP16, literal(-5)))
        MOV       R1,#0x1
        MOV       A,#0x11
        LCALL     ?DEALLOC_XSTACK8
          CFI EndBlock cfiBlock58
        REQUIRE ??Subroutine59_0
        ; // Fall through to label ??Subroutine59_0

        RSEG BANKED_CODE:HUGECODE:NOROOT(0)
??Subroutine59_0:
          CFI Block cfiBlock59 Using cfiCommon0
          CFI NoFunction
          CFI CFA_SP SP+0
          CFI CFA_XSP16 add(XSP16, 22)
          CFI VB load(1, XDATA, add(CFA_XSP16, literal(-21)))
          CFI DPL0 load(1, XDATA, add(CFA_XSP16, literal(-2)))
          CFI DPH0 load(1, XDATA, add(CFA_XSP16, literal(-1)))
          CFI R6 load(1, XDATA, add(CFA_XSP16, literal(-22)))
          CFI R7 load(1, XDATA, add(CFA_XSP16, literal(-6)))
          CFI V0 load(1, XDATA, add(CFA_XSP16, literal(-20)))
          CFI V1 load(1, XDATA, add(CFA_XSP16, literal(-19)))
          CFI V2 load(1, XDATA, add(CFA_XSP16, literal(-18)))
          CFI V3 load(1, XDATA, add(CFA_XSP16, literal(-17)))
          CFI V4 load(1, XDATA, add(CFA_XSP16, literal(-16)))
          CFI V5 load(1, XDATA, add(CFA_XSP16, literal(-15)))
          CFI V6 load(1, XDATA, add(CFA_XSP16, literal(-14)))
          CFI V7 load(1, XDATA, add(CFA_XSP16, literal(-13)))
          CFI V8 load(1, XDATA, add(CFA_XSP16, literal(-12)))
          CFI V9 load(1, XDATA, add(CFA_XSP16, literal(-11)))
          CFI V10 load(1, XDATA, add(CFA_XSP16, literal(-10)))
          CFI V11 load(1, XDATA, add(CFA_XSP16, literal(-9)))
          CFI V12 load(1, XDATA, add(CFA_XSP16, literal(-8)))
          CFI V13 load(1, XDATA, add(CFA_XSP16, literal(-7)))
          CFI ?BRET_EXT load(1, XDATA, add(CFA_XSP16, literal(-3)))
          CFI ?RET_HIGH load(1, XDATA, add(CFA_XSP16, literal(-4)))
          CFI ?RET_LOW load(1, XDATA, add(CFA_XSP16, literal(-5)))
        MOV       R7,#0xe
        LJMP      ?BANKED_LEAVE_XDATA
          CFI EndBlock cfiBlock59
//  838 #endif // ZCL_READ
//  839 
//  840 #ifdef ZCL_WRITE
//  841 /*********************************************************************
//  842  * @fn      zclController_ProcessInWriteRspCmd
//  843  *
//  844  * @brief   Process the "Profile" Write Response Command
//  845  *
//  846  * @param   pInMsg - incoming message to process
//  847  *
//  848  * @return  none
//  849  ********************************************************************/

        RSEG BANKED_CODE:HUGECODE:NOROOT(0)
//  850 static uint8 zclController_ProcessInWriteRspCmd( zclIncomingMsg_t *pInMsg )
zclController_ProcessInWriteRspCmd:
          CFI Block cfiBlock60 Using cfiCommon0
          CFI Function zclController_ProcessInWriteRspCmd
        CODE
//  851 {
        FUNCALL zclController_ProcessInWriteRspCmd, AT_Uart0_Send
        LOCFRAME ISTACK, 0, STACK
        LOCFRAME PSTACK, 0, STACK
        LOCFRAME XSTACK, 39, STACK
        LOCFRAME IOVERLAY, 0, STATIC
        LOCFRAME DOVERLAY, 0, STATIC
        ARGFRAME ISTACK, 0, STACK
        ARGFRAME PSTACK, 0, STACK
        ARGFRAME XSTACK, 39, STACK
        ARGFRAME IOVERLAY, 0, STATIC
        ARGFRAME DOVERLAY, 0, STATIC
        FUNCALL zclController_ProcessInWriteRspCmd, AT_Uart0_Send
        LOCFRAME ISTACK, 0, STACK
        LOCFRAME PSTACK, 0, STACK
        LOCFRAME XSTACK, 39, STACK
        LOCFRAME IOVERLAY, 0, STATIC
        LOCFRAME DOVERLAY, 0, STATIC
        ARGFRAME ISTACK, 0, STACK
        ARGFRAME PSTACK, 0, STACK
        ARGFRAME XSTACK, 39, STACK
        ARGFRAME IOVERLAY, 0, STATIC
        ARGFRAME DOVERLAY, 0, STATIC
        FUNCALL zclController_ProcessInWriteRspCmd, AT_Uart0_Send
        LOCFRAME ISTACK, 0, STACK
        LOCFRAME PSTACK, 0, STACK
        LOCFRAME XSTACK, 39, STACK
        LOCFRAME IOVERLAY, 0, STATIC
        LOCFRAME DOVERLAY, 0, STATIC
        ARGFRAME ISTACK, 0, STACK
        ARGFRAME PSTACK, 0, STACK
        ARGFRAME XSTACK, 39, STACK
        ARGFRAME IOVERLAY, 0, STATIC
        ARGFRAME DOVERLAY, 0, STATIC
        FUNCALL zclController_ProcessInWriteRspCmd, AT_GetIEEEAddrStr
        LOCFRAME ISTACK, 0, STACK
        LOCFRAME PSTACK, 0, STACK
        LOCFRAME XSTACK, 39, STACK
        LOCFRAME IOVERLAY, 0, STATIC
        LOCFRAME DOVERLAY, 0, STATIC
        ARGFRAME ISTACK, 0, STACK
        ARGFRAME PSTACK, 0, STACK
        ARGFRAME XSTACK, 39, STACK
        ARGFRAME IOVERLAY, 0, STATIC
        ARGFRAME DOVERLAY, 0, STATIC
        FUNCALL zclController_ProcessInWriteRspCmd, AT_Uart0_Send
        LOCFRAME ISTACK, 0, STACK
        LOCFRAME PSTACK, 0, STACK
        LOCFRAME XSTACK, 39, STACK
        LOCFRAME IOVERLAY, 0, STATIC
        LOCFRAME DOVERLAY, 0, STATIC
        ARGFRAME ISTACK, 0, STACK
        ARGFRAME PSTACK, 0, STACK
        ARGFRAME XSTACK, 39, STACK
        ARGFRAME IOVERLAY, 0, STATIC
        ARGFRAME DOVERLAY, 0, STATIC
        FUNCALL zclController_ProcessInWriteRspCmd, AT_Uart0_Send
        LOCFRAME ISTACK, 0, STACK
        LOCFRAME PSTACK, 0, STACK
        LOCFRAME XSTACK, 39, STACK
        LOCFRAME IOVERLAY, 0, STATIC
        LOCFRAME DOVERLAY, 0, STATIC
        ARGFRAME ISTACK, 0, STACK
        ARGFRAME PSTACK, 0, STACK
        ARGFRAME XSTACK, 39, STACK
        ARGFRAME IOVERLAY, 0, STATIC
        ARGFRAME DOVERLAY, 0, STATIC
        FUNCALL zclController_ProcessInWriteRspCmd, AT_Int8toChar
        LOCFRAME ISTACK, 0, STACK
        LOCFRAME PSTACK, 0, STACK
        LOCFRAME XSTACK, 39, STACK
        LOCFRAME IOVERLAY, 0, STATIC
        LOCFRAME DOVERLAY, 0, STATIC
        ARGFRAME ISTACK, 0, STACK
        ARGFRAME PSTACK, 0, STACK
        ARGFRAME XSTACK, 39, STACK
        ARGFRAME IOVERLAY, 0, STATIC
        ARGFRAME DOVERLAY, 0, STATIC
        FUNCALL zclController_ProcessInWriteRspCmd, AT_Uart0_Send
        LOCFRAME ISTACK, 0, STACK
        LOCFRAME PSTACK, 0, STACK
        LOCFRAME XSTACK, 39, STACK
        LOCFRAME IOVERLAY, 0, STATIC
        LOCFRAME DOVERLAY, 0, STATIC
        ARGFRAME ISTACK, 0, STACK
        ARGFRAME PSTACK, 0, STACK
        ARGFRAME XSTACK, 39, STACK
        ARGFRAME IOVERLAY, 0, STATIC
        ARGFRAME DOVERLAY, 0, STATIC
        FUNCALL zclController_ProcessInWriteRspCmd, AT_Uart0_Send
        LOCFRAME ISTACK, 0, STACK
        LOCFRAME PSTACK, 0, STACK
        LOCFRAME XSTACK, 39, STACK
        LOCFRAME IOVERLAY, 0, STATIC
        LOCFRAME DOVERLAY, 0, STATIC
        ARGFRAME ISTACK, 0, STACK
        ARGFRAME PSTACK, 0, STACK
        ARGFRAME XSTACK, 39, STACK
        ARGFRAME IOVERLAY, 0, STATIC
        ARGFRAME DOVERLAY, 0, STATIC
        FUNCALL zclController_ProcessInWriteRspCmd, AT_Int16toChar
        LOCFRAME ISTACK, 0, STACK
        LOCFRAME PSTACK, 0, STACK
        LOCFRAME XSTACK, 39, STACK
        LOCFRAME IOVERLAY, 0, STATIC
        LOCFRAME DOVERLAY, 0, STATIC
        ARGFRAME ISTACK, 0, STACK
        ARGFRAME PSTACK, 0, STACK
        ARGFRAME XSTACK, 39, STACK
        ARGFRAME IOVERLAY, 0, STATIC
        ARGFRAME DOVERLAY, 0, STATIC
        FUNCALL zclController_ProcessInWriteRspCmd, AT_Uart0_Send
        LOCFRAME ISTACK, 0, STACK
        LOCFRAME PSTACK, 0, STACK
        LOCFRAME XSTACK, 39, STACK
        LOCFRAME IOVERLAY, 0, STATIC
        LOCFRAME DOVERLAY, 0, STATIC
        ARGFRAME ISTACK, 0, STACK
        ARGFRAME PSTACK, 0, STACK
        ARGFRAME XSTACK, 39, STACK
        ARGFRAME IOVERLAY, 0, STATIC
        ARGFRAME DOVERLAY, 0, STATIC
        FUNCALL zclController_ProcessInWriteRspCmd, AT_Uart0_Send
        LOCFRAME ISTACK, 0, STACK
        LOCFRAME PSTACK, 0, STACK
        LOCFRAME XSTACK, 39, STACK
        LOCFRAME IOVERLAY, 0, STATIC
        LOCFRAME DOVERLAY, 0, STATIC
        ARGFRAME ISTACK, 0, STACK
        ARGFRAME PSTACK, 0, STACK
        ARGFRAME XSTACK, 39, STACK
        ARGFRAME IOVERLAY, 0, STATIC
        ARGFRAME DOVERLAY, 0, STATIC
        FUNCALL zclController_ProcessInWriteRspCmd, AT_Int16toChar
        LOCFRAME ISTACK, 0, STACK
        LOCFRAME PSTACK, 0, STACK
        LOCFRAME XSTACK, 39, STACK
        LOCFRAME IOVERLAY, 0, STATIC
        LOCFRAME DOVERLAY, 0, STATIC
        ARGFRAME ISTACK, 0, STACK
        ARGFRAME PSTACK, 0, STACK
        ARGFRAME XSTACK, 39, STACK
        ARGFRAME IOVERLAY, 0, STATIC
        ARGFRAME DOVERLAY, 0, STATIC
        FUNCALL zclController_ProcessInWriteRspCmd, AT_Uart0_Send
        LOCFRAME ISTACK, 0, STACK
        LOCFRAME PSTACK, 0, STACK
        LOCFRAME XSTACK, 39, STACK
        LOCFRAME IOVERLAY, 0, STATIC
        LOCFRAME DOVERLAY, 0, STATIC
        ARGFRAME ISTACK, 0, STACK
        ARGFRAME PSTACK, 0, STACK
        ARGFRAME XSTACK, 39, STACK
        ARGFRAME IOVERLAY, 0, STATIC
        ARGFRAME DOVERLAY, 0, STATIC
        FUNCALL zclController_ProcessInWriteRspCmd, AT_Uart0_Send
        LOCFRAME ISTACK, 0, STACK
        LOCFRAME PSTACK, 0, STACK
        LOCFRAME XSTACK, 39, STACK
        LOCFRAME IOVERLAY, 0, STATIC
        LOCFRAME DOVERLAY, 0, STATIC
        ARGFRAME ISTACK, 0, STACK
        ARGFRAME PSTACK, 0, STACK
        ARGFRAME XSTACK, 39, STACK
        ARGFRAME IOVERLAY, 0, STATIC
        ARGFRAME DOVERLAY, 0, STATIC
        FUNCALL zclController_ProcessInWriteRspCmd, AT_Int8toChar
        LOCFRAME ISTACK, 0, STACK
        LOCFRAME PSTACK, 0, STACK
        LOCFRAME XSTACK, 39, STACK
        LOCFRAME IOVERLAY, 0, STATIC
        LOCFRAME DOVERLAY, 0, STATIC
        ARGFRAME ISTACK, 0, STACK
        ARGFRAME PSTACK, 0, STACK
        ARGFRAME XSTACK, 39, STACK
        ARGFRAME IOVERLAY, 0, STATIC
        ARGFRAME DOVERLAY, 0, STATIC
        FUNCALL zclController_ProcessInWriteRspCmd, AT_Uart0_Send
        LOCFRAME ISTACK, 0, STACK
        LOCFRAME PSTACK, 0, STACK
        LOCFRAME XSTACK, 39, STACK
        LOCFRAME IOVERLAY, 0, STATIC
        LOCFRAME DOVERLAY, 0, STATIC
        ARGFRAME ISTACK, 0, STACK
        ARGFRAME PSTACK, 0, STACK
        ARGFRAME XSTACK, 39, STACK
        ARGFRAME IOVERLAY, 0, STATIC
        ARGFRAME DOVERLAY, 0, STATIC
        FUNCALL zclController_ProcessInWriteRspCmd, AT_Uart0_Send
        LOCFRAME ISTACK, 0, STACK
        LOCFRAME PSTACK, 0, STACK
        LOCFRAME XSTACK, 39, STACK
        LOCFRAME IOVERLAY, 0, STATIC
        LOCFRAME DOVERLAY, 0, STATIC
        ARGFRAME ISTACK, 0, STACK
        ARGFRAME PSTACK, 0, STACK
        ARGFRAME XSTACK, 39, STACK
        ARGFRAME IOVERLAY, 0, STATIC
        ARGFRAME DOVERLAY, 0, STATIC
        FUNCALL zclController_ProcessInWriteRspCmd, AT_Uart0_Send
        LOCFRAME ISTACK, 0, STACK
        LOCFRAME PSTACK, 0, STACK
        LOCFRAME XSTACK, 39, STACK
        LOCFRAME IOVERLAY, 0, STATIC
        LOCFRAME DOVERLAY, 0, STATIC
        ARGFRAME ISTACK, 0, STACK
        ARGFRAME PSTACK, 0, STACK
        ARGFRAME XSTACK, 39, STACK
        ARGFRAME IOVERLAY, 0, STATIC
        ARGFRAME DOVERLAY, 0, STATIC
        FUNCALL zclController_ProcessInWriteRspCmd, AT_Int16toChar
        LOCFRAME ISTACK, 0, STACK
        LOCFRAME PSTACK, 0, STACK
        LOCFRAME XSTACK, 39, STACK
        LOCFRAME IOVERLAY, 0, STATIC
        LOCFRAME DOVERLAY, 0, STATIC
        ARGFRAME ISTACK, 0, STACK
        ARGFRAME PSTACK, 0, STACK
        ARGFRAME XSTACK, 39, STACK
        ARGFRAME IOVERLAY, 0, STATIC
        ARGFRAME DOVERLAY, 0, STATIC
        FUNCALL zclController_ProcessInWriteRspCmd, AT_Uart0_Send
        LOCFRAME ISTACK, 0, STACK
        LOCFRAME PSTACK, 0, STACK
        LOCFRAME XSTACK, 39, STACK
        LOCFRAME IOVERLAY, 0, STATIC
        LOCFRAME DOVERLAY, 0, STATIC
        ARGFRAME ISTACK, 0, STACK
        ARGFRAME PSTACK, 0, STACK
        ARGFRAME XSTACK, 39, STACK
        ARGFRAME IOVERLAY, 0, STATIC
        ARGFRAME DOVERLAY, 0, STATIC
        FUNCALL zclController_ProcessInWriteRspCmd, AT_Uart0_Send
        LOCFRAME ISTACK, 0, STACK
        LOCFRAME PSTACK, 0, STACK
        LOCFRAME XSTACK, 39, STACK
        LOCFRAME IOVERLAY, 0, STATIC
        LOCFRAME DOVERLAY, 0, STATIC
        ARGFRAME ISTACK, 0, STACK
        ARGFRAME PSTACK, 0, STACK
        ARGFRAME XSTACK, 39, STACK
        ARGFRAME IOVERLAY, 0, STATIC
        ARGFRAME DOVERLAY, 0, STATIC
        REQUIRE ?V0
        REQUIRE ?V1
        REQUIRE ?V2
        REQUIRE ?V4
        REQUIRE ?V5
        REQUIRE ?V6
        REQUIRE ?V7
        REQUIRE ?V8
        REQUIRE ?V9
        REQUIRE ?V10
        REQUIRE ?V11
        REQUIRE ?V12
        REQUIRE ?V13
        MOV       A,#-0x16
        LCALL     ?BANKED_ENTER_XDATA
          CFI DPH0 load(1, XDATA, add(CFA_XSP16, literal(-1)))
          CFI DPL0 load(1, XDATA, add(CFA_XSP16, literal(-2)))
          CFI ?BRET_EXT load(1, XDATA, add(CFA_XSP16, literal(-3)))
          CFI ?RET_HIGH load(1, XDATA, add(CFA_XSP16, literal(-4)))
          CFI ?RET_LOW load(1, XDATA, add(CFA_XSP16, literal(-5)))
          CFI R7 load(1, XDATA, add(CFA_XSP16, literal(-6)))
          CFI V13 load(1, XDATA, add(CFA_XSP16, literal(-7)))
          CFI V12 load(1, XDATA, add(CFA_XSP16, literal(-8)))
          CFI V11 load(1, XDATA, add(CFA_XSP16, literal(-9)))
          CFI V10 load(1, XDATA, add(CFA_XSP16, literal(-10)))
          CFI V9 load(1, XDATA, add(CFA_XSP16, literal(-11)))
          CFI V8 load(1, XDATA, add(CFA_XSP16, literal(-12)))
          CFI V7 load(1, XDATA, add(CFA_XSP16, literal(-13)))
          CFI V6 load(1, XDATA, add(CFA_XSP16, literal(-14)))
          CFI V5 load(1, XDATA, add(CFA_XSP16, literal(-15)))
          CFI V4 load(1, XDATA, add(CFA_XSP16, literal(-16)))
          CFI V3 load(1, XDATA, add(CFA_XSP16, literal(-17)))
          CFI V2 load(1, XDATA, add(CFA_XSP16, literal(-18)))
          CFI V1 load(1, XDATA, add(CFA_XSP16, literal(-19)))
          CFI V0 load(1, XDATA, add(CFA_XSP16, literal(-20)))
          CFI VB load(1, XDATA, add(CFA_XSP16, literal(-21)))
          CFI R6 load(1, XDATA, add(CFA_XSP16, literal(-22)))
          CFI CFA_SP SP+0
          CFI CFA_XSP16 add(XSP16, 22)
        ; Saved register size: 22
        ; Auto size: 17
        MOV       A,#-0x11
        LCALL     ?ALLOC_XSTACK8
          CFI CFA_XSP16 add(XSP16, 39)
        MOV       A,R2
        MOV       R6,A
        MOV       A,R3
        MOV       R7,A
//  852   zclWriteRspCmd_t *writeRspCmd;
//  853   uint8 i;
//  854 
//  855   writeRspCmd = (zclWriteRspCmd_t *)pInMsg->attrCmd;
        LCALL     ?Subroutine36 & 0xFFFF
??CrossCallReturnLabel_61:
        ADDC      A,R7
        MOV       DPH,A
        MOVX      A,@DPTR
        MOV       ?V10,A
        INC       DPTR
        MOVX      A,@DPTR
        MOV       ?V11,A
//  856   uint8 str[17];
//  857   AT_NEW_LINE();
        MOV       ?V8,#`?<Constant "\\r\\n">` & 0xff
        MOV       ?V9,#(`?<Constant "\\r\\n">` >> 8) & 0xff
        ; Setup parameters for call to function AT_Uart0_Send
        MOV       R4,#0x2
        MOV       R5,#0x0
        MOV       R2,?V8
        MOV       R3,?V9
        LCALL     `??AT_Uart0_Send::?relay`; Banked call to: AT_Uart0_Send
//  858   AT_RESP("----------ADDR,EP,C_ID,ST", 25);
        ; Setup parameters for call to function AT_Uart0_Send
        MOV       R4,#0x19
        MOV       R5,#0x0
        MOV       R2,#`?<Constant "----------ADDR,EP,C_I...">` & 0xff
        MOV       R3,#(`?<Constant "----------ADDR,EP,C_I...">` >> 8) & 0xff
        LCALL     ?Subroutine32 & 0xFFFF
//  859   AT_NEW_LINE();
//  860   for (i = 0; i < writeRspCmd->numAttr; i++)
??CrossCallReturnLabel_53:
        MOV       ?V6,#`?<Constant ",">` & 0xff
        MOV       ?V7,#(`?<Constant ",">` >> 8) & 0xff
        MOV       A,R6
        ADD       A,#0xa
        MOV       ?V12,A
        CLR       A
        ADDC      A,R7
        MOV       ?V13,A
        LJMP      ??zclController_ProcessInWriteRspCmd_0 & 0xFFFF
//  861   {
//  862     AT_RESP("WriteAttr:",10);
//  863 
//  864     //node id
//  865     if(pInMsg->srcAddr.addrMode==(afAddrMode_t)Addr16Bit){
//  866       AT_Int16toChar(pInMsg->srcAddr.addr.shortAddr,str);
//  867       AT_RESP(str,4);
//  868     }else{
//  869       AT_GetIEEEAddrStr(pInMsg->srcAddr.addr.extAddr,str);
??zclController_ProcessInWriteRspCmd_1:
        ; Setup parameters for call to function AT_GetIEEEAddrStr
        MOV       R2,?V12
        MOV       R3,?V13
        LCALL     `??AT_GetIEEEAddrStr::?relay`; Banked call to: AT_GetIEEEAddrStr
//  870       AT_RESP(str,16);
        ; Setup parameters for call to function AT_Uart0_Send
        MOV       R4,#0x10
//  871     }
??zclController_ProcessInWriteRspCmd_2:
        LCALL     ?Subroutine47 & 0xFFFF
//  872     AT_RESP(",",1);
//  873 
//  874     //End ponit
//  875     AT_Int8toChar(pInMsg->srcAddr.endPoint,str);
??CrossCallReturnLabel_86:
        ; Setup parameters for call to function AT_Int8toChar
        MOV       R2,?XSP + 0
        MOV       R3,?XSP + 1
        MOV       A,R6
        LCALL     ?Subroutine37 & 0xFFFF
??CrossCallReturnLabel_66:
        ADDC      A,R7
        MOV       DPH,A
        LCALL     ?Subroutine14 & 0xFFFF
//  876     AT_RESP(str,2);
//  877     AT_RESP(",",1);
??CrossCallReturnLabel_15:
        MOV       R2,?V6
        MOV       R3,?V7
        LCALL     `??AT_Uart0_Send::?relay`; Banked call to: AT_Uart0_Send
//  878 
//  879     //Cluster ID
//  880     AT_Int16toChar(pInMsg->clusterId,str);
        ; Setup parameters for call to function AT_Int16toChar
        MOV       R4,?XSP + 0
        MOV       R5,?XSP + 1
        MOV       DPL,R6
        MOV       DPH,R7
        INC       DPTR
        INC       DPTR
        INC       DPTR
        INC       DPTR
        INC       DPTR
        INC       DPTR
        LCALL     ?Subroutine10 & 0xFFFF
//  881     AT_RESP(str,4);
//  882     AT_RESP(",",1);
//  883 
//  884     //Attribute ID   Display when status != 0
//  885     if (writeRspCmd->attrList[i].status != 0) {
??CrossCallReturnLabel_8:
        MOV       A,?V2
        MOV       ?V0,A
        MOV       B,#0x3
        MUL       AB
        MOV       R0,A
        MOV       R1,B
        MOV       A,?V10
        ADD       A,R0
        MOV       R0,A
        MOV       A,?V11
        ADDC      A,R1
        MOV       R1,A
        MOV       DPL,R0
        MOV       DPH,A
        INC       DPTR
        MOV       ?V4,DPL
        MOV       ?V5,DPH
        MOVX      A,@DPTR
        JZ        ??CrossCallReturnLabel_9
//  886       AT_Int16toChar(writeRspCmd->attrList[i].attrID,str);
        ; Setup parameters for call to function AT_Int16toChar
        MOV       R4,?XSP + 0
        MOV       R5,?XSP + 1
        MOV       DPL,R0
        MOV       DPH,R1
        LCALL     ?Subroutine10 & 0xFFFF
//  887       AT_RESP(str,4);
//  888       AT_RESP(",",1);
//  889     }
//  890 
//  891     //status
//  892     AT_Int8toChar(writeRspCmd->attrList[i].status,str);
??CrossCallReturnLabel_9:
        ; Setup parameters for call to function AT_Int8toChar
        MOV       R2,?XSP + 0
        MOV       R3,?XSP + 1
        MOV       DPL,?V4
        MOV       DPH,?V5
        LCALL     ?Subroutine15 & 0xFFFF
//  893     AT_RESP(str,2);
//  894 
//  895     if(i < writeRspCmd->numAttr-1) AT_NEXT_LINE();
??CrossCallReturnLabel_16:
        MOV       DPL,?V10
        MOV       DPH,?V11
        MOVX      A,@DPTR
        ADD       A,#-0x1
        MOV       R0,A
        CLR       A
        ADDC      A,#-0x1
        MOV       R1,A
        CLR       C
        MOV       A,?V0
        SUBB      A,R0
        CLR       A
        SUBB      A,R1
        MOV       C,0xD0 /* PSW */.2
        XRL       A,PSW
        RLC       A
        JNC       ??zclController_ProcessInWriteRspCmd_3
        ; Setup parameters for call to function AT_Uart0_Send
        MOV       R4,#0x2
        MOV       R5,#0x0
        MOV       R2,?V8
        MOV       R3,?V9
        LCALL     `??AT_Uart0_Send::?relay`; Banked call to: AT_Uart0_Send
??zclController_ProcessInWriteRspCmd_3:
        INC       ?V2
??zclController_ProcessInWriteRspCmd_0:
        MOV       DPL,?V10
        MOV       DPH,?V11
        LCALL     ?Subroutine22 & 0xFFFF
??CrossCallReturnLabel_30:
        JNC       ??zclController_ProcessInWriteRspCmd_4
        ; Setup parameters for call to function AT_Uart0_Send
        MOV       R4,#0xa
        MOV       R5,#0x0
        MOV       R2,#`?<Constant "WriteAttr:">` & 0xff
        MOV       R3,#(`?<Constant "WriteAttr:">` >> 8) & 0xff
        LCALL     `??AT_Uart0_Send::?relay`; Banked call to: AT_Uart0_Send
        MOV       A,R6
        ADD       A,#0x12
        MOV       DPL,A
        CLR       A
        ADDC      A,R7
        LCALL     ?Subroutine23 & 0xFFFF
??CrossCallReturnLabel_34:
        JZ        $+5
        LJMP      ??zclController_ProcessInWriteRspCmd_1 & 0xFFFF
        ; Setup parameters for call to function AT_Int16toChar
        MOV       DPL,?V12
        MOV       DPH,?V13
        LCALL     ??Subroutine60_0 & 0xFFFF
//  896   }
??CrossCallReturnLabel_116:
        LJMP      ??zclController_ProcessInWriteRspCmd_2 & 0xFFFF
//  897   AT_NEW_LINE();
??zclController_ProcessInWriteRspCmd_4:
        ; Setup parameters for call to function AT_Uart0_Send
        MOV       R4,#0x2
        MOV       R5,#0x0
        MOV       R2,?V8
        MOV       R3,?V9
        LCALL     `??AT_Uart0_Send::?relay`; Banked call to: AT_Uart0_Send
//  898 
//  899   return TRUE;
        LJMP      ?Subroutine3 & 0xFFFF
//  900 }
          CFI EndBlock cfiBlock60

        RSEG BANKED_CODE:HUGECODE:NOROOT(0)
?Subroutine37:
          CFI Block cfiCond61 Using cfiCommon0
          CFI Function AT_zclController_ProcessIncomingMsg
          CFI Conditional ??CrossCallReturnLabel_64
          CFI R6 load(1, XDATA, add(CFA_XSP16, literal(-20)))
          CFI VB load(1, XDATA, add(CFA_XSP16, literal(-19)))
          CFI V0 load(1, XDATA, add(CFA_XSP16, literal(-18)))
          CFI V1 load(1, XDATA, add(CFA_XSP16, literal(-17)))
          CFI V2 load(1, XDATA, add(CFA_XSP16, literal(-16)))
          CFI V3 load(1, XDATA, add(CFA_XSP16, literal(-15)))
          CFI V4 load(1, XDATA, add(CFA_XSP16, literal(-14)))
          CFI V5 load(1, XDATA, add(CFA_XSP16, literal(-13)))
          CFI V6 load(1, XDATA, add(CFA_XSP16, literal(-12)))
          CFI V7 load(1, XDATA, add(CFA_XSP16, literal(-11)))
          CFI V8 load(1, XDATA, add(CFA_XSP16, literal(-10)))
          CFI V9 load(1, XDATA, add(CFA_XSP16, literal(-9)))
          CFI V10 load(1, XDATA, add(CFA_XSP16, literal(-8)))
          CFI V11 load(1, XDATA, add(CFA_XSP16, literal(-7)))
          CFI R7 load(1, XDATA, add(CFA_XSP16, literal(-6)))
          CFI ?RET_LOW load(1, XDATA, add(CFA_XSP16, literal(-5)))
          CFI ?RET_HIGH load(1, XDATA, add(CFA_XSP16, literal(-4)))
          CFI ?BRET_EXT load(1, XDATA, add(CFA_XSP16, literal(-3)))
          CFI DPL0 load(1, XDATA, add(CFA_XSP16, literal(-2)))
          CFI DPH0 load(1, XDATA, add(CFA_XSP16, literal(-1)))
          CFI CFA_SP SP+-2
          CFI CFA_XSP16 add(XSP16, 20)
          CFI Block cfiCond62 Using cfiCommon0
          CFI (cfiCond62) Function zclController_ProcessInReadRspCmd
          CFI (cfiCond62) Conditional ??CrossCallReturnLabel_65
          CFI (cfiCond62) R6 load(1, XDATA, add(CFA_XSP16, literal(-22)))
          CFI (cfiCond62) VB load(1, XDATA, add(CFA_XSP16, literal(-21)))
          CFI (cfiCond62) V0 load(1, XDATA, add(CFA_XSP16, literal(-20)))
          CFI (cfiCond62) V1 load(1, XDATA, add(CFA_XSP16, literal(-19)))
          CFI (cfiCond62) V2 load(1, XDATA, add(CFA_XSP16, literal(-18)))
          CFI (cfiCond62) V3 load(1, XDATA, add(CFA_XSP16, literal(-17)))
          CFI (cfiCond62) V4 load(1, XDATA, add(CFA_XSP16, literal(-16)))
          CFI (cfiCond62) V5 load(1, XDATA, add(CFA_XSP16, literal(-15)))
          CFI (cfiCond62) V6 load(1, XDATA, add(CFA_XSP16, literal(-14)))
          CFI (cfiCond62) V7 load(1, XDATA, add(CFA_XSP16, literal(-13)))
          CFI (cfiCond62) V8 load(1, XDATA, add(CFA_XSP16, literal(-12)))
          CFI (cfiCond62) V9 load(1, XDATA, add(CFA_XSP16, literal(-11)))
          CFI (cfiCond62) V10 load(1, XDATA, add(CFA_XSP16, literal(-10)))
          CFI (cfiCond62) V11 load(1, XDATA, add(CFA_XSP16, literal(-9)))
          CFI (cfiCond62) V12 load(1, XDATA, add(CFA_XSP16, literal(-8)))
          CFI (cfiCond62) V13 load(1, XDATA, add(CFA_XSP16, literal(-7)))
          CFI (cfiCond62) R7 load(1, XDATA, add(CFA_XSP16, literal(-6)))
          CFI (cfiCond62) ?RET_LOW load(1, XDATA, add(CFA_XSP16, literal(-5)))
          CFI (cfiCond62) ?RET_HIGH load(1, XDATA, add(CFA_XSP16, literal(-4)))
          CFI (cfiCond62) ?BRET_EXT load(1, XDATA, add(CFA_XSP16, literal(-3)))
          CFI (cfiCond62) DPL0 load(1, XDATA, add(CFA_XSP16, literal(-2)))
          CFI (cfiCond62) DPH0 load(1, XDATA, add(CFA_XSP16, literal(-1)))
          CFI (cfiCond62) CFA_SP SP+-2
          CFI (cfiCond62) CFA_XSP16 add(XSP16, 39)
          CFI Block cfiCond63 Using cfiCommon0
          CFI (cfiCond63) Function zclController_ProcessInWriteRspCmd
          CFI (cfiCond63) Conditional ??CrossCallReturnLabel_66
          CFI (cfiCond63) R6 load(1, XDATA, add(CFA_XSP16, literal(-22)))
          CFI (cfiCond63) VB load(1, XDATA, add(CFA_XSP16, literal(-21)))
          CFI (cfiCond63) V0 load(1, XDATA, add(CFA_XSP16, literal(-20)))
          CFI (cfiCond63) V1 load(1, XDATA, add(CFA_XSP16, literal(-19)))
          CFI (cfiCond63) V2 load(1, XDATA, add(CFA_XSP16, literal(-18)))
          CFI (cfiCond63) V3 load(1, XDATA, add(CFA_XSP16, literal(-17)))
          CFI (cfiCond63) V4 load(1, XDATA, add(CFA_XSP16, literal(-16)))
          CFI (cfiCond63) V5 load(1, XDATA, add(CFA_XSP16, literal(-15)))
          CFI (cfiCond63) V6 load(1, XDATA, add(CFA_XSP16, literal(-14)))
          CFI (cfiCond63) V7 load(1, XDATA, add(CFA_XSP16, literal(-13)))
          CFI (cfiCond63) V8 load(1, XDATA, add(CFA_XSP16, literal(-12)))
          CFI (cfiCond63) V9 load(1, XDATA, add(CFA_XSP16, literal(-11)))
          CFI (cfiCond63) V10 load(1, XDATA, add(CFA_XSP16, literal(-10)))
          CFI (cfiCond63) V11 load(1, XDATA, add(CFA_XSP16, literal(-9)))
          CFI (cfiCond63) V12 load(1, XDATA, add(CFA_XSP16, literal(-8)))
          CFI (cfiCond63) V13 load(1, XDATA, add(CFA_XSP16, literal(-7)))
          CFI (cfiCond63) R7 load(1, XDATA, add(CFA_XSP16, literal(-6)))
          CFI (cfiCond63) ?RET_LOW load(1, XDATA, add(CFA_XSP16, literal(-5)))
          CFI (cfiCond63) ?RET_HIGH load(1, XDATA, add(CFA_XSP16, literal(-4)))
          CFI (cfiCond63) ?BRET_EXT load(1, XDATA, add(CFA_XSP16, literal(-3)))
          CFI (cfiCond63) DPL0 load(1, XDATA, add(CFA_XSP16, literal(-2)))
          CFI (cfiCond63) DPH0 load(1, XDATA, add(CFA_XSP16, literal(-1)))
          CFI (cfiCond63) CFA_SP SP+-2
          CFI (cfiCond63) CFA_XSP16 add(XSP16, 39)
          CFI Block cfiCond64 Using cfiCommon0
          CFI (cfiCond64) Function zclController_ProcessInReportCmd
          CFI (cfiCond64) Conditional ??CrossCallReturnLabel_67
          CFI (cfiCond64) R6 load(1, XDATA, add(CFA_XSP16, literal(-18)))
          CFI (cfiCond64) VB load(1, XDATA, add(CFA_XSP16, literal(-17)))
          CFI (cfiCond64) V0 load(1, XDATA, add(CFA_XSP16, literal(-16)))
          CFI (cfiCond64) V1 load(1, XDATA, add(CFA_XSP16, literal(-15)))
          CFI (cfiCond64) V2 load(1, XDATA, add(CFA_XSP16, literal(-14)))
          CFI (cfiCond64) V3 load(1, XDATA, add(CFA_XSP16, literal(-13)))
          CFI (cfiCond64) V4 load(1, XDATA, add(CFA_XSP16, literal(-12)))
          CFI (cfiCond64) V5 load(1, XDATA, add(CFA_XSP16, literal(-11)))
          CFI (cfiCond64) V6 load(1, XDATA, add(CFA_XSP16, literal(-10)))
          CFI (cfiCond64) V7 load(1, XDATA, add(CFA_XSP16, literal(-9)))
          CFI (cfiCond64) V8 load(1, XDATA, add(CFA_XSP16, literal(-8)))
          CFI (cfiCond64) V9 load(1, XDATA, add(CFA_XSP16, literal(-7)))
          CFI (cfiCond64) R7 load(1, XDATA, add(CFA_XSP16, literal(-6)))
          CFI (cfiCond64) ?RET_LOW load(1, XDATA, add(CFA_XSP16, literal(-5)))
          CFI (cfiCond64) ?RET_HIGH load(1, XDATA, add(CFA_XSP16, literal(-4)))
          CFI (cfiCond64) ?BRET_EXT load(1, XDATA, add(CFA_XSP16, literal(-3)))
          CFI (cfiCond64) DPL0 load(1, XDATA, add(CFA_XSP16, literal(-2)))
          CFI (cfiCond64) DPH0 load(1, XDATA, add(CFA_XSP16, literal(-1)))
          CFI (cfiCond64) CFA_SP SP+-2
          CFI (cfiCond64) CFA_XSP16 add(XSP16, 35)
          CFI Block cfiPicker65 Using cfiCommon1
          CFI (cfiPicker65) NoFunction
          CFI (cfiPicker65) Picker
        ADD       A,#0x13
        MOV       DPL,A
        CLR       A
        RET
          CFI EndBlock cfiCond61
          CFI EndBlock cfiCond62
          CFI EndBlock cfiCond63
          CFI EndBlock cfiCond64
          CFI EndBlock cfiPicker65

        RSEG BANKED_CODE:HUGECODE:NOROOT(0)
?Subroutine32:
          CFI Block cfiCond66 Using cfiCommon0
          CFI Function zclController_ProcessInReadRspCmd
          CFI Conditional ??CrossCallReturnLabel_52
          CFI R6 load(1, XDATA, add(CFA_XSP16, literal(-22)))
          CFI VB load(1, XDATA, add(CFA_XSP16, literal(-21)))
          CFI V0 load(1, XDATA, add(CFA_XSP16, literal(-20)))
          CFI V1 load(1, XDATA, add(CFA_XSP16, literal(-19)))
          CFI V2 load(1, XDATA, add(CFA_XSP16, literal(-18)))
          CFI V3 load(1, XDATA, add(CFA_XSP16, literal(-17)))
          CFI V4 load(1, XDATA, add(CFA_XSP16, literal(-16)))
          CFI V5 load(1, XDATA, add(CFA_XSP16, literal(-15)))
          CFI V6 load(1, XDATA, add(CFA_XSP16, literal(-14)))
          CFI V7 load(1, XDATA, add(CFA_XSP16, literal(-13)))
          CFI V8 load(1, XDATA, add(CFA_XSP16, literal(-12)))
          CFI V9 load(1, XDATA, add(CFA_XSP16, literal(-11)))
          CFI V10 load(1, XDATA, add(CFA_XSP16, literal(-10)))
          CFI V11 load(1, XDATA, add(CFA_XSP16, literal(-9)))
          CFI V12 load(1, XDATA, add(CFA_XSP16, literal(-8)))
          CFI V13 load(1, XDATA, add(CFA_XSP16, literal(-7)))
          CFI R7 load(1, XDATA, add(CFA_XSP16, literal(-6)))
          CFI ?RET_LOW load(1, XDATA, add(CFA_XSP16, literal(-5)))
          CFI ?RET_HIGH load(1, XDATA, add(CFA_XSP16, literal(-4)))
          CFI ?BRET_EXT load(1, XDATA, add(CFA_XSP16, literal(-3)))
          CFI DPL0 load(1, XDATA, add(CFA_XSP16, literal(-2)))
          CFI DPH0 load(1, XDATA, add(CFA_XSP16, literal(-1)))
          CFI CFA_SP SP+-2
          CFI CFA_XSP16 add(XSP16, 39)
          CFI Block cfiCond67 Using cfiCommon0
          CFI (cfiCond67) Function zclController_ProcessInWriteRspCmd
          CFI (cfiCond67) Conditional ??CrossCallReturnLabel_53
          CFI (cfiCond67) R6 load(1, XDATA, add(CFA_XSP16, literal(-22)))
          CFI (cfiCond67) VB load(1, XDATA, add(CFA_XSP16, literal(-21)))
          CFI (cfiCond67) V0 load(1, XDATA, add(CFA_XSP16, literal(-20)))
          CFI (cfiCond67) V1 load(1, XDATA, add(CFA_XSP16, literal(-19)))
          CFI (cfiCond67) V2 load(1, XDATA, add(CFA_XSP16, literal(-18)))
          CFI (cfiCond67) V3 load(1, XDATA, add(CFA_XSP16, literal(-17)))
          CFI (cfiCond67) V4 load(1, XDATA, add(CFA_XSP16, literal(-16)))
          CFI (cfiCond67) V5 load(1, XDATA, add(CFA_XSP16, literal(-15)))
          CFI (cfiCond67) V6 load(1, XDATA, add(CFA_XSP16, literal(-14)))
          CFI (cfiCond67) V7 load(1, XDATA, add(CFA_XSP16, literal(-13)))
          CFI (cfiCond67) V8 load(1, XDATA, add(CFA_XSP16, literal(-12)))
          CFI (cfiCond67) V9 load(1, XDATA, add(CFA_XSP16, literal(-11)))
          CFI (cfiCond67) V10 load(1, XDATA, add(CFA_XSP16, literal(-10)))
          CFI (cfiCond67) V11 load(1, XDATA, add(CFA_XSP16, literal(-9)))
          CFI (cfiCond67) V12 load(1, XDATA, add(CFA_XSP16, literal(-8)))
          CFI (cfiCond67) V13 load(1, XDATA, add(CFA_XSP16, literal(-7)))
          CFI (cfiCond67) R7 load(1, XDATA, add(CFA_XSP16, literal(-6)))
          CFI (cfiCond67) ?RET_LOW load(1, XDATA, add(CFA_XSP16, literal(-5)))
          CFI (cfiCond67) ?RET_HIGH load(1, XDATA, add(CFA_XSP16, literal(-4)))
          CFI (cfiCond67) ?BRET_EXT load(1, XDATA, add(CFA_XSP16, literal(-3)))
          CFI (cfiCond67) DPL0 load(1, XDATA, add(CFA_XSP16, literal(-2)))
          CFI (cfiCond67) DPH0 load(1, XDATA, add(CFA_XSP16, literal(-1)))
          CFI (cfiCond67) CFA_SP SP+-2
          CFI (cfiCond67) CFA_XSP16 add(XSP16, 39)
          CFI Block cfiPicker68 Using cfiCommon1
          CFI (cfiPicker68) NoFunction
          CFI (cfiPicker68) Picker
        LCALL     ?Subroutine46 & 0xFFFF
??CrossCallReturnLabel_85:
        MOV       ?V2,#0x0
        RET
          CFI EndBlock cfiCond66
          CFI EndBlock cfiCond67
          CFI EndBlock cfiPicker68

        RSEG BANKED_CODE:HUGECODE:NOROOT(0)
?Subroutine46:
          CFI Block cfiCond69 Using cfiCommon0
          CFI Function zclController_ProcessInReadRspCmd
          CFI Conditional ??CrossCallReturnLabel_84
          CFI R6 load(1, XDATA, add(CFA_XSP16, literal(-22)))
          CFI VB load(1, XDATA, add(CFA_XSP16, literal(-21)))
          CFI V0 load(1, XDATA, add(CFA_XSP16, literal(-20)))
          CFI V1 load(1, XDATA, add(CFA_XSP16, literal(-19)))
          CFI V2 load(1, XDATA, add(CFA_XSP16, literal(-18)))
          CFI V3 load(1, XDATA, add(CFA_XSP16, literal(-17)))
          CFI V4 load(1, XDATA, add(CFA_XSP16, literal(-16)))
          CFI V5 load(1, XDATA, add(CFA_XSP16, literal(-15)))
          CFI V6 load(1, XDATA, add(CFA_XSP16, literal(-14)))
          CFI V7 load(1, XDATA, add(CFA_XSP16, literal(-13)))
          CFI V8 load(1, XDATA, add(CFA_XSP16, literal(-12)))
          CFI V9 load(1, XDATA, add(CFA_XSP16, literal(-11)))
          CFI V10 load(1, XDATA, add(CFA_XSP16, literal(-10)))
          CFI V11 load(1, XDATA, add(CFA_XSP16, literal(-9)))
          CFI V12 load(1, XDATA, add(CFA_XSP16, literal(-8)))
          CFI V13 load(1, XDATA, add(CFA_XSP16, literal(-7)))
          CFI R7 load(1, XDATA, add(CFA_XSP16, literal(-6)))
          CFI ?RET_LOW load(1, XDATA, add(CFA_XSP16, literal(-5)))
          CFI ?RET_HIGH load(1, XDATA, add(CFA_XSP16, literal(-4)))
          CFI ?BRET_EXT load(1, XDATA, add(CFA_XSP16, literal(-3)))
          CFI DPL0 load(1, XDATA, add(CFA_XSP16, literal(-2)))
          CFI DPH0 load(1, XDATA, add(CFA_XSP16, literal(-1)))
          CFI CFA_SP SP+-2
          CFI CFA_XSP16 add(XSP16, 39)
          CFI Block cfiCond70 Using cfiCommon0
          CFI (cfiCond70) Function zclController_ProcessInReadRspCmd
          CFI (cfiCond70) Conditional ??CrossCallReturnLabel_85, ??CrossCallReturnLabel_52
          CFI (cfiCond70) R6 load(1, XDATA, add(CFA_XSP16, literal(-22)))
          CFI (cfiCond70) VB load(1, XDATA, add(CFA_XSP16, literal(-21)))
          CFI (cfiCond70) V0 load(1, XDATA, add(CFA_XSP16, literal(-20)))
          CFI (cfiCond70) V1 load(1, XDATA, add(CFA_XSP16, literal(-19)))
          CFI (cfiCond70) V2 load(1, XDATA, add(CFA_XSP16, literal(-18)))
          CFI (cfiCond70) V3 load(1, XDATA, add(CFA_XSP16, literal(-17)))
          CFI (cfiCond70) V4 load(1, XDATA, add(CFA_XSP16, literal(-16)))
          CFI (cfiCond70) V5 load(1, XDATA, add(CFA_XSP16, literal(-15)))
          CFI (cfiCond70) V6 load(1, XDATA, add(CFA_XSP16, literal(-14)))
          CFI (cfiCond70) V7 load(1, XDATA, add(CFA_XSP16, literal(-13)))
          CFI (cfiCond70) V8 load(1, XDATA, add(CFA_XSP16, literal(-12)))
          CFI (cfiCond70) V9 load(1, XDATA, add(CFA_XSP16, literal(-11)))
          CFI (cfiCond70) V10 load(1, XDATA, add(CFA_XSP16, literal(-10)))
          CFI (cfiCond70) V11 load(1, XDATA, add(CFA_XSP16, literal(-9)))
          CFI (cfiCond70) V12 load(1, XDATA, add(CFA_XSP16, literal(-8)))
          CFI (cfiCond70) V13 load(1, XDATA, add(CFA_XSP16, literal(-7)))
          CFI (cfiCond70) R7 load(1, XDATA, add(CFA_XSP16, literal(-6)))
          CFI (cfiCond70) ?RET_LOW load(1, XDATA, add(CFA_XSP16, literal(-5)))
          CFI (cfiCond70) ?RET_HIGH load(1, XDATA, add(CFA_XSP16, literal(-4)))
          CFI (cfiCond70) ?BRET_EXT load(1, XDATA, add(CFA_XSP16, literal(-3)))
          CFI (cfiCond70) DPL0 load(1, XDATA, add(CFA_XSP16, literal(-2)))
          CFI (cfiCond70) DPH0 load(1, XDATA, add(CFA_XSP16, literal(-1)))
          CFI (cfiCond70) CFA_SP SP+-4
          CFI (cfiCond70) CFA_XSP16 add(XSP16, 39)
          CFI Block cfiCond71 Using cfiCommon0
          CFI (cfiCond71) Function zclController_ProcessInWriteRspCmd
          CFI (cfiCond71) Conditional ??CrossCallReturnLabel_85, ??CrossCallReturnLabel_53
          CFI (cfiCond71) R6 load(1, XDATA, add(CFA_XSP16, literal(-22)))
          CFI (cfiCond71) VB load(1, XDATA, add(CFA_XSP16, literal(-21)))
          CFI (cfiCond71) V0 load(1, XDATA, add(CFA_XSP16, literal(-20)))
          CFI (cfiCond71) V1 load(1, XDATA, add(CFA_XSP16, literal(-19)))
          CFI (cfiCond71) V2 load(1, XDATA, add(CFA_XSP16, literal(-18)))
          CFI (cfiCond71) V3 load(1, XDATA, add(CFA_XSP16, literal(-17)))
          CFI (cfiCond71) V4 load(1, XDATA, add(CFA_XSP16, literal(-16)))
          CFI (cfiCond71) V5 load(1, XDATA, add(CFA_XSP16, literal(-15)))
          CFI (cfiCond71) V6 load(1, XDATA, add(CFA_XSP16, literal(-14)))
          CFI (cfiCond71) V7 load(1, XDATA, add(CFA_XSP16, literal(-13)))
          CFI (cfiCond71) V8 load(1, XDATA, add(CFA_XSP16, literal(-12)))
          CFI (cfiCond71) V9 load(1, XDATA, add(CFA_XSP16, literal(-11)))
          CFI (cfiCond71) V10 load(1, XDATA, add(CFA_XSP16, literal(-10)))
          CFI (cfiCond71) V11 load(1, XDATA, add(CFA_XSP16, literal(-9)))
          CFI (cfiCond71) V12 load(1, XDATA, add(CFA_XSP16, literal(-8)))
          CFI (cfiCond71) V13 load(1, XDATA, add(CFA_XSP16, literal(-7)))
          CFI (cfiCond71) R7 load(1, XDATA, add(CFA_XSP16, literal(-6)))
          CFI (cfiCond71) ?RET_LOW load(1, XDATA, add(CFA_XSP16, literal(-5)))
          CFI (cfiCond71) ?RET_HIGH load(1, XDATA, add(CFA_XSP16, literal(-4)))
          CFI (cfiCond71) ?BRET_EXT load(1, XDATA, add(CFA_XSP16, literal(-3)))
          CFI (cfiCond71) DPL0 load(1, XDATA, add(CFA_XSP16, literal(-2)))
          CFI (cfiCond71) DPH0 load(1, XDATA, add(CFA_XSP16, literal(-1)))
          CFI (cfiCond71) CFA_SP SP+-4
          CFI (cfiCond71) CFA_XSP16 add(XSP16, 39)
          CFI Block cfiPicker72 Using cfiCommon1
          CFI (cfiPicker72) NoFunction
          CFI (cfiPicker72) Picker
        LCALL     ?Subroutine53 & 0xFFFF
??CrossCallReturnLabel_96:
        MOV       R2,?V8
        MOV       R3,?V9
        LCALL     `??AT_Uart0_Send::?relay`; Banked call to: AT_Uart0_Send
        RET
          CFI EndBlock cfiCond69
          CFI EndBlock cfiCond70
          CFI EndBlock cfiCond71
          CFI EndBlock cfiPicker72

        RSEG BANKED_CODE:HUGECODE:NOROOT(0)
?Subroutine23:
          CFI Block cfiCond73 Using cfiCommon0
          CFI Function zclController_ProcessInReadRspCmd
          CFI Conditional ??CrossCallReturnLabel_33
          CFI R6 load(1, XDATA, add(CFA_XSP16, literal(-22)))
          CFI VB load(1, XDATA, add(CFA_XSP16, literal(-21)))
          CFI V0 load(1, XDATA, add(CFA_XSP16, literal(-20)))
          CFI V1 load(1, XDATA, add(CFA_XSP16, literal(-19)))
          CFI V2 load(1, XDATA, add(CFA_XSP16, literal(-18)))
          CFI V3 load(1, XDATA, add(CFA_XSP16, literal(-17)))
          CFI V4 load(1, XDATA, add(CFA_XSP16, literal(-16)))
          CFI V5 load(1, XDATA, add(CFA_XSP16, literal(-15)))
          CFI V6 load(1, XDATA, add(CFA_XSP16, literal(-14)))
          CFI V7 load(1, XDATA, add(CFA_XSP16, literal(-13)))
          CFI V8 load(1, XDATA, add(CFA_XSP16, literal(-12)))
          CFI V9 load(1, XDATA, add(CFA_XSP16, literal(-11)))
          CFI V10 load(1, XDATA, add(CFA_XSP16, literal(-10)))
          CFI V11 load(1, XDATA, add(CFA_XSP16, literal(-9)))
          CFI V12 load(1, XDATA, add(CFA_XSP16, literal(-8)))
          CFI V13 load(1, XDATA, add(CFA_XSP16, literal(-7)))
          CFI R7 load(1, XDATA, add(CFA_XSP16, literal(-6)))
          CFI ?RET_LOW load(1, XDATA, add(CFA_XSP16, literal(-5)))
          CFI ?RET_HIGH load(1, XDATA, add(CFA_XSP16, literal(-4)))
          CFI ?BRET_EXT load(1, XDATA, add(CFA_XSP16, literal(-3)))
          CFI DPL0 load(1, XDATA, add(CFA_XSP16, literal(-2)))
          CFI DPH0 load(1, XDATA, add(CFA_XSP16, literal(-1)))
          CFI CFA_SP SP+-2
          CFI CFA_XSP16 add(XSP16, 39)
          CFI Block cfiCond74 Using cfiCommon0
          CFI (cfiCond74) Function zclController_ProcessInWriteRspCmd
          CFI (cfiCond74) Conditional ??CrossCallReturnLabel_34
          CFI (cfiCond74) R6 load(1, XDATA, add(CFA_XSP16, literal(-22)))
          CFI (cfiCond74) VB load(1, XDATA, add(CFA_XSP16, literal(-21)))
          CFI (cfiCond74) V0 load(1, XDATA, add(CFA_XSP16, literal(-20)))
          CFI (cfiCond74) V1 load(1, XDATA, add(CFA_XSP16, literal(-19)))
          CFI (cfiCond74) V2 load(1, XDATA, add(CFA_XSP16, literal(-18)))
          CFI (cfiCond74) V3 load(1, XDATA, add(CFA_XSP16, literal(-17)))
          CFI (cfiCond74) V4 load(1, XDATA, add(CFA_XSP16, literal(-16)))
          CFI (cfiCond74) V5 load(1, XDATA, add(CFA_XSP16, literal(-15)))
          CFI (cfiCond74) V6 load(1, XDATA, add(CFA_XSP16, literal(-14)))
          CFI (cfiCond74) V7 load(1, XDATA, add(CFA_XSP16, literal(-13)))
          CFI (cfiCond74) V8 load(1, XDATA, add(CFA_XSP16, literal(-12)))
          CFI (cfiCond74) V9 load(1, XDATA, add(CFA_XSP16, literal(-11)))
          CFI (cfiCond74) V10 load(1, XDATA, add(CFA_XSP16, literal(-10)))
          CFI (cfiCond74) V11 load(1, XDATA, add(CFA_XSP16, literal(-9)))
          CFI (cfiCond74) V12 load(1, XDATA, add(CFA_XSP16, literal(-8)))
          CFI (cfiCond74) V13 load(1, XDATA, add(CFA_XSP16, literal(-7)))
          CFI (cfiCond74) R7 load(1, XDATA, add(CFA_XSP16, literal(-6)))
          CFI (cfiCond74) ?RET_LOW load(1, XDATA, add(CFA_XSP16, literal(-5)))
          CFI (cfiCond74) ?RET_HIGH load(1, XDATA, add(CFA_XSP16, literal(-4)))
          CFI (cfiCond74) ?BRET_EXT load(1, XDATA, add(CFA_XSP16, literal(-3)))
          CFI (cfiCond74) DPL0 load(1, XDATA, add(CFA_XSP16, literal(-2)))
          CFI (cfiCond74) DPH0 load(1, XDATA, add(CFA_XSP16, literal(-1)))
          CFI (cfiCond74) CFA_SP SP+-2
          CFI (cfiCond74) CFA_XSP16 add(XSP16, 39)
          CFI Block cfiCond75 Using cfiCommon0
          CFI (cfiCond75) Function zclController_ProcessInReportCmd
          CFI (cfiCond75) Conditional ??CrossCallReturnLabel_35
          CFI (cfiCond75) R6 load(1, XDATA, add(CFA_XSP16, literal(-18)))
          CFI (cfiCond75) VB load(1, XDATA, add(CFA_XSP16, literal(-17)))
          CFI (cfiCond75) V0 load(1, XDATA, add(CFA_XSP16, literal(-16)))
          CFI (cfiCond75) V1 load(1, XDATA, add(CFA_XSP16, literal(-15)))
          CFI (cfiCond75) V2 load(1, XDATA, add(CFA_XSP16, literal(-14)))
          CFI (cfiCond75) V3 load(1, XDATA, add(CFA_XSP16, literal(-13)))
          CFI (cfiCond75) V4 load(1, XDATA, add(CFA_XSP16, literal(-12)))
          CFI (cfiCond75) V5 load(1, XDATA, add(CFA_XSP16, literal(-11)))
          CFI (cfiCond75) V6 load(1, XDATA, add(CFA_XSP16, literal(-10)))
          CFI (cfiCond75) V7 load(1, XDATA, add(CFA_XSP16, literal(-9)))
          CFI (cfiCond75) V8 load(1, XDATA, add(CFA_XSP16, literal(-8)))
          CFI (cfiCond75) V9 load(1, XDATA, add(CFA_XSP16, literal(-7)))
          CFI (cfiCond75) R7 load(1, XDATA, add(CFA_XSP16, literal(-6)))
          CFI (cfiCond75) ?RET_LOW load(1, XDATA, add(CFA_XSP16, literal(-5)))
          CFI (cfiCond75) ?RET_HIGH load(1, XDATA, add(CFA_XSP16, literal(-4)))
          CFI (cfiCond75) ?BRET_EXT load(1, XDATA, add(CFA_XSP16, literal(-3)))
          CFI (cfiCond75) DPL0 load(1, XDATA, add(CFA_XSP16, literal(-2)))
          CFI (cfiCond75) DPH0 load(1, XDATA, add(CFA_XSP16, literal(-1)))
          CFI (cfiCond75) CFA_SP SP+-2
          CFI (cfiCond75) CFA_XSP16 add(XSP16, 35)
          CFI Block cfiPicker76 Using cfiCommon1
          CFI (cfiPicker76) NoFunction
          CFI (cfiPicker76) Picker
        MOV       DPH,A
        MOVX      A,@DPTR
        XRL       A,#0x2
        MOV       R4,?XSP + 0
        MOV       R5,?XSP + 1
        RET
          CFI EndBlock cfiCond73
          CFI EndBlock cfiCond74
          CFI EndBlock cfiCond75
          CFI EndBlock cfiPicker76

        RSEG BANKED_CODE:HUGECODE:NOROOT(0)
?Subroutine14:
          CFI Block cfiCond77 Using cfiCommon0
          CFI Function zclController_ProcessInReadRspCmd
          CFI Conditional ??CrossCallReturnLabel_14
          CFI R6 load(1, XDATA, add(CFA_XSP16, literal(-22)))
          CFI VB load(1, XDATA, add(CFA_XSP16, literal(-21)))
          CFI V0 load(1, XDATA, add(CFA_XSP16, literal(-20)))
          CFI V1 load(1, XDATA, add(CFA_XSP16, literal(-19)))
          CFI V2 load(1, XDATA, add(CFA_XSP16, literal(-18)))
          CFI V3 load(1, XDATA, add(CFA_XSP16, literal(-17)))
          CFI V4 load(1, XDATA, add(CFA_XSP16, literal(-16)))
          CFI V5 load(1, XDATA, add(CFA_XSP16, literal(-15)))
          CFI V6 load(1, XDATA, add(CFA_XSP16, literal(-14)))
          CFI V7 load(1, XDATA, add(CFA_XSP16, literal(-13)))
          CFI V8 load(1, XDATA, add(CFA_XSP16, literal(-12)))
          CFI V9 load(1, XDATA, add(CFA_XSP16, literal(-11)))
          CFI V10 load(1, XDATA, add(CFA_XSP16, literal(-10)))
          CFI V11 load(1, XDATA, add(CFA_XSP16, literal(-9)))
          CFI V12 load(1, XDATA, add(CFA_XSP16, literal(-8)))
          CFI V13 load(1, XDATA, add(CFA_XSP16, literal(-7)))
          CFI R7 load(1, XDATA, add(CFA_XSP16, literal(-6)))
          CFI ?RET_LOW load(1, XDATA, add(CFA_XSP16, literal(-5)))
          CFI ?RET_HIGH load(1, XDATA, add(CFA_XSP16, literal(-4)))
          CFI ?BRET_EXT load(1, XDATA, add(CFA_XSP16, literal(-3)))
          CFI DPL0 load(1, XDATA, add(CFA_XSP16, literal(-2)))
          CFI DPH0 load(1, XDATA, add(CFA_XSP16, literal(-1)))
          CFI CFA_SP SP+-2
          CFI CFA_XSP16 add(XSP16, 39)
          CFI Block cfiCond78 Using cfiCommon0
          CFI (cfiCond78) Function zclController_ProcessInWriteRspCmd
          CFI (cfiCond78) Conditional ??CrossCallReturnLabel_15
          CFI (cfiCond78) R6 load(1, XDATA, add(CFA_XSP16, literal(-22)))
          CFI (cfiCond78) VB load(1, XDATA, add(CFA_XSP16, literal(-21)))
          CFI (cfiCond78) V0 load(1, XDATA, add(CFA_XSP16, literal(-20)))
          CFI (cfiCond78) V1 load(1, XDATA, add(CFA_XSP16, literal(-19)))
          CFI (cfiCond78) V2 load(1, XDATA, add(CFA_XSP16, literal(-18)))
          CFI (cfiCond78) V3 load(1, XDATA, add(CFA_XSP16, literal(-17)))
          CFI (cfiCond78) V4 load(1, XDATA, add(CFA_XSP16, literal(-16)))
          CFI (cfiCond78) V5 load(1, XDATA, add(CFA_XSP16, literal(-15)))
          CFI (cfiCond78) V6 load(1, XDATA, add(CFA_XSP16, literal(-14)))
          CFI (cfiCond78) V7 load(1, XDATA, add(CFA_XSP16, literal(-13)))
          CFI (cfiCond78) V8 load(1, XDATA, add(CFA_XSP16, literal(-12)))
          CFI (cfiCond78) V9 load(1, XDATA, add(CFA_XSP16, literal(-11)))
          CFI (cfiCond78) V10 load(1, XDATA, add(CFA_XSP16, literal(-10)))
          CFI (cfiCond78) V11 load(1, XDATA, add(CFA_XSP16, literal(-9)))
          CFI (cfiCond78) V12 load(1, XDATA, add(CFA_XSP16, literal(-8)))
          CFI (cfiCond78) V13 load(1, XDATA, add(CFA_XSP16, literal(-7)))
          CFI (cfiCond78) R7 load(1, XDATA, add(CFA_XSP16, literal(-6)))
          CFI (cfiCond78) ?RET_LOW load(1, XDATA, add(CFA_XSP16, literal(-5)))
          CFI (cfiCond78) ?RET_HIGH load(1, XDATA, add(CFA_XSP16, literal(-4)))
          CFI (cfiCond78) ?BRET_EXT load(1, XDATA, add(CFA_XSP16, literal(-3)))
          CFI (cfiCond78) DPL0 load(1, XDATA, add(CFA_XSP16, literal(-2)))
          CFI (cfiCond78) DPH0 load(1, XDATA, add(CFA_XSP16, literal(-1)))
          CFI (cfiCond78) CFA_SP SP+-2
          CFI (cfiCond78) CFA_XSP16 add(XSP16, 39)
          CFI Block cfiPicker79 Using cfiCommon1
          CFI (cfiPicker79) NoFunction
          CFI (cfiPicker79) Picker
        LCALL     ?Subroutine41 & 0xFFFF
??CrossCallReturnLabel_76:
        ; Setup parameters for call to function AT_Uart0_Send
        ; Setup parameters for call to function AT_Uart0_Send
        MOV       R4,#0x1
        MOV       R5,#0x0
        RET
          CFI EndBlock cfiCond77
          CFI EndBlock cfiCond78
          CFI EndBlock cfiPicker79

        RSEG BANKED_CODE:HUGECODE:NOROOT(0)
?Subroutine11:
          CFI Block cfiCond80 Using cfiCommon0
          CFI Function zclController_ProcessInReadRspCmd
          CFI Conditional ??CrossCallReturnLabel_113
          CFI R6 load(1, XDATA, add(CFA_XSP16, literal(-22)))
          CFI VB load(1, XDATA, add(CFA_XSP16, literal(-21)))
          CFI V0 load(1, XDATA, add(CFA_XSP16, literal(-20)))
          CFI V1 load(1, XDATA, add(CFA_XSP16, literal(-19)))
          CFI V2 load(1, XDATA, add(CFA_XSP16, literal(-18)))
          CFI V3 load(1, XDATA, add(CFA_XSP16, literal(-17)))
          CFI V4 load(1, XDATA, add(CFA_XSP16, literal(-16)))
          CFI V5 load(1, XDATA, add(CFA_XSP16, literal(-15)))
          CFI V6 load(1, XDATA, add(CFA_XSP16, literal(-14)))
          CFI V7 load(1, XDATA, add(CFA_XSP16, literal(-13)))
          CFI V8 load(1, XDATA, add(CFA_XSP16, literal(-12)))
          CFI V9 load(1, XDATA, add(CFA_XSP16, literal(-11)))
          CFI V10 load(1, XDATA, add(CFA_XSP16, literal(-10)))
          CFI V11 load(1, XDATA, add(CFA_XSP16, literal(-9)))
          CFI V12 load(1, XDATA, add(CFA_XSP16, literal(-8)))
          CFI V13 load(1, XDATA, add(CFA_XSP16, literal(-7)))
          CFI R7 load(1, XDATA, add(CFA_XSP16, literal(-6)))
          CFI ?RET_LOW load(1, XDATA, add(CFA_XSP16, literal(-5)))
          CFI ?RET_HIGH load(1, XDATA, add(CFA_XSP16, literal(-4)))
          CFI ?BRET_EXT load(1, XDATA, add(CFA_XSP16, literal(-3)))
          CFI DPL0 load(1, XDATA, add(CFA_XSP16, literal(-2)))
          CFI DPH0 load(1, XDATA, add(CFA_XSP16, literal(-1)))
          CFI CFA_SP SP+-2
          CFI CFA_XSP16 add(XSP16, 39)
          CFI Block cfiCond81 Using cfiCommon0
          CFI (cfiCond81) Function zclController_ProcessInReportCmd
          CFI (cfiCond81) Conditional ??CrossCallReturnLabel_114
          CFI (cfiCond81) R6 load(1, XDATA, add(CFA_XSP16, literal(-18)))
          CFI (cfiCond81) VB load(1, XDATA, add(CFA_XSP16, literal(-17)))
          CFI (cfiCond81) V0 load(1, XDATA, add(CFA_XSP16, literal(-16)))
          CFI (cfiCond81) V1 load(1, XDATA, add(CFA_XSP16, literal(-15)))
          CFI (cfiCond81) V2 load(1, XDATA, add(CFA_XSP16, literal(-14)))
          CFI (cfiCond81) V3 load(1, XDATA, add(CFA_XSP16, literal(-13)))
          CFI (cfiCond81) V4 load(1, XDATA, add(CFA_XSP16, literal(-12)))
          CFI (cfiCond81) V5 load(1, XDATA, add(CFA_XSP16, literal(-11)))
          CFI (cfiCond81) V6 load(1, XDATA, add(CFA_XSP16, literal(-10)))
          CFI (cfiCond81) V7 load(1, XDATA, add(CFA_XSP16, literal(-9)))
          CFI (cfiCond81) V8 load(1, XDATA, add(CFA_XSP16, literal(-8)))
          CFI (cfiCond81) V9 load(1, XDATA, add(CFA_XSP16, literal(-7)))
          CFI (cfiCond81) R7 load(1, XDATA, add(CFA_XSP16, literal(-6)))
          CFI (cfiCond81) ?RET_LOW load(1, XDATA, add(CFA_XSP16, literal(-5)))
          CFI (cfiCond81) ?RET_HIGH load(1, XDATA, add(CFA_XSP16, literal(-4)))
          CFI (cfiCond81) ?BRET_EXT load(1, XDATA, add(CFA_XSP16, literal(-3)))
          CFI (cfiCond81) DPL0 load(1, XDATA, add(CFA_XSP16, literal(-2)))
          CFI (cfiCond81) DPH0 load(1, XDATA, add(CFA_XSP16, literal(-1)))
          CFI (cfiCond81) CFA_SP SP+-2
          CFI (cfiCond81) CFA_XSP16 add(XSP16, 35)
          CFI Block cfiPicker82 Using cfiCommon1
          CFI (cfiPicker82) NoFunction
          CFI (cfiPicker82) Picker
        MOV       R4,?XSP + 0
        MOV       R5,?XSP + 1
        LCALL     ?Subroutine51 & 0xFFFF
??CrossCallReturnLabel_92:
          CFI EndBlock cfiCond80
          CFI EndBlock cfiCond81
          CFI EndBlock cfiPicker82
        REQUIRE ??Subroutine60_0
        ; // Fall through to label ??Subroutine60_0

        RSEG BANKED_CODE:HUGECODE:NOROOT(0)
??Subroutine60_0:
          CFI Block cfiCond83 Using cfiCommon0
          CFI Function zclController_ProcessInReadRspCmd
          CFI Conditional ??CrossCallReturnLabel_115
          CFI R6 load(1, XDATA, add(CFA_XSP16, literal(-22)))
          CFI VB load(1, XDATA, add(CFA_XSP16, literal(-21)))
          CFI V0 load(1, XDATA, add(CFA_XSP16, literal(-20)))
          CFI V1 load(1, XDATA, add(CFA_XSP16, literal(-19)))
          CFI V2 load(1, XDATA, add(CFA_XSP16, literal(-18)))
          CFI V3 load(1, XDATA, add(CFA_XSP16, literal(-17)))
          CFI V4 load(1, XDATA, add(CFA_XSP16, literal(-16)))
          CFI V5 load(1, XDATA, add(CFA_XSP16, literal(-15)))
          CFI V6 load(1, XDATA, add(CFA_XSP16, literal(-14)))
          CFI V7 load(1, XDATA, add(CFA_XSP16, literal(-13)))
          CFI V8 load(1, XDATA, add(CFA_XSP16, literal(-12)))
          CFI V9 load(1, XDATA, add(CFA_XSP16, literal(-11)))
          CFI V10 load(1, XDATA, add(CFA_XSP16, literal(-10)))
          CFI V11 load(1, XDATA, add(CFA_XSP16, literal(-9)))
          CFI V12 load(1, XDATA, add(CFA_XSP16, literal(-8)))
          CFI V13 load(1, XDATA, add(CFA_XSP16, literal(-7)))
          CFI R7 load(1, XDATA, add(CFA_XSP16, literal(-6)))
          CFI ?RET_LOW load(1, XDATA, add(CFA_XSP16, literal(-5)))
          CFI ?RET_HIGH load(1, XDATA, add(CFA_XSP16, literal(-4)))
          CFI ?BRET_EXT load(1, XDATA, add(CFA_XSP16, literal(-3)))
          CFI DPL0 load(1, XDATA, add(CFA_XSP16, literal(-2)))
          CFI DPH0 load(1, XDATA, add(CFA_XSP16, literal(-1)))
          CFI CFA_SP SP+-2
          CFI CFA_XSP16 add(XSP16, 39)
          CFI Block cfiCond84 Using cfiCommon0
          CFI (cfiCond84) Function zclController_ProcessInWriteRspCmd
          CFI (cfiCond84) Conditional ??CrossCallReturnLabel_116
          CFI (cfiCond84) R6 load(1, XDATA, add(CFA_XSP16, literal(-22)))
          CFI (cfiCond84) VB load(1, XDATA, add(CFA_XSP16, literal(-21)))
          CFI (cfiCond84) V0 load(1, XDATA, add(CFA_XSP16, literal(-20)))
          CFI (cfiCond84) V1 load(1, XDATA, add(CFA_XSP16, literal(-19)))
          CFI (cfiCond84) V2 load(1, XDATA, add(CFA_XSP16, literal(-18)))
          CFI (cfiCond84) V3 load(1, XDATA, add(CFA_XSP16, literal(-17)))
          CFI (cfiCond84) V4 load(1, XDATA, add(CFA_XSP16, literal(-16)))
          CFI (cfiCond84) V5 load(1, XDATA, add(CFA_XSP16, literal(-15)))
          CFI (cfiCond84) V6 load(1, XDATA, add(CFA_XSP16, literal(-14)))
          CFI (cfiCond84) V7 load(1, XDATA, add(CFA_XSP16, literal(-13)))
          CFI (cfiCond84) V8 load(1, XDATA, add(CFA_XSP16, literal(-12)))
          CFI (cfiCond84) V9 load(1, XDATA, add(CFA_XSP16, literal(-11)))
          CFI (cfiCond84) V10 load(1, XDATA, add(CFA_XSP16, literal(-10)))
          CFI (cfiCond84) V11 load(1, XDATA, add(CFA_XSP16, literal(-9)))
          CFI (cfiCond84) V12 load(1, XDATA, add(CFA_XSP16, literal(-8)))
          CFI (cfiCond84) V13 load(1, XDATA, add(CFA_XSP16, literal(-7)))
          CFI (cfiCond84) R7 load(1, XDATA, add(CFA_XSP16, literal(-6)))
          CFI (cfiCond84) ?RET_LOW load(1, XDATA, add(CFA_XSP16, literal(-5)))
          CFI (cfiCond84) ?RET_HIGH load(1, XDATA, add(CFA_XSP16, literal(-4)))
          CFI (cfiCond84) ?BRET_EXT load(1, XDATA, add(CFA_XSP16, literal(-3)))
          CFI (cfiCond84) DPL0 load(1, XDATA, add(CFA_XSP16, literal(-2)))
          CFI (cfiCond84) DPH0 load(1, XDATA, add(CFA_XSP16, literal(-1)))
          CFI (cfiCond84) CFA_SP SP+-2
          CFI (cfiCond84) CFA_XSP16 add(XSP16, 39)
          CFI Block cfiCond85 Using cfiCommon0
          CFI (cfiCond85) Function zclController_ProcessInReportCmd
          CFI (cfiCond85) Conditional ??CrossCallReturnLabel_117
          CFI (cfiCond85) R6 load(1, XDATA, add(CFA_XSP16, literal(-18)))
          CFI (cfiCond85) VB load(1, XDATA, add(CFA_XSP16, literal(-17)))
          CFI (cfiCond85) V0 load(1, XDATA, add(CFA_XSP16, literal(-16)))
          CFI (cfiCond85) V1 load(1, XDATA, add(CFA_XSP16, literal(-15)))
          CFI (cfiCond85) V2 load(1, XDATA, add(CFA_XSP16, literal(-14)))
          CFI (cfiCond85) V3 load(1, XDATA, add(CFA_XSP16, literal(-13)))
          CFI (cfiCond85) V4 load(1, XDATA, add(CFA_XSP16, literal(-12)))
          CFI (cfiCond85) V5 load(1, XDATA, add(CFA_XSP16, literal(-11)))
          CFI (cfiCond85) V6 load(1, XDATA, add(CFA_XSP16, literal(-10)))
          CFI (cfiCond85) V7 load(1, XDATA, add(CFA_XSP16, literal(-9)))
          CFI (cfiCond85) V8 load(1, XDATA, add(CFA_XSP16, literal(-8)))
          CFI (cfiCond85) V9 load(1, XDATA, add(CFA_XSP16, literal(-7)))
          CFI (cfiCond85) R7 load(1, XDATA, add(CFA_XSP16, literal(-6)))
          CFI (cfiCond85) ?RET_LOW load(1, XDATA, add(CFA_XSP16, literal(-5)))
          CFI (cfiCond85) ?RET_HIGH load(1, XDATA, add(CFA_XSP16, literal(-4)))
          CFI (cfiCond85) ?BRET_EXT load(1, XDATA, add(CFA_XSP16, literal(-3)))
          CFI (cfiCond85) DPL0 load(1, XDATA, add(CFA_XSP16, literal(-2)))
          CFI (cfiCond85) DPH0 load(1, XDATA, add(CFA_XSP16, literal(-1)))
          CFI (cfiCond85) CFA_SP SP+-2
          CFI (cfiCond85) CFA_XSP16 add(XSP16, 35)
          CFI Block cfiCond86 Using cfiCommon0
          CFI (cfiCond86) Function zclController_ProcessInReadRspCmd
          CFI (cfiCond86) Conditional ??CrossCallReturnLabel_113
          CFI (cfiCond86) R6 load(1, XDATA, add(CFA_XSP16, literal(-22)))
          CFI (cfiCond86) VB load(1, XDATA, add(CFA_XSP16, literal(-21)))
          CFI (cfiCond86) V0 load(1, XDATA, add(CFA_XSP16, literal(-20)))
          CFI (cfiCond86) V1 load(1, XDATA, add(CFA_XSP16, literal(-19)))
          CFI (cfiCond86) V2 load(1, XDATA, add(CFA_XSP16, literal(-18)))
          CFI (cfiCond86) V3 load(1, XDATA, add(CFA_XSP16, literal(-17)))
          CFI (cfiCond86) V4 load(1, XDATA, add(CFA_XSP16, literal(-16)))
          CFI (cfiCond86) V5 load(1, XDATA, add(CFA_XSP16, literal(-15)))
          CFI (cfiCond86) V6 load(1, XDATA, add(CFA_XSP16, literal(-14)))
          CFI (cfiCond86) V7 load(1, XDATA, add(CFA_XSP16, literal(-13)))
          CFI (cfiCond86) V8 load(1, XDATA, add(CFA_XSP16, literal(-12)))
          CFI (cfiCond86) V9 load(1, XDATA, add(CFA_XSP16, literal(-11)))
          CFI (cfiCond86) V10 load(1, XDATA, add(CFA_XSP16, literal(-10)))
          CFI (cfiCond86) V11 load(1, XDATA, add(CFA_XSP16, literal(-9)))
          CFI (cfiCond86) V12 load(1, XDATA, add(CFA_XSP16, literal(-8)))
          CFI (cfiCond86) V13 load(1, XDATA, add(CFA_XSP16, literal(-7)))
          CFI (cfiCond86) R7 load(1, XDATA, add(CFA_XSP16, literal(-6)))
          CFI (cfiCond86) ?RET_LOW load(1, XDATA, add(CFA_XSP16, literal(-5)))
          CFI (cfiCond86) ?RET_HIGH load(1, XDATA, add(CFA_XSP16, literal(-4)))
          CFI (cfiCond86) ?BRET_EXT load(1, XDATA, add(CFA_XSP16, literal(-3)))
          CFI (cfiCond86) DPL0 load(1, XDATA, add(CFA_XSP16, literal(-2)))
          CFI (cfiCond86) DPH0 load(1, XDATA, add(CFA_XSP16, literal(-1)))
          CFI (cfiCond86) CFA_SP SP+-2
          CFI (cfiCond86) CFA_XSP16 add(XSP16, 39)
          CFI Block cfiCond87 Using cfiCommon0
          CFI (cfiCond87) Function zclController_ProcessInReportCmd
          CFI (cfiCond87) Conditional ??CrossCallReturnLabel_114
          CFI (cfiCond87) R6 load(1, XDATA, add(CFA_XSP16, literal(-18)))
          CFI (cfiCond87) VB load(1, XDATA, add(CFA_XSP16, literal(-17)))
          CFI (cfiCond87) V0 load(1, XDATA, add(CFA_XSP16, literal(-16)))
          CFI (cfiCond87) V1 load(1, XDATA, add(CFA_XSP16, literal(-15)))
          CFI (cfiCond87) V2 load(1, XDATA, add(CFA_XSP16, literal(-14)))
          CFI (cfiCond87) V3 load(1, XDATA, add(CFA_XSP16, literal(-13)))
          CFI (cfiCond87) V4 load(1, XDATA, add(CFA_XSP16, literal(-12)))
          CFI (cfiCond87) V5 load(1, XDATA, add(CFA_XSP16, literal(-11)))
          CFI (cfiCond87) V6 load(1, XDATA, add(CFA_XSP16, literal(-10)))
          CFI (cfiCond87) V7 load(1, XDATA, add(CFA_XSP16, literal(-9)))
          CFI (cfiCond87) V8 load(1, XDATA, add(CFA_XSP16, literal(-8)))
          CFI (cfiCond87) V9 load(1, XDATA, add(CFA_XSP16, literal(-7)))
          CFI (cfiCond87) R7 load(1, XDATA, add(CFA_XSP16, literal(-6)))
          CFI (cfiCond87) ?RET_LOW load(1, XDATA, add(CFA_XSP16, literal(-5)))
          CFI (cfiCond87) ?RET_HIGH load(1, XDATA, add(CFA_XSP16, literal(-4)))
          CFI (cfiCond87) ?BRET_EXT load(1, XDATA, add(CFA_XSP16, literal(-3)))
          CFI (cfiCond87) DPL0 load(1, XDATA, add(CFA_XSP16, literal(-2)))
          CFI (cfiCond87) DPH0 load(1, XDATA, add(CFA_XSP16, literal(-1)))
          CFI (cfiCond87) CFA_SP SP+-2
          CFI (cfiCond87) CFA_XSP16 add(XSP16, 35)
          CFI Block cfiPicker88 Using cfiCommon1
          CFI (cfiPicker88) NoFunction
          CFI (cfiPicker88) Picker
        LCALL     ?Subroutine42 & 0xFFFF
??CrossCallReturnLabel_118:
        RET
          CFI EndBlock cfiCond83
          CFI EndBlock cfiCond84
          CFI EndBlock cfiCond85
          CFI EndBlock cfiCond86
          CFI EndBlock cfiCond87
          CFI EndBlock cfiPicker88

        RSEG BANKED_CODE:HUGECODE:NOROOT(0)
?Subroutine51:
          CFI Block cfiCond89 Using cfiCommon0
          CFI Function ATApp_MessageMSGCB
          CFI Conditional ??CrossCallReturnLabel_93, ??CrossCallReturnLabel_79, ??CrossCallReturnLabel_36
          CFI R6 load(1, XDATA, add(CFA_XSP16, literal(-10)))
          CFI VB load(1, XDATA, add(CFA_XSP16, literal(-9)))
          CFI V0 load(1, XDATA, add(CFA_XSP16, literal(-8)))
          CFI V1 load(1, XDATA, add(CFA_XSP16, literal(-7)))
          CFI R7 load(1, XDATA, add(CFA_XSP16, literal(-6)))
          CFI ?RET_LOW load(1, XDATA, add(CFA_XSP16, literal(-5)))
          CFI ?RET_HIGH load(1, XDATA, add(CFA_XSP16, literal(-4)))
          CFI ?BRET_EXT load(1, XDATA, add(CFA_XSP16, literal(-3)))
          CFI DPL0 load(1, XDATA, add(CFA_XSP16, literal(-2)))
          CFI DPH0 load(1, XDATA, add(CFA_XSP16, literal(-1)))
          CFI CFA_SP SP+-6
          CFI CFA_XSP16 add(XSP16, 10)
          CFI Block cfiCond90 Using cfiCommon0
          CFI (cfiCond90) Function ATApp_MessageMSGCB
          CFI (cfiCond90) Conditional ??CrossCallReturnLabel_93, ??CrossCallReturnLabel_79, ??CrossCallReturnLabel_37
          CFI (cfiCond90) R6 load(1, XDATA, add(CFA_XSP16, literal(-10)))
          CFI (cfiCond90) VB load(1, XDATA, add(CFA_XSP16, literal(-9)))
          CFI (cfiCond90) V0 load(1, XDATA, add(CFA_XSP16, literal(-8)))
          CFI (cfiCond90) V1 load(1, XDATA, add(CFA_XSP16, literal(-7)))
          CFI (cfiCond90) R7 load(1, XDATA, add(CFA_XSP16, literal(-6)))
          CFI (cfiCond90) ?RET_LOW load(1, XDATA, add(CFA_XSP16, literal(-5)))
          CFI (cfiCond90) ?RET_HIGH load(1, XDATA, add(CFA_XSP16, literal(-4)))
          CFI (cfiCond90) ?BRET_EXT load(1, XDATA, add(CFA_XSP16, literal(-3)))
          CFI (cfiCond90) DPL0 load(1, XDATA, add(CFA_XSP16, literal(-2)))
          CFI (cfiCond90) DPH0 load(1, XDATA, add(CFA_XSP16, literal(-1)))
          CFI (cfiCond90) CFA_SP SP+-6
          CFI (cfiCond90) CFA_XSP16 add(XSP16, 10)
          CFI Block cfiCond91 Using cfiCommon0
          CFI (cfiCond91) Function zclController_ProcessInReadRspCmd
          CFI (cfiCond91) Conditional ??CrossCallReturnLabel_93, ??CrossCallReturnLabel_78, ??CrossCallReturnLabel_22
          CFI (cfiCond91) R6 load(1, XDATA, add(CFA_XSP16, literal(-22)))
          CFI (cfiCond91) VB load(1, XDATA, add(CFA_XSP16, literal(-21)))
          CFI (cfiCond91) V0 load(1, XDATA, add(CFA_XSP16, literal(-20)))
          CFI (cfiCond91) V1 load(1, XDATA, add(CFA_XSP16, literal(-19)))
          CFI (cfiCond91) V2 load(1, XDATA, add(CFA_XSP16, literal(-18)))
          CFI (cfiCond91) V3 load(1, XDATA, add(CFA_XSP16, literal(-17)))
          CFI (cfiCond91) V4 load(1, XDATA, add(CFA_XSP16, literal(-16)))
          CFI (cfiCond91) V5 load(1, XDATA, add(CFA_XSP16, literal(-15)))
          CFI (cfiCond91) V6 load(1, XDATA, add(CFA_XSP16, literal(-14)))
          CFI (cfiCond91) V7 load(1, XDATA, add(CFA_XSP16, literal(-13)))
          CFI (cfiCond91) V8 load(1, XDATA, add(CFA_XSP16, literal(-12)))
          CFI (cfiCond91) V9 load(1, XDATA, add(CFA_XSP16, literal(-11)))
          CFI (cfiCond91) V10 load(1, XDATA, add(CFA_XSP16, literal(-10)))
          CFI (cfiCond91) V11 load(1, XDATA, add(CFA_XSP16, literal(-9)))
          CFI (cfiCond91) V12 load(1, XDATA, add(CFA_XSP16, literal(-8)))
          CFI (cfiCond91) V13 load(1, XDATA, add(CFA_XSP16, literal(-7)))
          CFI (cfiCond91) R7 load(1, XDATA, add(CFA_XSP16, literal(-6)))
          CFI (cfiCond91) ?RET_LOW load(1, XDATA, add(CFA_XSP16, literal(-5)))
          CFI (cfiCond91) ?RET_HIGH load(1, XDATA, add(CFA_XSP16, literal(-4)))
          CFI (cfiCond91) ?BRET_EXT load(1, XDATA, add(CFA_XSP16, literal(-3)))
          CFI (cfiCond91) DPL0 load(1, XDATA, add(CFA_XSP16, literal(-2)))
          CFI (cfiCond91) DPH0 load(1, XDATA, add(CFA_XSP16, literal(-1)))
          CFI (cfiCond91) CFA_SP SP+-6
          CFI (cfiCond91) CFA_XSP16 add(XSP16, 39)
          CFI Block cfiCond92 Using cfiCommon0
          CFI (cfiCond92) Function zclController_ProcessInReportCmd
          CFI (cfiCond92) Conditional ??CrossCallReturnLabel_93, ??CrossCallReturnLabel_78, ??CrossCallReturnLabel_23
          CFI (cfiCond92) R6 load(1, XDATA, add(CFA_XSP16, literal(-18)))
          CFI (cfiCond92) VB load(1, XDATA, add(CFA_XSP16, literal(-17)))
          CFI (cfiCond92) V0 load(1, XDATA, add(CFA_XSP16, literal(-16)))
          CFI (cfiCond92) V1 load(1, XDATA, add(CFA_XSP16, literal(-15)))
          CFI (cfiCond92) V2 load(1, XDATA, add(CFA_XSP16, literal(-14)))
          CFI (cfiCond92) V3 load(1, XDATA, add(CFA_XSP16, literal(-13)))
          CFI (cfiCond92) V4 load(1, XDATA, add(CFA_XSP16, literal(-12)))
          CFI (cfiCond92) V5 load(1, XDATA, add(CFA_XSP16, literal(-11)))
          CFI (cfiCond92) V6 load(1, XDATA, add(CFA_XSP16, literal(-10)))
          CFI (cfiCond92) V7 load(1, XDATA, add(CFA_XSP16, literal(-9)))
          CFI (cfiCond92) V8 load(1, XDATA, add(CFA_XSP16, literal(-8)))
          CFI (cfiCond92) V9 load(1, XDATA, add(CFA_XSP16, literal(-7)))
          CFI (cfiCond92) R7 load(1, XDATA, add(CFA_XSP16, literal(-6)))
          CFI (cfiCond92) ?RET_LOW load(1, XDATA, add(CFA_XSP16, literal(-5)))
          CFI (cfiCond92) ?RET_HIGH load(1, XDATA, add(CFA_XSP16, literal(-4)))
          CFI (cfiCond92) ?BRET_EXT load(1, XDATA, add(CFA_XSP16, literal(-3)))
          CFI (cfiCond92) DPL0 load(1, XDATA, add(CFA_XSP16, literal(-2)))
          CFI (cfiCond92) DPH0 load(1, XDATA, add(CFA_XSP16, literal(-1)))
          CFI (cfiCond92) CFA_SP SP+-6
          CFI (cfiCond92) CFA_XSP16 add(XSP16, 35)
          CFI Block cfiCond93 Using cfiCommon0
          CFI (cfiCond93) Function zclController_ProcessInReadRspCmd
          CFI (cfiCond93) Conditional ??CrossCallReturnLabel_92, ??CrossCallReturnLabel_113
          CFI (cfiCond93) R6 load(1, XDATA, add(CFA_XSP16, literal(-22)))
          CFI (cfiCond93) VB load(1, XDATA, add(CFA_XSP16, literal(-21)))
          CFI (cfiCond93) V0 load(1, XDATA, add(CFA_XSP16, literal(-20)))
          CFI (cfiCond93) V1 load(1, XDATA, add(CFA_XSP16, literal(-19)))
          CFI (cfiCond93) V2 load(1, XDATA, add(CFA_XSP16, literal(-18)))
          CFI (cfiCond93) V3 load(1, XDATA, add(CFA_XSP16, literal(-17)))
          CFI (cfiCond93) V4 load(1, XDATA, add(CFA_XSP16, literal(-16)))
          CFI (cfiCond93) V5 load(1, XDATA, add(CFA_XSP16, literal(-15)))
          CFI (cfiCond93) V6 load(1, XDATA, add(CFA_XSP16, literal(-14)))
          CFI (cfiCond93) V7 load(1, XDATA, add(CFA_XSP16, literal(-13)))
          CFI (cfiCond93) V8 load(1, XDATA, add(CFA_XSP16, literal(-12)))
          CFI (cfiCond93) V9 load(1, XDATA, add(CFA_XSP16, literal(-11)))
          CFI (cfiCond93) V10 load(1, XDATA, add(CFA_XSP16, literal(-10)))
          CFI (cfiCond93) V11 load(1, XDATA, add(CFA_XSP16, literal(-9)))
          CFI (cfiCond93) V12 load(1, XDATA, add(CFA_XSP16, literal(-8)))
          CFI (cfiCond93) V13 load(1, XDATA, add(CFA_XSP16, literal(-7)))
          CFI (cfiCond93) R7 load(1, XDATA, add(CFA_XSP16, literal(-6)))
          CFI (cfiCond93) ?RET_LOW load(1, XDATA, add(CFA_XSP16, literal(-5)))
          CFI (cfiCond93) ?RET_HIGH load(1, XDATA, add(CFA_XSP16, literal(-4)))
          CFI (cfiCond93) ?BRET_EXT load(1, XDATA, add(CFA_XSP16, literal(-3)))
          CFI (cfiCond93) DPL0 load(1, XDATA, add(CFA_XSP16, literal(-2)))
          CFI (cfiCond93) DPH0 load(1, XDATA, add(CFA_XSP16, literal(-1)))
          CFI (cfiCond93) CFA_SP SP+-4
          CFI (cfiCond93) CFA_XSP16 add(XSP16, 39)
          CFI Block cfiCond94 Using cfiCommon0
          CFI (cfiCond94) Function zclController_ProcessInReportCmd
          CFI (cfiCond94) Conditional ??CrossCallReturnLabel_92, ??CrossCallReturnLabel_114
          CFI (cfiCond94) R6 load(1, XDATA, add(CFA_XSP16, literal(-18)))
          CFI (cfiCond94) VB load(1, XDATA, add(CFA_XSP16, literal(-17)))
          CFI (cfiCond94) V0 load(1, XDATA, add(CFA_XSP16, literal(-16)))
          CFI (cfiCond94) V1 load(1, XDATA, add(CFA_XSP16, literal(-15)))
          CFI (cfiCond94) V2 load(1, XDATA, add(CFA_XSP16, literal(-14)))
          CFI (cfiCond94) V3 load(1, XDATA, add(CFA_XSP16, literal(-13)))
          CFI (cfiCond94) V4 load(1, XDATA, add(CFA_XSP16, literal(-12)))
          CFI (cfiCond94) V5 load(1, XDATA, add(CFA_XSP16, literal(-11)))
          CFI (cfiCond94) V6 load(1, XDATA, add(CFA_XSP16, literal(-10)))
          CFI (cfiCond94) V7 load(1, XDATA, add(CFA_XSP16, literal(-9)))
          CFI (cfiCond94) V8 load(1, XDATA, add(CFA_XSP16, literal(-8)))
          CFI (cfiCond94) V9 load(1, XDATA, add(CFA_XSP16, literal(-7)))
          CFI (cfiCond94) R7 load(1, XDATA, add(CFA_XSP16, literal(-6)))
          CFI (cfiCond94) ?RET_LOW load(1, XDATA, add(CFA_XSP16, literal(-5)))
          CFI (cfiCond94) ?RET_HIGH load(1, XDATA, add(CFA_XSP16, literal(-4)))
          CFI (cfiCond94) ?BRET_EXT load(1, XDATA, add(CFA_XSP16, literal(-3)))
          CFI (cfiCond94) DPL0 load(1, XDATA, add(CFA_XSP16, literal(-2)))
          CFI (cfiCond94) DPH0 load(1, XDATA, add(CFA_XSP16, literal(-1)))
          CFI (cfiCond94) CFA_SP SP+-4
          CFI (cfiCond94) CFA_XSP16 add(XSP16, 35)
          CFI Block cfiPicker95 Using cfiCommon1
          CFI (cfiPicker95) NoFunction
          CFI (cfiPicker95) Picker
        MOVX      A,@DPTR
        MOV       R0,A
        INC       DPTR
        MOVX      A,@DPTR
        MOV       DPH,A
        MOV       DPL,R0
        RET
          CFI EndBlock cfiCond89
          CFI EndBlock cfiCond90
          CFI EndBlock cfiCond91
          CFI EndBlock cfiCond92
          CFI EndBlock cfiCond93
          CFI EndBlock cfiCond94
          CFI EndBlock cfiPicker95

        RSEG BANKED_CODE:HUGECODE:NOROOT(0)
?Subroutine42:
          CFI Block cfiCond96 Using cfiCommon0
          CFI Function zclController_ProcessInReadRspCmd
          CFI Conditional ??CrossCallReturnLabel_118, ??CrossCallReturnLabel_113
          CFI R6 load(1, XDATA, add(CFA_XSP16, literal(-22)))
          CFI VB load(1, XDATA, add(CFA_XSP16, literal(-21)))
          CFI V0 load(1, XDATA, add(CFA_XSP16, literal(-20)))
          CFI V1 load(1, XDATA, add(CFA_XSP16, literal(-19)))
          CFI V2 load(1, XDATA, add(CFA_XSP16, literal(-18)))
          CFI V3 load(1, XDATA, add(CFA_XSP16, literal(-17)))
          CFI V4 load(1, XDATA, add(CFA_XSP16, literal(-16)))
          CFI V5 load(1, XDATA, add(CFA_XSP16, literal(-15)))
          CFI V6 load(1, XDATA, add(CFA_XSP16, literal(-14)))
          CFI V7 load(1, XDATA, add(CFA_XSP16, literal(-13)))
          CFI V8 load(1, XDATA, add(CFA_XSP16, literal(-12)))
          CFI V9 load(1, XDATA, add(CFA_XSP16, literal(-11)))
          CFI V10 load(1, XDATA, add(CFA_XSP16, literal(-10)))
          CFI V11 load(1, XDATA, add(CFA_XSP16, literal(-9)))
          CFI V12 load(1, XDATA, add(CFA_XSP16, literal(-8)))
          CFI V13 load(1, XDATA, add(CFA_XSP16, literal(-7)))
          CFI R7 load(1, XDATA, add(CFA_XSP16, literal(-6)))
          CFI ?RET_LOW load(1, XDATA, add(CFA_XSP16, literal(-5)))
          CFI ?RET_HIGH load(1, XDATA, add(CFA_XSP16, literal(-4)))
          CFI ?BRET_EXT load(1, XDATA, add(CFA_XSP16, literal(-3)))
          CFI DPL0 load(1, XDATA, add(CFA_XSP16, literal(-2)))
          CFI DPH0 load(1, XDATA, add(CFA_XSP16, literal(-1)))
          CFI CFA_SP SP+-4
          CFI CFA_XSP16 add(XSP16, 39)
          CFI Block cfiCond97 Using cfiCommon0
          CFI (cfiCond97) Function zclController_ProcessInReportCmd
          CFI (cfiCond97) Conditional ??CrossCallReturnLabel_118, ??CrossCallReturnLabel_114
          CFI (cfiCond97) R6 load(1, XDATA, add(CFA_XSP16, literal(-18)))
          CFI (cfiCond97) VB load(1, XDATA, add(CFA_XSP16, literal(-17)))
          CFI (cfiCond97) V0 load(1, XDATA, add(CFA_XSP16, literal(-16)))
          CFI (cfiCond97) V1 load(1, XDATA, add(CFA_XSP16, literal(-15)))
          CFI (cfiCond97) V2 load(1, XDATA, add(CFA_XSP16, literal(-14)))
          CFI (cfiCond97) V3 load(1, XDATA, add(CFA_XSP16, literal(-13)))
          CFI (cfiCond97) V4 load(1, XDATA, add(CFA_XSP16, literal(-12)))
          CFI (cfiCond97) V5 load(1, XDATA, add(CFA_XSP16, literal(-11)))
          CFI (cfiCond97) V6 load(1, XDATA, add(CFA_XSP16, literal(-10)))
          CFI (cfiCond97) V7 load(1, XDATA, add(CFA_XSP16, literal(-9)))
          CFI (cfiCond97) V8 load(1, XDATA, add(CFA_XSP16, literal(-8)))
          CFI (cfiCond97) V9 load(1, XDATA, add(CFA_XSP16, literal(-7)))
          CFI (cfiCond97) R7 load(1, XDATA, add(CFA_XSP16, literal(-6)))
          CFI (cfiCond97) ?RET_LOW load(1, XDATA, add(CFA_XSP16, literal(-5)))
          CFI (cfiCond97) ?RET_HIGH load(1, XDATA, add(CFA_XSP16, literal(-4)))
          CFI (cfiCond97) ?BRET_EXT load(1, XDATA, add(CFA_XSP16, literal(-3)))
          CFI (cfiCond97) DPL0 load(1, XDATA, add(CFA_XSP16, literal(-2)))
          CFI (cfiCond97) DPH0 load(1, XDATA, add(CFA_XSP16, literal(-1)))
          CFI (cfiCond97) CFA_SP SP+-4
          CFI (cfiCond97) CFA_XSP16 add(XSP16, 35)
          CFI Block cfiCond98 Using cfiCommon0
          CFI (cfiCond98) Function zclController_ProcessInReadRspCmd
          CFI (cfiCond98) Conditional ??CrossCallReturnLabel_118, ??CrossCallReturnLabel_115
          CFI (cfiCond98) R6 load(1, XDATA, add(CFA_XSP16, literal(-22)))
          CFI (cfiCond98) VB load(1, XDATA, add(CFA_XSP16, literal(-21)))
          CFI (cfiCond98) V0 load(1, XDATA, add(CFA_XSP16, literal(-20)))
          CFI (cfiCond98) V1 load(1, XDATA, add(CFA_XSP16, literal(-19)))
          CFI (cfiCond98) V2 load(1, XDATA, add(CFA_XSP16, literal(-18)))
          CFI (cfiCond98) V3 load(1, XDATA, add(CFA_XSP16, literal(-17)))
          CFI (cfiCond98) V4 load(1, XDATA, add(CFA_XSP16, literal(-16)))
          CFI (cfiCond98) V5 load(1, XDATA, add(CFA_XSP16, literal(-15)))
          CFI (cfiCond98) V6 load(1, XDATA, add(CFA_XSP16, literal(-14)))
          CFI (cfiCond98) V7 load(1, XDATA, add(CFA_XSP16, literal(-13)))
          CFI (cfiCond98) V8 load(1, XDATA, add(CFA_XSP16, literal(-12)))
          CFI (cfiCond98) V9 load(1, XDATA, add(CFA_XSP16, literal(-11)))
          CFI (cfiCond98) V10 load(1, XDATA, add(CFA_XSP16, literal(-10)))
          CFI (cfiCond98) V11 load(1, XDATA, add(CFA_XSP16, literal(-9)))
          CFI (cfiCond98) V12 load(1, XDATA, add(CFA_XSP16, literal(-8)))
          CFI (cfiCond98) V13 load(1, XDATA, add(CFA_XSP16, literal(-7)))
          CFI (cfiCond98) R7 load(1, XDATA, add(CFA_XSP16, literal(-6)))
          CFI (cfiCond98) ?RET_LOW load(1, XDATA, add(CFA_XSP16, literal(-5)))
          CFI (cfiCond98) ?RET_HIGH load(1, XDATA, add(CFA_XSP16, literal(-4)))
          CFI (cfiCond98) ?BRET_EXT load(1, XDATA, add(CFA_XSP16, literal(-3)))
          CFI (cfiCond98) DPL0 load(1, XDATA, add(CFA_XSP16, literal(-2)))
          CFI (cfiCond98) DPH0 load(1, XDATA, add(CFA_XSP16, literal(-1)))
          CFI (cfiCond98) CFA_SP SP+-4
          CFI (cfiCond98) CFA_XSP16 add(XSP16, 39)
          CFI Block cfiCond99 Using cfiCommon0
          CFI (cfiCond99) Function zclController_ProcessInWriteRspCmd
          CFI (cfiCond99) Conditional ??CrossCallReturnLabel_118, ??CrossCallReturnLabel_116
          CFI (cfiCond99) R6 load(1, XDATA, add(CFA_XSP16, literal(-22)))
          CFI (cfiCond99) VB load(1, XDATA, add(CFA_XSP16, literal(-21)))
          CFI (cfiCond99) V0 load(1, XDATA, add(CFA_XSP16, literal(-20)))
          CFI (cfiCond99) V1 load(1, XDATA, add(CFA_XSP16, literal(-19)))
          CFI (cfiCond99) V2 load(1, XDATA, add(CFA_XSP16, literal(-18)))
          CFI (cfiCond99) V3 load(1, XDATA, add(CFA_XSP16, literal(-17)))
          CFI (cfiCond99) V4 load(1, XDATA, add(CFA_XSP16, literal(-16)))
          CFI (cfiCond99) V5 load(1, XDATA, add(CFA_XSP16, literal(-15)))
          CFI (cfiCond99) V6 load(1, XDATA, add(CFA_XSP16, literal(-14)))
          CFI (cfiCond99) V7 load(1, XDATA, add(CFA_XSP16, literal(-13)))
          CFI (cfiCond99) V8 load(1, XDATA, add(CFA_XSP16, literal(-12)))
          CFI (cfiCond99) V9 load(1, XDATA, add(CFA_XSP16, literal(-11)))
          CFI (cfiCond99) V10 load(1, XDATA, add(CFA_XSP16, literal(-10)))
          CFI (cfiCond99) V11 load(1, XDATA, add(CFA_XSP16, literal(-9)))
          CFI (cfiCond99) V12 load(1, XDATA, add(CFA_XSP16, literal(-8)))
          CFI (cfiCond99) V13 load(1, XDATA, add(CFA_XSP16, literal(-7)))
          CFI (cfiCond99) R7 load(1, XDATA, add(CFA_XSP16, literal(-6)))
          CFI (cfiCond99) ?RET_LOW load(1, XDATA, add(CFA_XSP16, literal(-5)))
          CFI (cfiCond99) ?RET_HIGH load(1, XDATA, add(CFA_XSP16, literal(-4)))
          CFI (cfiCond99) ?BRET_EXT load(1, XDATA, add(CFA_XSP16, literal(-3)))
          CFI (cfiCond99) DPL0 load(1, XDATA, add(CFA_XSP16, literal(-2)))
          CFI (cfiCond99) DPH0 load(1, XDATA, add(CFA_XSP16, literal(-1)))
          CFI (cfiCond99) CFA_SP SP+-4
          CFI (cfiCond99) CFA_XSP16 add(XSP16, 39)
          CFI Block cfiCond100 Using cfiCommon0
          CFI (cfiCond100) Function zclController_ProcessInReportCmd
          CFI (cfiCond100) Conditional ??CrossCallReturnLabel_118, ??CrossCallReturnLabel_117
          CFI (cfiCond100) R6 load(1, XDATA, add(CFA_XSP16, literal(-18)))
          CFI (cfiCond100) VB load(1, XDATA, add(CFA_XSP16, literal(-17)))
          CFI (cfiCond100) V0 load(1, XDATA, add(CFA_XSP16, literal(-16)))
          CFI (cfiCond100) V1 load(1, XDATA, add(CFA_XSP16, literal(-15)))
          CFI (cfiCond100) V2 load(1, XDATA, add(CFA_XSP16, literal(-14)))
          CFI (cfiCond100) V3 load(1, XDATA, add(CFA_XSP16, literal(-13)))
          CFI (cfiCond100) V4 load(1, XDATA, add(CFA_XSP16, literal(-12)))
          CFI (cfiCond100) V5 load(1, XDATA, add(CFA_XSP16, literal(-11)))
          CFI (cfiCond100) V6 load(1, XDATA, add(CFA_XSP16, literal(-10)))
          CFI (cfiCond100) V7 load(1, XDATA, add(CFA_XSP16, literal(-9)))
          CFI (cfiCond100) V8 load(1, XDATA, add(CFA_XSP16, literal(-8)))
          CFI (cfiCond100) V9 load(1, XDATA, add(CFA_XSP16, literal(-7)))
          CFI (cfiCond100) R7 load(1, XDATA, add(CFA_XSP16, literal(-6)))
          CFI (cfiCond100) ?RET_LOW load(1, XDATA, add(CFA_XSP16, literal(-5)))
          CFI (cfiCond100) ?RET_HIGH load(1, XDATA, add(CFA_XSP16, literal(-4)))
          CFI (cfiCond100) ?BRET_EXT load(1, XDATA, add(CFA_XSP16, literal(-3)))
          CFI (cfiCond100) DPL0 load(1, XDATA, add(CFA_XSP16, literal(-2)))
          CFI (cfiCond100) DPH0 load(1, XDATA, add(CFA_XSP16, literal(-1)))
          CFI (cfiCond100) CFA_SP SP+-4
          CFI (cfiCond100) CFA_XSP16 add(XSP16, 35)
          CFI Block cfiCond101 Using cfiCommon0
          CFI (cfiCond101) Function zclController_ProcessInWriteRspCmd
          CFI (cfiCond101) Conditional ??CrossCallReturnLabel_119, ??CrossCallReturnLabel_8
          CFI (cfiCond101) R6 load(1, XDATA, add(CFA_XSP16, literal(-22)))
          CFI (cfiCond101) VB load(1, XDATA, add(CFA_XSP16, literal(-21)))
          CFI (cfiCond101) V0 load(1, XDATA, add(CFA_XSP16, literal(-20)))
          CFI (cfiCond101) V1 load(1, XDATA, add(CFA_XSP16, literal(-19)))
          CFI (cfiCond101) V2 load(1, XDATA, add(CFA_XSP16, literal(-18)))
          CFI (cfiCond101) V3 load(1, XDATA, add(CFA_XSP16, literal(-17)))
          CFI (cfiCond101) V4 load(1, XDATA, add(CFA_XSP16, literal(-16)))
          CFI (cfiCond101) V5 load(1, XDATA, add(CFA_XSP16, literal(-15)))
          CFI (cfiCond101) V6 load(1, XDATA, add(CFA_XSP16, literal(-14)))
          CFI (cfiCond101) V7 load(1, XDATA, add(CFA_XSP16, literal(-13)))
          CFI (cfiCond101) V8 load(1, XDATA, add(CFA_XSP16, literal(-12)))
          CFI (cfiCond101) V9 load(1, XDATA, add(CFA_XSP16, literal(-11)))
          CFI (cfiCond101) V10 load(1, XDATA, add(CFA_XSP16, literal(-10)))
          CFI (cfiCond101) V11 load(1, XDATA, add(CFA_XSP16, literal(-9)))
          CFI (cfiCond101) V12 load(1, XDATA, add(CFA_XSP16, literal(-8)))
          CFI (cfiCond101) V13 load(1, XDATA, add(CFA_XSP16, literal(-7)))
          CFI (cfiCond101) R7 load(1, XDATA, add(CFA_XSP16, literal(-6)))
          CFI (cfiCond101) ?RET_LOW load(1, XDATA, add(CFA_XSP16, literal(-5)))
          CFI (cfiCond101) ?RET_HIGH load(1, XDATA, add(CFA_XSP16, literal(-4)))
          CFI (cfiCond101) ?BRET_EXT load(1, XDATA, add(CFA_XSP16, literal(-3)))
          CFI (cfiCond101) DPL0 load(1, XDATA, add(CFA_XSP16, literal(-2)))
          CFI (cfiCond101) DPH0 load(1, XDATA, add(CFA_XSP16, literal(-1)))
          CFI (cfiCond101) CFA_SP SP+-4
          CFI (cfiCond101) CFA_XSP16 add(XSP16, 39)
          CFI Block cfiCond102 Using cfiCommon0
          CFI (cfiCond102) Function zclController_ProcessInWriteRspCmd
          CFI (cfiCond102) Conditional ??CrossCallReturnLabel_119, ??CrossCallReturnLabel_9
          CFI (cfiCond102) R6 load(1, XDATA, add(CFA_XSP16, literal(-22)))
          CFI (cfiCond102) VB load(1, XDATA, add(CFA_XSP16, literal(-21)))
          CFI (cfiCond102) V0 load(1, XDATA, add(CFA_XSP16, literal(-20)))
          CFI (cfiCond102) V1 load(1, XDATA, add(CFA_XSP16, literal(-19)))
          CFI (cfiCond102) V2 load(1, XDATA, add(CFA_XSP16, literal(-18)))
          CFI (cfiCond102) V3 load(1, XDATA, add(CFA_XSP16, literal(-17)))
          CFI (cfiCond102) V4 load(1, XDATA, add(CFA_XSP16, literal(-16)))
          CFI (cfiCond102) V5 load(1, XDATA, add(CFA_XSP16, literal(-15)))
          CFI (cfiCond102) V6 load(1, XDATA, add(CFA_XSP16, literal(-14)))
          CFI (cfiCond102) V7 load(1, XDATA, add(CFA_XSP16, literal(-13)))
          CFI (cfiCond102) V8 load(1, XDATA, add(CFA_XSP16, literal(-12)))
          CFI (cfiCond102) V9 load(1, XDATA, add(CFA_XSP16, literal(-11)))
          CFI (cfiCond102) V10 load(1, XDATA, add(CFA_XSP16, literal(-10)))
          CFI (cfiCond102) V11 load(1, XDATA, add(CFA_XSP16, literal(-9)))
          CFI (cfiCond102) V12 load(1, XDATA, add(CFA_XSP16, literal(-8)))
          CFI (cfiCond102) V13 load(1, XDATA, add(CFA_XSP16, literal(-7)))
          CFI (cfiCond102) R7 load(1, XDATA, add(CFA_XSP16, literal(-6)))
          CFI (cfiCond102) ?RET_LOW load(1, XDATA, add(CFA_XSP16, literal(-5)))
          CFI (cfiCond102) ?RET_HIGH load(1, XDATA, add(CFA_XSP16, literal(-4)))
          CFI (cfiCond102) ?BRET_EXT load(1, XDATA, add(CFA_XSP16, literal(-3)))
          CFI (cfiCond102) DPL0 load(1, XDATA, add(CFA_XSP16, literal(-2)))
          CFI (cfiCond102) DPH0 load(1, XDATA, add(CFA_XSP16, literal(-1)))
          CFI (cfiCond102) CFA_SP SP+-4
          CFI (cfiCond102) CFA_XSP16 add(XSP16, 39)
          CFI Block cfiPicker103 Using cfiCommon1
          CFI (cfiPicker103) NoFunction
          CFI (cfiPicker103) Picker
        LCALL     ?Subroutine50 & 0xFFFF
??CrossCallReturnLabel_120:
        RET
          CFI EndBlock cfiCond96
          CFI EndBlock cfiCond97
          CFI EndBlock cfiCond98
          CFI EndBlock cfiCond99
          CFI EndBlock cfiCond100
          CFI EndBlock cfiCond101
          CFI EndBlock cfiCond102
          CFI EndBlock cfiPicker103

        RSEG BANKED_CODE:HUGECODE:NOROOT(0)
?Subroutine50:
          CFI Block cfiCond104 Using cfiCommon0
          CFI Function zclController_ProcessInReadRspCmd
          CFI Conditional ??CrossCallReturnLabel_120, ??CrossCallReturnLabel_118, ??CrossCallReturnLabel_113
          CFI R6 load(1, XDATA, add(CFA_XSP16, literal(-22)))
          CFI VB load(1, XDATA, add(CFA_XSP16, literal(-21)))
          CFI V0 load(1, XDATA, add(CFA_XSP16, literal(-20)))
          CFI V1 load(1, XDATA, add(CFA_XSP16, literal(-19)))
          CFI V2 load(1, XDATA, add(CFA_XSP16, literal(-18)))
          CFI V3 load(1, XDATA, add(CFA_XSP16, literal(-17)))
          CFI V4 load(1, XDATA, add(CFA_XSP16, literal(-16)))
          CFI V5 load(1, XDATA, add(CFA_XSP16, literal(-15)))
          CFI V6 load(1, XDATA, add(CFA_XSP16, literal(-14)))
          CFI V7 load(1, XDATA, add(CFA_XSP16, literal(-13)))
          CFI V8 load(1, XDATA, add(CFA_XSP16, literal(-12)))
          CFI V9 load(1, XDATA, add(CFA_XSP16, literal(-11)))
          CFI V10 load(1, XDATA, add(CFA_XSP16, literal(-10)))
          CFI V11 load(1, XDATA, add(CFA_XSP16, literal(-9)))
          CFI V12 load(1, XDATA, add(CFA_XSP16, literal(-8)))
          CFI V13 load(1, XDATA, add(CFA_XSP16, literal(-7)))
          CFI R7 load(1, XDATA, add(CFA_XSP16, literal(-6)))
          CFI ?RET_LOW load(1, XDATA, add(CFA_XSP16, literal(-5)))
          CFI ?RET_HIGH load(1, XDATA, add(CFA_XSP16, literal(-4)))
          CFI ?BRET_EXT load(1, XDATA, add(CFA_XSP16, literal(-3)))
          CFI DPL0 load(1, XDATA, add(CFA_XSP16, literal(-2)))
          CFI DPH0 load(1, XDATA, add(CFA_XSP16, literal(-1)))
          CFI CFA_SP SP+-6
          CFI CFA_XSP16 add(XSP16, 39)
          CFI Block cfiCond105 Using cfiCommon0
          CFI (cfiCond105) Function zclController_ProcessInReportCmd
          CFI (cfiCond105) Conditional ??CrossCallReturnLabel_120, ??CrossCallReturnLabel_118, ??CrossCallReturnLabel_114
          CFI (cfiCond105) R6 load(1, XDATA, add(CFA_XSP16, literal(-18)))
          CFI (cfiCond105) VB load(1, XDATA, add(CFA_XSP16, literal(-17)))
          CFI (cfiCond105) V0 load(1, XDATA, add(CFA_XSP16, literal(-16)))
          CFI (cfiCond105) V1 load(1, XDATA, add(CFA_XSP16, literal(-15)))
          CFI (cfiCond105) V2 load(1, XDATA, add(CFA_XSP16, literal(-14)))
          CFI (cfiCond105) V3 load(1, XDATA, add(CFA_XSP16, literal(-13)))
          CFI (cfiCond105) V4 load(1, XDATA, add(CFA_XSP16, literal(-12)))
          CFI (cfiCond105) V5 load(1, XDATA, add(CFA_XSP16, literal(-11)))
          CFI (cfiCond105) V6 load(1, XDATA, add(CFA_XSP16, literal(-10)))
          CFI (cfiCond105) V7 load(1, XDATA, add(CFA_XSP16, literal(-9)))
          CFI (cfiCond105) V8 load(1, XDATA, add(CFA_XSP16, literal(-8)))
          CFI (cfiCond105) V9 load(1, XDATA, add(CFA_XSP16, literal(-7)))
          CFI (cfiCond105) R7 load(1, XDATA, add(CFA_XSP16, literal(-6)))
          CFI (cfiCond105) ?RET_LOW load(1, XDATA, add(CFA_XSP16, literal(-5)))
          CFI (cfiCond105) ?RET_HIGH load(1, XDATA, add(CFA_XSP16, literal(-4)))
          CFI (cfiCond105) ?BRET_EXT load(1, XDATA, add(CFA_XSP16, literal(-3)))
          CFI (cfiCond105) DPL0 load(1, XDATA, add(CFA_XSP16, literal(-2)))
          CFI (cfiCond105) DPH0 load(1, XDATA, add(CFA_XSP16, literal(-1)))
          CFI (cfiCond105) CFA_SP SP+-6
          CFI (cfiCond105) CFA_XSP16 add(XSP16, 35)
          CFI Block cfiCond106 Using cfiCommon0
          CFI (cfiCond106) Function zclController_ProcessInReadRspCmd
          CFI (cfiCond106) Conditional ??CrossCallReturnLabel_120, ??CrossCallReturnLabel_118, ??CrossCallReturnLabel_115
          CFI (cfiCond106) R6 load(1, XDATA, add(CFA_XSP16, literal(-22)))
          CFI (cfiCond106) VB load(1, XDATA, add(CFA_XSP16, literal(-21)))
          CFI (cfiCond106) V0 load(1, XDATA, add(CFA_XSP16, literal(-20)))
          CFI (cfiCond106) V1 load(1, XDATA, add(CFA_XSP16, literal(-19)))
          CFI (cfiCond106) V2 load(1, XDATA, add(CFA_XSP16, literal(-18)))
          CFI (cfiCond106) V3 load(1, XDATA, add(CFA_XSP16, literal(-17)))
          CFI (cfiCond106) V4 load(1, XDATA, add(CFA_XSP16, literal(-16)))
          CFI (cfiCond106) V5 load(1, XDATA, add(CFA_XSP16, literal(-15)))
          CFI (cfiCond106) V6 load(1, XDATA, add(CFA_XSP16, literal(-14)))
          CFI (cfiCond106) V7 load(1, XDATA, add(CFA_XSP16, literal(-13)))
          CFI (cfiCond106) V8 load(1, XDATA, add(CFA_XSP16, literal(-12)))
          CFI (cfiCond106) V9 load(1, XDATA, add(CFA_XSP16, literal(-11)))
          CFI (cfiCond106) V10 load(1, XDATA, add(CFA_XSP16, literal(-10)))
          CFI (cfiCond106) V11 load(1, XDATA, add(CFA_XSP16, literal(-9)))
          CFI (cfiCond106) V12 load(1, XDATA, add(CFA_XSP16, literal(-8)))
          CFI (cfiCond106) V13 load(1, XDATA, add(CFA_XSP16, literal(-7)))
          CFI (cfiCond106) R7 load(1, XDATA, add(CFA_XSP16, literal(-6)))
          CFI (cfiCond106) ?RET_LOW load(1, XDATA, add(CFA_XSP16, literal(-5)))
          CFI (cfiCond106) ?RET_HIGH load(1, XDATA, add(CFA_XSP16, literal(-4)))
          CFI (cfiCond106) ?BRET_EXT load(1, XDATA, add(CFA_XSP16, literal(-3)))
          CFI (cfiCond106) DPL0 load(1, XDATA, add(CFA_XSP16, literal(-2)))
          CFI (cfiCond106) DPH0 load(1, XDATA, add(CFA_XSP16, literal(-1)))
          CFI (cfiCond106) CFA_SP SP+-6
          CFI (cfiCond106) CFA_XSP16 add(XSP16, 39)
          CFI Block cfiCond107 Using cfiCommon0
          CFI (cfiCond107) Function zclController_ProcessInWriteRspCmd
          CFI (cfiCond107) Conditional ??CrossCallReturnLabel_120, ??CrossCallReturnLabel_118, ??CrossCallReturnLabel_116
          CFI (cfiCond107) R6 load(1, XDATA, add(CFA_XSP16, literal(-22)))
          CFI (cfiCond107) VB load(1, XDATA, add(CFA_XSP16, literal(-21)))
          CFI (cfiCond107) V0 load(1, XDATA, add(CFA_XSP16, literal(-20)))
          CFI (cfiCond107) V1 load(1, XDATA, add(CFA_XSP16, literal(-19)))
          CFI (cfiCond107) V2 load(1, XDATA, add(CFA_XSP16, literal(-18)))
          CFI (cfiCond107) V3 load(1, XDATA, add(CFA_XSP16, literal(-17)))
          CFI (cfiCond107) V4 load(1, XDATA, add(CFA_XSP16, literal(-16)))
          CFI (cfiCond107) V5 load(1, XDATA, add(CFA_XSP16, literal(-15)))
          CFI (cfiCond107) V6 load(1, XDATA, add(CFA_XSP16, literal(-14)))
          CFI (cfiCond107) V7 load(1, XDATA, add(CFA_XSP16, literal(-13)))
          CFI (cfiCond107) V8 load(1, XDATA, add(CFA_XSP16, literal(-12)))
          CFI (cfiCond107) V9 load(1, XDATA, add(CFA_XSP16, literal(-11)))
          CFI (cfiCond107) V10 load(1, XDATA, add(CFA_XSP16, literal(-10)))
          CFI (cfiCond107) V11 load(1, XDATA, add(CFA_XSP16, literal(-9)))
          CFI (cfiCond107) V12 load(1, XDATA, add(CFA_XSP16, literal(-8)))
          CFI (cfiCond107) V13 load(1, XDATA, add(CFA_XSP16, literal(-7)))
          CFI (cfiCond107) R7 load(1, XDATA, add(CFA_XSP16, literal(-6)))
          CFI (cfiCond107) ?RET_LOW load(1, XDATA, add(CFA_XSP16, literal(-5)))
          CFI (cfiCond107) ?RET_HIGH load(1, XDATA, add(CFA_XSP16, literal(-4)))
          CFI (cfiCond107) ?BRET_EXT load(1, XDATA, add(CFA_XSP16, literal(-3)))
          CFI (cfiCond107) DPL0 load(1, XDATA, add(CFA_XSP16, literal(-2)))
          CFI (cfiCond107) DPH0 load(1, XDATA, add(CFA_XSP16, literal(-1)))
          CFI (cfiCond107) CFA_SP SP+-6
          CFI (cfiCond107) CFA_XSP16 add(XSP16, 39)
          CFI Block cfiCond108 Using cfiCommon0
          CFI (cfiCond108) Function zclController_ProcessInReportCmd
          CFI (cfiCond108) Conditional ??CrossCallReturnLabel_120, ??CrossCallReturnLabel_118, ??CrossCallReturnLabel_117
          CFI (cfiCond108) R6 load(1, XDATA, add(CFA_XSP16, literal(-18)))
          CFI (cfiCond108) VB load(1, XDATA, add(CFA_XSP16, literal(-17)))
          CFI (cfiCond108) V0 load(1, XDATA, add(CFA_XSP16, literal(-16)))
          CFI (cfiCond108) V1 load(1, XDATA, add(CFA_XSP16, literal(-15)))
          CFI (cfiCond108) V2 load(1, XDATA, add(CFA_XSP16, literal(-14)))
          CFI (cfiCond108) V3 load(1, XDATA, add(CFA_XSP16, literal(-13)))
          CFI (cfiCond108) V4 load(1, XDATA, add(CFA_XSP16, literal(-12)))
          CFI (cfiCond108) V5 load(1, XDATA, add(CFA_XSP16, literal(-11)))
          CFI (cfiCond108) V6 load(1, XDATA, add(CFA_XSP16, literal(-10)))
          CFI (cfiCond108) V7 load(1, XDATA, add(CFA_XSP16, literal(-9)))
          CFI (cfiCond108) V8 load(1, XDATA, add(CFA_XSP16, literal(-8)))
          CFI (cfiCond108) V9 load(1, XDATA, add(CFA_XSP16, literal(-7)))
          CFI (cfiCond108) R7 load(1, XDATA, add(CFA_XSP16, literal(-6)))
          CFI (cfiCond108) ?RET_LOW load(1, XDATA, add(CFA_XSP16, literal(-5)))
          CFI (cfiCond108) ?RET_HIGH load(1, XDATA, add(CFA_XSP16, literal(-4)))
          CFI (cfiCond108) ?BRET_EXT load(1, XDATA, add(CFA_XSP16, literal(-3)))
          CFI (cfiCond108) DPL0 load(1, XDATA, add(CFA_XSP16, literal(-2)))
          CFI (cfiCond108) DPH0 load(1, XDATA, add(CFA_XSP16, literal(-1)))
          CFI (cfiCond108) CFA_SP SP+-6
          CFI (cfiCond108) CFA_XSP16 add(XSP16, 35)
          CFI Block cfiCond109 Using cfiCommon0
          CFI (cfiCond109) Function zclController_ProcessInWriteRspCmd
          CFI (cfiCond109) Conditional ??CrossCallReturnLabel_120, ??CrossCallReturnLabel_119, ??CrossCallReturnLabel_8
          CFI (cfiCond109) R6 load(1, XDATA, add(CFA_XSP16, literal(-22)))
          CFI (cfiCond109) VB load(1, XDATA, add(CFA_XSP16, literal(-21)))
          CFI (cfiCond109) V0 load(1, XDATA, add(CFA_XSP16, literal(-20)))
          CFI (cfiCond109) V1 load(1, XDATA, add(CFA_XSP16, literal(-19)))
          CFI (cfiCond109) V2 load(1, XDATA, add(CFA_XSP16, literal(-18)))
          CFI (cfiCond109) V3 load(1, XDATA, add(CFA_XSP16, literal(-17)))
          CFI (cfiCond109) V4 load(1, XDATA, add(CFA_XSP16, literal(-16)))
          CFI (cfiCond109) V5 load(1, XDATA, add(CFA_XSP16, literal(-15)))
          CFI (cfiCond109) V6 load(1, XDATA, add(CFA_XSP16, literal(-14)))
          CFI (cfiCond109) V7 load(1, XDATA, add(CFA_XSP16, literal(-13)))
          CFI (cfiCond109) V8 load(1, XDATA, add(CFA_XSP16, literal(-12)))
          CFI (cfiCond109) V9 load(1, XDATA, add(CFA_XSP16, literal(-11)))
          CFI (cfiCond109) V10 load(1, XDATA, add(CFA_XSP16, literal(-10)))
          CFI (cfiCond109) V11 load(1, XDATA, add(CFA_XSP16, literal(-9)))
          CFI (cfiCond109) V12 load(1, XDATA, add(CFA_XSP16, literal(-8)))
          CFI (cfiCond109) V13 load(1, XDATA, add(CFA_XSP16, literal(-7)))
          CFI (cfiCond109) R7 load(1, XDATA, add(CFA_XSP16, literal(-6)))
          CFI (cfiCond109) ?RET_LOW load(1, XDATA, add(CFA_XSP16, literal(-5)))
          CFI (cfiCond109) ?RET_HIGH load(1, XDATA, add(CFA_XSP16, literal(-4)))
          CFI (cfiCond109) ?BRET_EXT load(1, XDATA, add(CFA_XSP16, literal(-3)))
          CFI (cfiCond109) DPL0 load(1, XDATA, add(CFA_XSP16, literal(-2)))
          CFI (cfiCond109) DPH0 load(1, XDATA, add(CFA_XSP16, literal(-1)))
          CFI (cfiCond109) CFA_SP SP+-6
          CFI (cfiCond109) CFA_XSP16 add(XSP16, 39)
          CFI Block cfiCond110 Using cfiCommon0
          CFI (cfiCond110) Function zclController_ProcessInWriteRspCmd
          CFI (cfiCond110) Conditional ??CrossCallReturnLabel_120, ??CrossCallReturnLabel_119, ??CrossCallReturnLabel_9
          CFI (cfiCond110) R6 load(1, XDATA, add(CFA_XSP16, literal(-22)))
          CFI (cfiCond110) VB load(1, XDATA, add(CFA_XSP16, literal(-21)))
          CFI (cfiCond110) V0 load(1, XDATA, add(CFA_XSP16, literal(-20)))
          CFI (cfiCond110) V1 load(1, XDATA, add(CFA_XSP16, literal(-19)))
          CFI (cfiCond110) V2 load(1, XDATA, add(CFA_XSP16, literal(-18)))
          CFI (cfiCond110) V3 load(1, XDATA, add(CFA_XSP16, literal(-17)))
          CFI (cfiCond110) V4 load(1, XDATA, add(CFA_XSP16, literal(-16)))
          CFI (cfiCond110) V5 load(1, XDATA, add(CFA_XSP16, literal(-15)))
          CFI (cfiCond110) V6 load(1, XDATA, add(CFA_XSP16, literal(-14)))
          CFI (cfiCond110) V7 load(1, XDATA, add(CFA_XSP16, literal(-13)))
          CFI (cfiCond110) V8 load(1, XDATA, add(CFA_XSP16, literal(-12)))
          CFI (cfiCond110) V9 load(1, XDATA, add(CFA_XSP16, literal(-11)))
          CFI (cfiCond110) V10 load(1, XDATA, add(CFA_XSP16, literal(-10)))
          CFI (cfiCond110) V11 load(1, XDATA, add(CFA_XSP16, literal(-9)))
          CFI (cfiCond110) V12 load(1, XDATA, add(CFA_XSP16, literal(-8)))
          CFI (cfiCond110) V13 load(1, XDATA, add(CFA_XSP16, literal(-7)))
          CFI (cfiCond110) R7 load(1, XDATA, add(CFA_XSP16, literal(-6)))
          CFI (cfiCond110) ?RET_LOW load(1, XDATA, add(CFA_XSP16, literal(-5)))
          CFI (cfiCond110) ?RET_HIGH load(1, XDATA, add(CFA_XSP16, literal(-4)))
          CFI (cfiCond110) ?BRET_EXT load(1, XDATA, add(CFA_XSP16, literal(-3)))
          CFI (cfiCond110) DPL0 load(1, XDATA, add(CFA_XSP16, literal(-2)))
          CFI (cfiCond110) DPH0 load(1, XDATA, add(CFA_XSP16, literal(-1)))
          CFI (cfiCond110) CFA_SP SP+-6
          CFI (cfiCond110) CFA_XSP16 add(XSP16, 39)
          CFI Block cfiCond111 Using cfiCommon0
          CFI (cfiCond111) Function zclController_ProcessInReadRspCmd
          CFI (cfiCond111) Conditional ??CrossCallReturnLabel_121, ??CrossCallReturnLabel_72, ??CrossCallReturnLabel_6
          CFI (cfiCond111) R6 load(1, XDATA, add(CFA_XSP16, literal(-22)))
          CFI (cfiCond111) VB load(1, XDATA, add(CFA_XSP16, literal(-21)))
          CFI (cfiCond111) V0 load(1, XDATA, add(CFA_XSP16, literal(-20)))
          CFI (cfiCond111) V1 load(1, XDATA, add(CFA_XSP16, literal(-19)))
          CFI (cfiCond111) V2 load(1, XDATA, add(CFA_XSP16, literal(-18)))
          CFI (cfiCond111) V3 load(1, XDATA, add(CFA_XSP16, literal(-17)))
          CFI (cfiCond111) V4 load(1, XDATA, add(CFA_XSP16, literal(-16)))
          CFI (cfiCond111) V5 load(1, XDATA, add(CFA_XSP16, literal(-15)))
          CFI (cfiCond111) V6 load(1, XDATA, add(CFA_XSP16, literal(-14)))
          CFI (cfiCond111) V7 load(1, XDATA, add(CFA_XSP16, literal(-13)))
          CFI (cfiCond111) V8 load(1, XDATA, add(CFA_XSP16, literal(-12)))
          CFI (cfiCond111) V9 load(1, XDATA, add(CFA_XSP16, literal(-11)))
          CFI (cfiCond111) V10 load(1, XDATA, add(CFA_XSP16, literal(-10)))
          CFI (cfiCond111) V11 load(1, XDATA, add(CFA_XSP16, literal(-9)))
          CFI (cfiCond111) V12 load(1, XDATA, add(CFA_XSP16, literal(-8)))
          CFI (cfiCond111) V13 load(1, XDATA, add(CFA_XSP16, literal(-7)))
          CFI (cfiCond111) R7 load(1, XDATA, add(CFA_XSP16, literal(-6)))
          CFI (cfiCond111) ?RET_LOW load(1, XDATA, add(CFA_XSP16, literal(-5)))
          CFI (cfiCond111) ?RET_HIGH load(1, XDATA, add(CFA_XSP16, literal(-4)))
          CFI (cfiCond111) ?BRET_EXT load(1, XDATA, add(CFA_XSP16, literal(-3)))
          CFI (cfiCond111) DPL0 load(1, XDATA, add(CFA_XSP16, literal(-2)))
          CFI (cfiCond111) DPH0 load(1, XDATA, add(CFA_XSP16, literal(-1)))
          CFI (cfiCond111) CFA_SP SP+-6
          CFI (cfiCond111) CFA_XSP16 add(XSP16, 39)
          CFI Block cfiCond112 Using cfiCommon0
          CFI (cfiCond112) Function zclController_ProcessInReportCmd
          CFI (cfiCond112) Conditional ??CrossCallReturnLabel_121, ??CrossCallReturnLabel_72, ??CrossCallReturnLabel_7
          CFI (cfiCond112) R6 load(1, XDATA, add(CFA_XSP16, literal(-18)))
          CFI (cfiCond112) VB load(1, XDATA, add(CFA_XSP16, literal(-17)))
          CFI (cfiCond112) V0 load(1, XDATA, add(CFA_XSP16, literal(-16)))
          CFI (cfiCond112) V1 load(1, XDATA, add(CFA_XSP16, literal(-15)))
          CFI (cfiCond112) V2 load(1, XDATA, add(CFA_XSP16, literal(-14)))
          CFI (cfiCond112) V3 load(1, XDATA, add(CFA_XSP16, literal(-13)))
          CFI (cfiCond112) V4 load(1, XDATA, add(CFA_XSP16, literal(-12)))
          CFI (cfiCond112) V5 load(1, XDATA, add(CFA_XSP16, literal(-11)))
          CFI (cfiCond112) V6 load(1, XDATA, add(CFA_XSP16, literal(-10)))
          CFI (cfiCond112) V7 load(1, XDATA, add(CFA_XSP16, literal(-9)))
          CFI (cfiCond112) V8 load(1, XDATA, add(CFA_XSP16, literal(-8)))
          CFI (cfiCond112) V9 load(1, XDATA, add(CFA_XSP16, literal(-7)))
          CFI (cfiCond112) R7 load(1, XDATA, add(CFA_XSP16, literal(-6)))
          CFI (cfiCond112) ?RET_LOW load(1, XDATA, add(CFA_XSP16, literal(-5)))
          CFI (cfiCond112) ?RET_HIGH load(1, XDATA, add(CFA_XSP16, literal(-4)))
          CFI (cfiCond112) ?BRET_EXT load(1, XDATA, add(CFA_XSP16, literal(-3)))
          CFI (cfiCond112) DPL0 load(1, XDATA, add(CFA_XSP16, literal(-2)))
          CFI (cfiCond112) DPH0 load(1, XDATA, add(CFA_XSP16, literal(-1)))
          CFI (cfiCond112) CFA_SP SP+-6
          CFI (cfiCond112) CFA_XSP16 add(XSP16, 35)
          CFI Block cfiCond113 Using cfiCommon0
          CFI (cfiCond113) Function zclController_ProcessInReadRspCmd
          CFI (cfiCond113) Conditional ??CrossCallReturnLabel_121, ??CrossCallReturnLabel_73, ??CrossCallReturnLabel_2
          CFI (cfiCond113) R6 load(1, XDATA, add(CFA_XSP16, literal(-22)))
          CFI (cfiCond113) VB load(1, XDATA, add(CFA_XSP16, literal(-21)))
          CFI (cfiCond113) V0 load(1, XDATA, add(CFA_XSP16, literal(-20)))
          CFI (cfiCond113) V1 load(1, XDATA, add(CFA_XSP16, literal(-19)))
          CFI (cfiCond113) V2 load(1, XDATA, add(CFA_XSP16, literal(-18)))
          CFI (cfiCond113) V3 load(1, XDATA, add(CFA_XSP16, literal(-17)))
          CFI (cfiCond113) V4 load(1, XDATA, add(CFA_XSP16, literal(-16)))
          CFI (cfiCond113) V5 load(1, XDATA, add(CFA_XSP16, literal(-15)))
          CFI (cfiCond113) V6 load(1, XDATA, add(CFA_XSP16, literal(-14)))
          CFI (cfiCond113) V7 load(1, XDATA, add(CFA_XSP16, literal(-13)))
          CFI (cfiCond113) V8 load(1, XDATA, add(CFA_XSP16, literal(-12)))
          CFI (cfiCond113) V9 load(1, XDATA, add(CFA_XSP16, literal(-11)))
          CFI (cfiCond113) V10 load(1, XDATA, add(CFA_XSP16, literal(-10)))
          CFI (cfiCond113) V11 load(1, XDATA, add(CFA_XSP16, literal(-9)))
          CFI (cfiCond113) V12 load(1, XDATA, add(CFA_XSP16, literal(-8)))
          CFI (cfiCond113) V13 load(1, XDATA, add(CFA_XSP16, literal(-7)))
          CFI (cfiCond113) R7 load(1, XDATA, add(CFA_XSP16, literal(-6)))
          CFI (cfiCond113) ?RET_LOW load(1, XDATA, add(CFA_XSP16, literal(-5)))
          CFI (cfiCond113) ?RET_HIGH load(1, XDATA, add(CFA_XSP16, literal(-4)))
          CFI (cfiCond113) ?BRET_EXT load(1, XDATA, add(CFA_XSP16, literal(-3)))
          CFI (cfiCond113) DPL0 load(1, XDATA, add(CFA_XSP16, literal(-2)))
          CFI (cfiCond113) DPH0 load(1, XDATA, add(CFA_XSP16, literal(-1)))
          CFI (cfiCond113) CFA_SP SP+-6
          CFI (cfiCond113) CFA_XSP16 add(XSP16, 39)
          CFI Block cfiCond114 Using cfiCommon0
          CFI (cfiCond114) Function zclController_ProcessInReportCmd
          CFI (cfiCond114) Conditional ??CrossCallReturnLabel_121, ??CrossCallReturnLabel_73, ??CrossCallReturnLabel_3
          CFI (cfiCond114) R6 load(1, XDATA, add(CFA_XSP16, literal(-18)))
          CFI (cfiCond114) VB load(1, XDATA, add(CFA_XSP16, literal(-17)))
          CFI (cfiCond114) V0 load(1, XDATA, add(CFA_XSP16, literal(-16)))
          CFI (cfiCond114) V1 load(1, XDATA, add(CFA_XSP16, literal(-15)))
          CFI (cfiCond114) V2 load(1, XDATA, add(CFA_XSP16, literal(-14)))
          CFI (cfiCond114) V3 load(1, XDATA, add(CFA_XSP16, literal(-13)))
          CFI (cfiCond114) V4 load(1, XDATA, add(CFA_XSP16, literal(-12)))
          CFI (cfiCond114) V5 load(1, XDATA, add(CFA_XSP16, literal(-11)))
          CFI (cfiCond114) V6 load(1, XDATA, add(CFA_XSP16, literal(-10)))
          CFI (cfiCond114) V7 load(1, XDATA, add(CFA_XSP16, literal(-9)))
          CFI (cfiCond114) V8 load(1, XDATA, add(CFA_XSP16, literal(-8)))
          CFI (cfiCond114) V9 load(1, XDATA, add(CFA_XSP16, literal(-7)))
          CFI (cfiCond114) R7 load(1, XDATA, add(CFA_XSP16, literal(-6)))
          CFI (cfiCond114) ?RET_LOW load(1, XDATA, add(CFA_XSP16, literal(-5)))
          CFI (cfiCond114) ?RET_HIGH load(1, XDATA, add(CFA_XSP16, literal(-4)))
          CFI (cfiCond114) ?BRET_EXT load(1, XDATA, add(CFA_XSP16, literal(-3)))
          CFI (cfiCond114) DPL0 load(1, XDATA, add(CFA_XSP16, literal(-2)))
          CFI (cfiCond114) DPH0 load(1, XDATA, add(CFA_XSP16, literal(-1)))
          CFI (cfiCond114) CFA_SP SP+-6
          CFI (cfiCond114) CFA_XSP16 add(XSP16, 35)
          CFI Block cfiPicker115 Using cfiCommon1
          CFI (cfiPicker115) NoFunction
          CFI (cfiPicker115) Picker
        LCALL     ?Subroutine54 & 0xFFFF
??CrossCallReturnLabel_125:
        LCALL     `??AT_Int16toChar::?relay`; Banked call to: AT_Int16toChar
        ; Setup parameters for call to function AT_Uart0_Send
        ; Setup parameters for call to function AT_Uart0_Send
        ; Setup parameters for call to function AT_Uart0_Send
        ; Setup parameters for call to function AT_Uart0_Send
        ; Setup parameters for call to function AT_Uart0_Send
        ; Setup parameters for call to function AT_Uart0_Send
        ; Setup parameters for call to function AT_Uart0_Send
        ; Setup parameters for call to function AT_Uart0_Send
        ; Setup parameters for call to function AT_Uart0_Send
        ; Setup parameters for call to function AT_Uart0_Send
        ; Setup parameters for call to function AT_Uart0_Send
        MOV       R4,#0x4
        RET
          CFI EndBlock cfiCond104
          CFI EndBlock cfiCond105
          CFI EndBlock cfiCond106
          CFI EndBlock cfiCond107
          CFI EndBlock cfiCond108
          CFI EndBlock cfiCond109
          CFI EndBlock cfiCond110
          CFI EndBlock cfiCond111
          CFI EndBlock cfiCond112
          CFI EndBlock cfiCond113
          CFI EndBlock cfiCond114
          CFI EndBlock cfiPicker115

        RSEG BANKED_CODE:HUGECODE:NOROOT(0)
?Subroutine54:
          CFI Block cfiCond116 Using cfiCommon0
          CFI Function AT_Endpoint_Register
          CFI Conditional ??CrossCallReturnLabel_122
          CFI R6 load(1, XDATA, add(CFA_XSP16, literal(-14)))
          CFI VB load(1, XDATA, add(CFA_XSP16, literal(-13)))
          CFI V0 load(1, XDATA, add(CFA_XSP16, literal(-12)))
          CFI V1 load(1, XDATA, add(CFA_XSP16, literal(-11)))
          CFI V2 load(1, XDATA, add(CFA_XSP16, literal(-10)))
          CFI V3 load(1, XDATA, add(CFA_XSP16, literal(-9)))
          CFI V4 load(1, XDATA, add(CFA_XSP16, literal(-8)))
          CFI V5 load(1, XDATA, add(CFA_XSP16, literal(-7)))
          CFI R7 load(1, XDATA, add(CFA_XSP16, literal(-6)))
          CFI ?RET_LOW load(1, XDATA, add(CFA_XSP16, literal(-5)))
          CFI ?RET_HIGH load(1, XDATA, add(CFA_XSP16, literal(-4)))
          CFI ?BRET_EXT load(1, XDATA, add(CFA_XSP16, literal(-3)))
          CFI DPL0 load(1, XDATA, add(CFA_XSP16, literal(-2)))
          CFI DPH0 load(1, XDATA, add(CFA_XSP16, literal(-1)))
          CFI CFA_SP SP+-2
          CFI CFA_XSP16 add(XSP16, 14)
          CFI Block cfiCond117 Using cfiCommon0
          CFI (cfiCond117) Function AT_zclController_ProcessIncomingMsg
          CFI (cfiCond117) Conditional ??CrossCallReturnLabel_123
          CFI (cfiCond117) R6 load(1, XDATA, add(CFA_XSP16, literal(-20)))
          CFI (cfiCond117) VB load(1, XDATA, add(CFA_XSP16, literal(-19)))
          CFI (cfiCond117) V0 load(1, XDATA, add(CFA_XSP16, literal(-18)))
          CFI (cfiCond117) V1 load(1, XDATA, add(CFA_XSP16, literal(-17)))
          CFI (cfiCond117) V2 load(1, XDATA, add(CFA_XSP16, literal(-16)))
          CFI (cfiCond117) V3 load(1, XDATA, add(CFA_XSP16, literal(-15)))
          CFI (cfiCond117) V4 load(1, XDATA, add(CFA_XSP16, literal(-14)))
          CFI (cfiCond117) V5 load(1, XDATA, add(CFA_XSP16, literal(-13)))
          CFI (cfiCond117) V6 load(1, XDATA, add(CFA_XSP16, literal(-12)))
          CFI (cfiCond117) V7 load(1, XDATA, add(CFA_XSP16, literal(-11)))
          CFI (cfiCond117) V8 load(1, XDATA, add(CFA_XSP16, literal(-10)))
          CFI (cfiCond117) V9 load(1, XDATA, add(CFA_XSP16, literal(-9)))
          CFI (cfiCond117) V10 load(1, XDATA, add(CFA_XSP16, literal(-8)))
          CFI (cfiCond117) V11 load(1, XDATA, add(CFA_XSP16, literal(-7)))
          CFI (cfiCond117) R7 load(1, XDATA, add(CFA_XSP16, literal(-6)))
          CFI (cfiCond117) ?RET_LOW load(1, XDATA, add(CFA_XSP16, literal(-5)))
          CFI (cfiCond117) ?RET_HIGH load(1, XDATA, add(CFA_XSP16, literal(-4)))
          CFI (cfiCond117) ?BRET_EXT load(1, XDATA, add(CFA_XSP16, literal(-3)))
          CFI (cfiCond117) DPL0 load(1, XDATA, add(CFA_XSP16, literal(-2)))
          CFI (cfiCond117) DPH0 load(1, XDATA, add(CFA_XSP16, literal(-1)))
          CFI (cfiCond117) CFA_SP SP+-2
          CFI (cfiCond117) CFA_XSP16 add(XSP16, 20)
          CFI Block cfiCond118 Using cfiCommon0
          CFI (cfiCond118) Function zclController_ProcessInReadRspCmd
          CFI (cfiCond118) Conditional ??CrossCallReturnLabel_125, ??CrossCallReturnLabel_120, ??CrossCallReturnLabel_118, ??CrossCallReturnLabel_113
          CFI (cfiCond118) R6 load(1, XDATA, add(CFA_XSP16, literal(-22)))
          CFI (cfiCond118) VB load(1, XDATA, add(CFA_XSP16, literal(-21)))
          CFI (cfiCond118) V0 load(1, XDATA, add(CFA_XSP16, literal(-20)))
          CFI (cfiCond118) V1 load(1, XDATA, add(CFA_XSP16, literal(-19)))
          CFI (cfiCond118) V2 load(1, XDATA, add(CFA_XSP16, literal(-18)))
          CFI (cfiCond118) V3 load(1, XDATA, add(CFA_XSP16, literal(-17)))
          CFI (cfiCond118) V4 load(1, XDATA, add(CFA_XSP16, literal(-16)))
          CFI (cfiCond118) V5 load(1, XDATA, add(CFA_XSP16, literal(-15)))
          CFI (cfiCond118) V6 load(1, XDATA, add(CFA_XSP16, literal(-14)))
          CFI (cfiCond118) V7 load(1, XDATA, add(CFA_XSP16, literal(-13)))
          CFI (cfiCond118) V8 load(1, XDATA, add(CFA_XSP16, literal(-12)))
          CFI (cfiCond118) V9 load(1, XDATA, add(CFA_XSP16, literal(-11)))
          CFI (cfiCond118) V10 load(1, XDATA, add(CFA_XSP16, literal(-10)))
          CFI (cfiCond118) V11 load(1, XDATA, add(CFA_XSP16, literal(-9)))
          CFI (cfiCond118) V12 load(1, XDATA, add(CFA_XSP16, literal(-8)))
          CFI (cfiCond118) V13 load(1, XDATA, add(CFA_XSP16, literal(-7)))
          CFI (cfiCond118) R7 load(1, XDATA, add(CFA_XSP16, literal(-6)))
          CFI (cfiCond118) ?RET_LOW load(1, XDATA, add(CFA_XSP16, literal(-5)))
          CFI (cfiCond118) ?RET_HIGH load(1, XDATA, add(CFA_XSP16, literal(-4)))
          CFI (cfiCond118) ?BRET_EXT load(1, XDATA, add(CFA_XSP16, literal(-3)))
          CFI (cfiCond118) DPL0 load(1, XDATA, add(CFA_XSP16, literal(-2)))
          CFI (cfiCond118) DPH0 load(1, XDATA, add(CFA_XSP16, literal(-1)))
          CFI (cfiCond118) CFA_SP SP+-8
          CFI (cfiCond118) CFA_XSP16 add(XSP16, 39)
          CFI Block cfiCond119 Using cfiCommon0
          CFI (cfiCond119) Function zclController_ProcessInReportCmd
          CFI (cfiCond119) Conditional ??CrossCallReturnLabel_125, ??CrossCallReturnLabel_120, ??CrossCallReturnLabel_118, ??CrossCallReturnLabel_114
          CFI (cfiCond119) R6 load(1, XDATA, add(CFA_XSP16, literal(-18)))
          CFI (cfiCond119) VB load(1, XDATA, add(CFA_XSP16, literal(-17)))
          CFI (cfiCond119) V0 load(1, XDATA, add(CFA_XSP16, literal(-16)))
          CFI (cfiCond119) V1 load(1, XDATA, add(CFA_XSP16, literal(-15)))
          CFI (cfiCond119) V2 load(1, XDATA, add(CFA_XSP16, literal(-14)))
          CFI (cfiCond119) V3 load(1, XDATA, add(CFA_XSP16, literal(-13)))
          CFI (cfiCond119) V4 load(1, XDATA, add(CFA_XSP16, literal(-12)))
          CFI (cfiCond119) V5 load(1, XDATA, add(CFA_XSP16, literal(-11)))
          CFI (cfiCond119) V6 load(1, XDATA, add(CFA_XSP16, literal(-10)))
          CFI (cfiCond119) V7 load(1, XDATA, add(CFA_XSP16, literal(-9)))
          CFI (cfiCond119) V8 load(1, XDATA, add(CFA_XSP16, literal(-8)))
          CFI (cfiCond119) V9 load(1, XDATA, add(CFA_XSP16, literal(-7)))
          CFI (cfiCond119) R7 load(1, XDATA, add(CFA_XSP16, literal(-6)))
          CFI (cfiCond119) ?RET_LOW load(1, XDATA, add(CFA_XSP16, literal(-5)))
          CFI (cfiCond119) ?RET_HIGH load(1, XDATA, add(CFA_XSP16, literal(-4)))
          CFI (cfiCond119) ?BRET_EXT load(1, XDATA, add(CFA_XSP16, literal(-3)))
          CFI (cfiCond119) DPL0 load(1, XDATA, add(CFA_XSP16, literal(-2)))
          CFI (cfiCond119) DPH0 load(1, XDATA, add(CFA_XSP16, literal(-1)))
          CFI (cfiCond119) CFA_SP SP+-8
          CFI (cfiCond119) CFA_XSP16 add(XSP16, 35)
          CFI Block cfiCond120 Using cfiCommon0
          CFI (cfiCond120) Function zclController_ProcessInReadRspCmd
          CFI (cfiCond120) Conditional ??CrossCallReturnLabel_125, ??CrossCallReturnLabel_120, ??CrossCallReturnLabel_118, ??CrossCallReturnLabel_115
          CFI (cfiCond120) R6 load(1, XDATA, add(CFA_XSP16, literal(-22)))
          CFI (cfiCond120) VB load(1, XDATA, add(CFA_XSP16, literal(-21)))
          CFI (cfiCond120) V0 load(1, XDATA, add(CFA_XSP16, literal(-20)))
          CFI (cfiCond120) V1 load(1, XDATA, add(CFA_XSP16, literal(-19)))
          CFI (cfiCond120) V2 load(1, XDATA, add(CFA_XSP16, literal(-18)))
          CFI (cfiCond120) V3 load(1, XDATA, add(CFA_XSP16, literal(-17)))
          CFI (cfiCond120) V4 load(1, XDATA, add(CFA_XSP16, literal(-16)))
          CFI (cfiCond120) V5 load(1, XDATA, add(CFA_XSP16, literal(-15)))
          CFI (cfiCond120) V6 load(1, XDATA, add(CFA_XSP16, literal(-14)))
          CFI (cfiCond120) V7 load(1, XDATA, add(CFA_XSP16, literal(-13)))
          CFI (cfiCond120) V8 load(1, XDATA, add(CFA_XSP16, literal(-12)))
          CFI (cfiCond120) V9 load(1, XDATA, add(CFA_XSP16, literal(-11)))
          CFI (cfiCond120) V10 load(1, XDATA, add(CFA_XSP16, literal(-10)))
          CFI (cfiCond120) V11 load(1, XDATA, add(CFA_XSP16, literal(-9)))
          CFI (cfiCond120) V12 load(1, XDATA, add(CFA_XSP16, literal(-8)))
          CFI (cfiCond120) V13 load(1, XDATA, add(CFA_XSP16, literal(-7)))
          CFI (cfiCond120) R7 load(1, XDATA, add(CFA_XSP16, literal(-6)))
          CFI (cfiCond120) ?RET_LOW load(1, XDATA, add(CFA_XSP16, literal(-5)))
          CFI (cfiCond120) ?RET_HIGH load(1, XDATA, add(CFA_XSP16, literal(-4)))
          CFI (cfiCond120) ?BRET_EXT load(1, XDATA, add(CFA_XSP16, literal(-3)))
          CFI (cfiCond120) DPL0 load(1, XDATA, add(CFA_XSP16, literal(-2)))
          CFI (cfiCond120) DPH0 load(1, XDATA, add(CFA_XSP16, literal(-1)))
          CFI (cfiCond120) CFA_SP SP+-8
          CFI (cfiCond120) CFA_XSP16 add(XSP16, 39)
          CFI Block cfiCond121 Using cfiCommon0
          CFI (cfiCond121) Function zclController_ProcessInWriteRspCmd
          CFI (cfiCond121) Conditional ??CrossCallReturnLabel_125, ??CrossCallReturnLabel_120, ??CrossCallReturnLabel_118, ??CrossCallReturnLabel_116
          CFI (cfiCond121) R6 load(1, XDATA, add(CFA_XSP16, literal(-22)))
          CFI (cfiCond121) VB load(1, XDATA, add(CFA_XSP16, literal(-21)))
          CFI (cfiCond121) V0 load(1, XDATA, add(CFA_XSP16, literal(-20)))
          CFI (cfiCond121) V1 load(1, XDATA, add(CFA_XSP16, literal(-19)))
          CFI (cfiCond121) V2 load(1, XDATA, add(CFA_XSP16, literal(-18)))
          CFI (cfiCond121) V3 load(1, XDATA, add(CFA_XSP16, literal(-17)))
          CFI (cfiCond121) V4 load(1, XDATA, add(CFA_XSP16, literal(-16)))
          CFI (cfiCond121) V5 load(1, XDATA, add(CFA_XSP16, literal(-15)))
          CFI (cfiCond121) V6 load(1, XDATA, add(CFA_XSP16, literal(-14)))
          CFI (cfiCond121) V7 load(1, XDATA, add(CFA_XSP16, literal(-13)))
          CFI (cfiCond121) V8 load(1, XDATA, add(CFA_XSP16, literal(-12)))
          CFI (cfiCond121) V9 load(1, XDATA, add(CFA_XSP16, literal(-11)))
          CFI (cfiCond121) V10 load(1, XDATA, add(CFA_XSP16, literal(-10)))
          CFI (cfiCond121) V11 load(1, XDATA, add(CFA_XSP16, literal(-9)))
          CFI (cfiCond121) V12 load(1, XDATA, add(CFA_XSP16, literal(-8)))
          CFI (cfiCond121) V13 load(1, XDATA, add(CFA_XSP16, literal(-7)))
          CFI (cfiCond121) R7 load(1, XDATA, add(CFA_XSP16, literal(-6)))
          CFI (cfiCond121) ?RET_LOW load(1, XDATA, add(CFA_XSP16, literal(-5)))
          CFI (cfiCond121) ?RET_HIGH load(1, XDATA, add(CFA_XSP16, literal(-4)))
          CFI (cfiCond121) ?BRET_EXT load(1, XDATA, add(CFA_XSP16, literal(-3)))
          CFI (cfiCond121) DPL0 load(1, XDATA, add(CFA_XSP16, literal(-2)))
          CFI (cfiCond121) DPH0 load(1, XDATA, add(CFA_XSP16, literal(-1)))
          CFI (cfiCond121) CFA_SP SP+-8
          CFI (cfiCond121) CFA_XSP16 add(XSP16, 39)
          CFI Block cfiCond122 Using cfiCommon0
          CFI (cfiCond122) Function zclController_ProcessInReportCmd
          CFI (cfiCond122) Conditional ??CrossCallReturnLabel_125, ??CrossCallReturnLabel_120, ??CrossCallReturnLabel_118, ??CrossCallReturnLabel_117
          CFI (cfiCond122) R6 load(1, XDATA, add(CFA_XSP16, literal(-18)))
          CFI (cfiCond122) VB load(1, XDATA, add(CFA_XSP16, literal(-17)))
          CFI (cfiCond122) V0 load(1, XDATA, add(CFA_XSP16, literal(-16)))
          CFI (cfiCond122) V1 load(1, XDATA, add(CFA_XSP16, literal(-15)))
          CFI (cfiCond122) V2 load(1, XDATA, add(CFA_XSP16, literal(-14)))
          CFI (cfiCond122) V3 load(1, XDATA, add(CFA_XSP16, literal(-13)))
          CFI (cfiCond122) V4 load(1, XDATA, add(CFA_XSP16, literal(-12)))
          CFI (cfiCond122) V5 load(1, XDATA, add(CFA_XSP16, literal(-11)))
          CFI (cfiCond122) V6 load(1, XDATA, add(CFA_XSP16, literal(-10)))
          CFI (cfiCond122) V7 load(1, XDATA, add(CFA_XSP16, literal(-9)))
          CFI (cfiCond122) V8 load(1, XDATA, add(CFA_XSP16, literal(-8)))
          CFI (cfiCond122) V9 load(1, XDATA, add(CFA_XSP16, literal(-7)))
          CFI (cfiCond122) R7 load(1, XDATA, add(CFA_XSP16, literal(-6)))
          CFI (cfiCond122) ?RET_LOW load(1, XDATA, add(CFA_XSP16, literal(-5)))
          CFI (cfiCond122) ?RET_HIGH load(1, XDATA, add(CFA_XSP16, literal(-4)))
          CFI (cfiCond122) ?BRET_EXT load(1, XDATA, add(CFA_XSP16, literal(-3)))
          CFI (cfiCond122) DPL0 load(1, XDATA, add(CFA_XSP16, literal(-2)))
          CFI (cfiCond122) DPH0 load(1, XDATA, add(CFA_XSP16, literal(-1)))
          CFI (cfiCond122) CFA_SP SP+-8
          CFI (cfiCond122) CFA_XSP16 add(XSP16, 35)
          CFI Block cfiCond123 Using cfiCommon0
          CFI (cfiCond123) Function zclController_ProcessInWriteRspCmd
          CFI (cfiCond123) Conditional ??CrossCallReturnLabel_125, ??CrossCallReturnLabel_120, ??CrossCallReturnLabel_119, ??CrossCallReturnLabel_8
          CFI (cfiCond123) R6 load(1, XDATA, add(CFA_XSP16, literal(-22)))
          CFI (cfiCond123) VB load(1, XDATA, add(CFA_XSP16, literal(-21)))
          CFI (cfiCond123) V0 load(1, XDATA, add(CFA_XSP16, literal(-20)))
          CFI (cfiCond123) V1 load(1, XDATA, add(CFA_XSP16, literal(-19)))
          CFI (cfiCond123) V2 load(1, XDATA, add(CFA_XSP16, literal(-18)))
          CFI (cfiCond123) V3 load(1, XDATA, add(CFA_XSP16, literal(-17)))
          CFI (cfiCond123) V4 load(1, XDATA, add(CFA_XSP16, literal(-16)))
          CFI (cfiCond123) V5 load(1, XDATA, add(CFA_XSP16, literal(-15)))
          CFI (cfiCond123) V6 load(1, XDATA, add(CFA_XSP16, literal(-14)))
          CFI (cfiCond123) V7 load(1, XDATA, add(CFA_XSP16, literal(-13)))
          CFI (cfiCond123) V8 load(1, XDATA, add(CFA_XSP16, literal(-12)))
          CFI (cfiCond123) V9 load(1, XDATA, add(CFA_XSP16, literal(-11)))
          CFI (cfiCond123) V10 load(1, XDATA, add(CFA_XSP16, literal(-10)))
          CFI (cfiCond123) V11 load(1, XDATA, add(CFA_XSP16, literal(-9)))
          CFI (cfiCond123) V12 load(1, XDATA, add(CFA_XSP16, literal(-8)))
          CFI (cfiCond123) V13 load(1, XDATA, add(CFA_XSP16, literal(-7)))
          CFI (cfiCond123) R7 load(1, XDATA, add(CFA_XSP16, literal(-6)))
          CFI (cfiCond123) ?RET_LOW load(1, XDATA, add(CFA_XSP16, literal(-5)))
          CFI (cfiCond123) ?RET_HIGH load(1, XDATA, add(CFA_XSP16, literal(-4)))
          CFI (cfiCond123) ?BRET_EXT load(1, XDATA, add(CFA_XSP16, literal(-3)))
          CFI (cfiCond123) DPL0 load(1, XDATA, add(CFA_XSP16, literal(-2)))
          CFI (cfiCond123) DPH0 load(1, XDATA, add(CFA_XSP16, literal(-1)))
          CFI (cfiCond123) CFA_SP SP+-8
          CFI (cfiCond123) CFA_XSP16 add(XSP16, 39)
          CFI Block cfiCond124 Using cfiCommon0
          CFI (cfiCond124) Function zclController_ProcessInWriteRspCmd
          CFI (cfiCond124) Conditional ??CrossCallReturnLabel_125, ??CrossCallReturnLabel_120, ??CrossCallReturnLabel_119, ??CrossCallReturnLabel_9
          CFI (cfiCond124) R6 load(1, XDATA, add(CFA_XSP16, literal(-22)))
          CFI (cfiCond124) VB load(1, XDATA, add(CFA_XSP16, literal(-21)))
          CFI (cfiCond124) V0 load(1, XDATA, add(CFA_XSP16, literal(-20)))
          CFI (cfiCond124) V1 load(1, XDATA, add(CFA_XSP16, literal(-19)))
          CFI (cfiCond124) V2 load(1, XDATA, add(CFA_XSP16, literal(-18)))
          CFI (cfiCond124) V3 load(1, XDATA, add(CFA_XSP16, literal(-17)))
          CFI (cfiCond124) V4 load(1, XDATA, add(CFA_XSP16, literal(-16)))
          CFI (cfiCond124) V5 load(1, XDATA, add(CFA_XSP16, literal(-15)))
          CFI (cfiCond124) V6 load(1, XDATA, add(CFA_XSP16, literal(-14)))
          CFI (cfiCond124) V7 load(1, XDATA, add(CFA_XSP16, literal(-13)))
          CFI (cfiCond124) V8 load(1, XDATA, add(CFA_XSP16, literal(-12)))
          CFI (cfiCond124) V9 load(1, XDATA, add(CFA_XSP16, literal(-11)))
          CFI (cfiCond124) V10 load(1, XDATA, add(CFA_XSP16, literal(-10)))
          CFI (cfiCond124) V11 load(1, XDATA, add(CFA_XSP16, literal(-9)))
          CFI (cfiCond124) V12 load(1, XDATA, add(CFA_XSP16, literal(-8)))
          CFI (cfiCond124) V13 load(1, XDATA, add(CFA_XSP16, literal(-7)))
          CFI (cfiCond124) R7 load(1, XDATA, add(CFA_XSP16, literal(-6)))
          CFI (cfiCond124) ?RET_LOW load(1, XDATA, add(CFA_XSP16, literal(-5)))
          CFI (cfiCond124) ?RET_HIGH load(1, XDATA, add(CFA_XSP16, literal(-4)))
          CFI (cfiCond124) ?BRET_EXT load(1, XDATA, add(CFA_XSP16, literal(-3)))
          CFI (cfiCond124) DPL0 load(1, XDATA, add(CFA_XSP16, literal(-2)))
          CFI (cfiCond124) DPH0 load(1, XDATA, add(CFA_XSP16, literal(-1)))
          CFI (cfiCond124) CFA_SP SP+-8
          CFI (cfiCond124) CFA_XSP16 add(XSP16, 39)
          CFI Block cfiCond125 Using cfiCommon0
          CFI (cfiCond125) Function zclController_ProcessInReadRspCmd
          CFI (cfiCond125) Conditional ??CrossCallReturnLabel_125, ??CrossCallReturnLabel_121, ??CrossCallReturnLabel_72, ??CrossCallReturnLabel_6
          CFI (cfiCond125) R6 load(1, XDATA, add(CFA_XSP16, literal(-22)))
          CFI (cfiCond125) VB load(1, XDATA, add(CFA_XSP16, literal(-21)))
          CFI (cfiCond125) V0 load(1, XDATA, add(CFA_XSP16, literal(-20)))
          CFI (cfiCond125) V1 load(1, XDATA, add(CFA_XSP16, literal(-19)))
          CFI (cfiCond125) V2 load(1, XDATA, add(CFA_XSP16, literal(-18)))
          CFI (cfiCond125) V3 load(1, XDATA, add(CFA_XSP16, literal(-17)))
          CFI (cfiCond125) V4 load(1, XDATA, add(CFA_XSP16, literal(-16)))
          CFI (cfiCond125) V5 load(1, XDATA, add(CFA_XSP16, literal(-15)))
          CFI (cfiCond125) V6 load(1, XDATA, add(CFA_XSP16, literal(-14)))
          CFI (cfiCond125) V7 load(1, XDATA, add(CFA_XSP16, literal(-13)))
          CFI (cfiCond125) V8 load(1, XDATA, add(CFA_XSP16, literal(-12)))
          CFI (cfiCond125) V9 load(1, XDATA, add(CFA_XSP16, literal(-11)))
          CFI (cfiCond125) V10 load(1, XDATA, add(CFA_XSP16, literal(-10)))
          CFI (cfiCond125) V11 load(1, XDATA, add(CFA_XSP16, literal(-9)))
          CFI (cfiCond125) V12 load(1, XDATA, add(CFA_XSP16, literal(-8)))
          CFI (cfiCond125) V13 load(1, XDATA, add(CFA_XSP16, literal(-7)))
          CFI (cfiCond125) R7 load(1, XDATA, add(CFA_XSP16, literal(-6)))
          CFI (cfiCond125) ?RET_LOW load(1, XDATA, add(CFA_XSP16, literal(-5)))
          CFI (cfiCond125) ?RET_HIGH load(1, XDATA, add(CFA_XSP16, literal(-4)))
          CFI (cfiCond125) ?BRET_EXT load(1, XDATA, add(CFA_XSP16, literal(-3)))
          CFI (cfiCond125) DPL0 load(1, XDATA, add(CFA_XSP16, literal(-2)))
          CFI (cfiCond125) DPH0 load(1, XDATA, add(CFA_XSP16, literal(-1)))
          CFI (cfiCond125) CFA_SP SP+-8
          CFI (cfiCond125) CFA_XSP16 add(XSP16, 39)
          CFI Block cfiCond126 Using cfiCommon0
          CFI (cfiCond126) Function zclController_ProcessInReportCmd
          CFI (cfiCond126) Conditional ??CrossCallReturnLabel_125, ??CrossCallReturnLabel_121, ??CrossCallReturnLabel_72, ??CrossCallReturnLabel_7
          CFI (cfiCond126) R6 load(1, XDATA, add(CFA_XSP16, literal(-18)))
          CFI (cfiCond126) VB load(1, XDATA, add(CFA_XSP16, literal(-17)))
          CFI (cfiCond126) V0 load(1, XDATA, add(CFA_XSP16, literal(-16)))
          CFI (cfiCond126) V1 load(1, XDATA, add(CFA_XSP16, literal(-15)))
          CFI (cfiCond126) V2 load(1, XDATA, add(CFA_XSP16, literal(-14)))
          CFI (cfiCond126) V3 load(1, XDATA, add(CFA_XSP16, literal(-13)))
          CFI (cfiCond126) V4 load(1, XDATA, add(CFA_XSP16, literal(-12)))
          CFI (cfiCond126) V5 load(1, XDATA, add(CFA_XSP16, literal(-11)))
          CFI (cfiCond126) V6 load(1, XDATA, add(CFA_XSP16, literal(-10)))
          CFI (cfiCond126) V7 load(1, XDATA, add(CFA_XSP16, literal(-9)))
          CFI (cfiCond126) V8 load(1, XDATA, add(CFA_XSP16, literal(-8)))
          CFI (cfiCond126) V9 load(1, XDATA, add(CFA_XSP16, literal(-7)))
          CFI (cfiCond126) R7 load(1, XDATA, add(CFA_XSP16, literal(-6)))
          CFI (cfiCond126) ?RET_LOW load(1, XDATA, add(CFA_XSP16, literal(-5)))
          CFI (cfiCond126) ?RET_HIGH load(1, XDATA, add(CFA_XSP16, literal(-4)))
          CFI (cfiCond126) ?BRET_EXT load(1, XDATA, add(CFA_XSP16, literal(-3)))
          CFI (cfiCond126) DPL0 load(1, XDATA, add(CFA_XSP16, literal(-2)))
          CFI (cfiCond126) DPH0 load(1, XDATA, add(CFA_XSP16, literal(-1)))
          CFI (cfiCond126) CFA_SP SP+-8
          CFI (cfiCond126) CFA_XSP16 add(XSP16, 35)
          CFI Block cfiCond127 Using cfiCommon0
          CFI (cfiCond127) Function zclController_ProcessInReadRspCmd
          CFI (cfiCond127) Conditional ??CrossCallReturnLabel_125, ??CrossCallReturnLabel_121, ??CrossCallReturnLabel_73, ??CrossCallReturnLabel_2
          CFI (cfiCond127) R6 load(1, XDATA, add(CFA_XSP16, literal(-22)))
          CFI (cfiCond127) VB load(1, XDATA, add(CFA_XSP16, literal(-21)))
          CFI (cfiCond127) V0 load(1, XDATA, add(CFA_XSP16, literal(-20)))
          CFI (cfiCond127) V1 load(1, XDATA, add(CFA_XSP16, literal(-19)))
          CFI (cfiCond127) V2 load(1, XDATA, add(CFA_XSP16, literal(-18)))
          CFI (cfiCond127) V3 load(1, XDATA, add(CFA_XSP16, literal(-17)))
          CFI (cfiCond127) V4 load(1, XDATA, add(CFA_XSP16, literal(-16)))
          CFI (cfiCond127) V5 load(1, XDATA, add(CFA_XSP16, literal(-15)))
          CFI (cfiCond127) V6 load(1, XDATA, add(CFA_XSP16, literal(-14)))
          CFI (cfiCond127) V7 load(1, XDATA, add(CFA_XSP16, literal(-13)))
          CFI (cfiCond127) V8 load(1, XDATA, add(CFA_XSP16, literal(-12)))
          CFI (cfiCond127) V9 load(1, XDATA, add(CFA_XSP16, literal(-11)))
          CFI (cfiCond127) V10 load(1, XDATA, add(CFA_XSP16, literal(-10)))
          CFI (cfiCond127) V11 load(1, XDATA, add(CFA_XSP16, literal(-9)))
          CFI (cfiCond127) V12 load(1, XDATA, add(CFA_XSP16, literal(-8)))
          CFI (cfiCond127) V13 load(1, XDATA, add(CFA_XSP16, literal(-7)))
          CFI (cfiCond127) R7 load(1, XDATA, add(CFA_XSP16, literal(-6)))
          CFI (cfiCond127) ?RET_LOW load(1, XDATA, add(CFA_XSP16, literal(-5)))
          CFI (cfiCond127) ?RET_HIGH load(1, XDATA, add(CFA_XSP16, literal(-4)))
          CFI (cfiCond127) ?BRET_EXT load(1, XDATA, add(CFA_XSP16, literal(-3)))
          CFI (cfiCond127) DPL0 load(1, XDATA, add(CFA_XSP16, literal(-2)))
          CFI (cfiCond127) DPH0 load(1, XDATA, add(CFA_XSP16, literal(-1)))
          CFI (cfiCond127) CFA_SP SP+-8
          CFI (cfiCond127) CFA_XSP16 add(XSP16, 39)
          CFI Block cfiCond128 Using cfiCommon0
          CFI (cfiCond128) Function zclController_ProcessInReportCmd
          CFI (cfiCond128) Conditional ??CrossCallReturnLabel_125, ??CrossCallReturnLabel_121, ??CrossCallReturnLabel_73, ??CrossCallReturnLabel_3
          CFI (cfiCond128) R6 load(1, XDATA, add(CFA_XSP16, literal(-18)))
          CFI (cfiCond128) VB load(1, XDATA, add(CFA_XSP16, literal(-17)))
          CFI (cfiCond128) V0 load(1, XDATA, add(CFA_XSP16, literal(-16)))
          CFI (cfiCond128) V1 load(1, XDATA, add(CFA_XSP16, literal(-15)))
          CFI (cfiCond128) V2 load(1, XDATA, add(CFA_XSP16, literal(-14)))
          CFI (cfiCond128) V3 load(1, XDATA, add(CFA_XSP16, literal(-13)))
          CFI (cfiCond128) V4 load(1, XDATA, add(CFA_XSP16, literal(-12)))
          CFI (cfiCond128) V5 load(1, XDATA, add(CFA_XSP16, literal(-11)))
          CFI (cfiCond128) V6 load(1, XDATA, add(CFA_XSP16, literal(-10)))
          CFI (cfiCond128) V7 load(1, XDATA, add(CFA_XSP16, literal(-9)))
          CFI (cfiCond128) V8 load(1, XDATA, add(CFA_XSP16, literal(-8)))
          CFI (cfiCond128) V9 load(1, XDATA, add(CFA_XSP16, literal(-7)))
          CFI (cfiCond128) R7 load(1, XDATA, add(CFA_XSP16, literal(-6)))
          CFI (cfiCond128) ?RET_LOW load(1, XDATA, add(CFA_XSP16, literal(-5)))
          CFI (cfiCond128) ?RET_HIGH load(1, XDATA, add(CFA_XSP16, literal(-4)))
          CFI (cfiCond128) ?BRET_EXT load(1, XDATA, add(CFA_XSP16, literal(-3)))
          CFI (cfiCond128) DPL0 load(1, XDATA, add(CFA_XSP16, literal(-2)))
          CFI (cfiCond128) DPH0 load(1, XDATA, add(CFA_XSP16, literal(-1)))
          CFI (cfiCond128) CFA_SP SP+-8
          CFI (cfiCond128) CFA_XSP16 add(XSP16, 35)
          CFI Block cfiCond129 Using cfiCommon0
          CFI (cfiCond129) Function zclController_ProcessInReadReportCfgRspCmd
          CFI (cfiCond129) Conditional ??CrossCallReturnLabel_124
          CFI (cfiCond129) R6 load(1, XDATA, add(CFA_XSP16, literal(-20)))
          CFI (cfiCond129) VB load(1, XDATA, add(CFA_XSP16, literal(-19)))
          CFI (cfiCond129) V0 load(1, XDATA, add(CFA_XSP16, literal(-18)))
          CFI (cfiCond129) V1 load(1, XDATA, add(CFA_XSP16, literal(-17)))
          CFI (cfiCond129) V2 load(1, XDATA, add(CFA_XSP16, literal(-16)))
          CFI (cfiCond129) V3 load(1, XDATA, add(CFA_XSP16, literal(-15)))
          CFI (cfiCond129) V4 load(1, XDATA, add(CFA_XSP16, literal(-14)))
          CFI (cfiCond129) V5 load(1, XDATA, add(CFA_XSP16, literal(-13)))
          CFI (cfiCond129) V6 load(1, XDATA, add(CFA_XSP16, literal(-12)))
          CFI (cfiCond129) V7 load(1, XDATA, add(CFA_XSP16, literal(-11)))
          CFI (cfiCond129) V8 load(1, XDATA, add(CFA_XSP16, literal(-10)))
          CFI (cfiCond129) V9 load(1, XDATA, add(CFA_XSP16, literal(-9)))
          CFI (cfiCond129) V10 load(1, XDATA, add(CFA_XSP16, literal(-8)))
          CFI (cfiCond129) V11 load(1, XDATA, add(CFA_XSP16, literal(-7)))
          CFI (cfiCond129) R7 load(1, XDATA, add(CFA_XSP16, literal(-6)))
          CFI (cfiCond129) ?RET_LOW load(1, XDATA, add(CFA_XSP16, literal(-5)))
          CFI (cfiCond129) ?RET_HIGH load(1, XDATA, add(CFA_XSP16, literal(-4)))
          CFI (cfiCond129) ?BRET_EXT load(1, XDATA, add(CFA_XSP16, literal(-3)))
          CFI (cfiCond129) DPL0 load(1, XDATA, add(CFA_XSP16, literal(-2)))
          CFI (cfiCond129) DPH0 load(1, XDATA, add(CFA_XSP16, literal(-1)))
          CFI (cfiCond129) CFA_SP SP+-2
          CFI (cfiCond129) CFA_XSP16 add(XSP16, 20)
          CFI Block cfiPicker130 Using cfiCommon1
          CFI (cfiPicker130) NoFunction
          CFI (cfiPicker130) Picker
        MOVX      A,@DPTR
        MOV       R2,A
        INC       DPTR
        MOVX      A,@DPTR
        MOV       R3,A
        RET
          CFI EndBlock cfiCond116
          CFI EndBlock cfiCond117
          CFI EndBlock cfiCond118
          CFI EndBlock cfiCond119
          CFI EndBlock cfiCond120
          CFI EndBlock cfiCond121
          CFI EndBlock cfiCond122
          CFI EndBlock cfiCond123
          CFI EndBlock cfiCond124
          CFI EndBlock cfiCond125
          CFI EndBlock cfiCond126
          CFI EndBlock cfiCond127
          CFI EndBlock cfiCond128
          CFI EndBlock cfiCond129
          CFI EndBlock cfiPicker130

        RSEG BANKED_CODE:HUGECODE:NOROOT(0)
?Subroutine10:
          CFI Block cfiCond131 Using cfiCommon0
          CFI Function zclController_ProcessInWriteRspCmd
          CFI Conditional ??CrossCallReturnLabel_8
          CFI R6 load(1, XDATA, add(CFA_XSP16, literal(-22)))
          CFI VB load(1, XDATA, add(CFA_XSP16, literal(-21)))
          CFI V0 load(1, XDATA, add(CFA_XSP16, literal(-20)))
          CFI V1 load(1, XDATA, add(CFA_XSP16, literal(-19)))
          CFI V2 load(1, XDATA, add(CFA_XSP16, literal(-18)))
          CFI V3 load(1, XDATA, add(CFA_XSP16, literal(-17)))
          CFI V4 load(1, XDATA, add(CFA_XSP16, literal(-16)))
          CFI V5 load(1, XDATA, add(CFA_XSP16, literal(-15)))
          CFI V6 load(1, XDATA, add(CFA_XSP16, literal(-14)))
          CFI V7 load(1, XDATA, add(CFA_XSP16, literal(-13)))
          CFI V8 load(1, XDATA, add(CFA_XSP16, literal(-12)))
          CFI V9 load(1, XDATA, add(CFA_XSP16, literal(-11)))
          CFI V10 load(1, XDATA, add(CFA_XSP16, literal(-10)))
          CFI V11 load(1, XDATA, add(CFA_XSP16, literal(-9)))
          CFI V12 load(1, XDATA, add(CFA_XSP16, literal(-8)))
          CFI V13 load(1, XDATA, add(CFA_XSP16, literal(-7)))
          CFI R7 load(1, XDATA, add(CFA_XSP16, literal(-6)))
          CFI ?RET_LOW load(1, XDATA, add(CFA_XSP16, literal(-5)))
          CFI ?RET_HIGH load(1, XDATA, add(CFA_XSP16, literal(-4)))
          CFI ?BRET_EXT load(1, XDATA, add(CFA_XSP16, literal(-3)))
          CFI DPL0 load(1, XDATA, add(CFA_XSP16, literal(-2)))
          CFI DPH0 load(1, XDATA, add(CFA_XSP16, literal(-1)))
          CFI CFA_SP SP+-2
          CFI CFA_XSP16 add(XSP16, 39)
          CFI Block cfiCond132 Using cfiCommon0
          CFI (cfiCond132) Function zclController_ProcessInWriteRspCmd
          CFI (cfiCond132) Conditional ??CrossCallReturnLabel_9
          CFI (cfiCond132) R6 load(1, XDATA, add(CFA_XSP16, literal(-22)))
          CFI (cfiCond132) VB load(1, XDATA, add(CFA_XSP16, literal(-21)))
          CFI (cfiCond132) V0 load(1, XDATA, add(CFA_XSP16, literal(-20)))
          CFI (cfiCond132) V1 load(1, XDATA, add(CFA_XSP16, literal(-19)))
          CFI (cfiCond132) V2 load(1, XDATA, add(CFA_XSP16, literal(-18)))
          CFI (cfiCond132) V3 load(1, XDATA, add(CFA_XSP16, literal(-17)))
          CFI (cfiCond132) V4 load(1, XDATA, add(CFA_XSP16, literal(-16)))
          CFI (cfiCond132) V5 load(1, XDATA, add(CFA_XSP16, literal(-15)))
          CFI (cfiCond132) V6 load(1, XDATA, add(CFA_XSP16, literal(-14)))
          CFI (cfiCond132) V7 load(1, XDATA, add(CFA_XSP16, literal(-13)))
          CFI (cfiCond132) V8 load(1, XDATA, add(CFA_XSP16, literal(-12)))
          CFI (cfiCond132) V9 load(1, XDATA, add(CFA_XSP16, literal(-11)))
          CFI (cfiCond132) V10 load(1, XDATA, add(CFA_XSP16, literal(-10)))
          CFI (cfiCond132) V11 load(1, XDATA, add(CFA_XSP16, literal(-9)))
          CFI (cfiCond132) V12 load(1, XDATA, add(CFA_XSP16, literal(-8)))
          CFI (cfiCond132) V13 load(1, XDATA, add(CFA_XSP16, literal(-7)))
          CFI (cfiCond132) R7 load(1, XDATA, add(CFA_XSP16, literal(-6)))
          CFI (cfiCond132) ?RET_LOW load(1, XDATA, add(CFA_XSP16, literal(-5)))
          CFI (cfiCond132) ?RET_HIGH load(1, XDATA, add(CFA_XSP16, literal(-4)))
          CFI (cfiCond132) ?BRET_EXT load(1, XDATA, add(CFA_XSP16, literal(-3)))
          CFI (cfiCond132) DPL0 load(1, XDATA, add(CFA_XSP16, literal(-2)))
          CFI (cfiCond132) DPH0 load(1, XDATA, add(CFA_XSP16, literal(-1)))
          CFI (cfiCond132) CFA_SP SP+-2
          CFI (cfiCond132) CFA_XSP16 add(XSP16, 39)
          CFI Block cfiPicker133 Using cfiCommon1
          CFI (cfiPicker133) NoFunction
          CFI (cfiPicker133) Picker
        INC       DPTR
        INC       DPTR
        LCALL     ?Subroutine42 & 0xFFFF
??CrossCallReturnLabel_119:
        LCALL     ?Subroutine47 & 0xFFFF
??CrossCallReturnLabel_87:
        RET
          CFI EndBlock cfiCond131
          CFI EndBlock cfiCond132
          CFI EndBlock cfiPicker133

        RSEG BANKED_CODE:HUGECODE:NOROOT(0)
?Subroutine47:
          CFI Block cfiCond134 Using cfiCommon0
          CFI Function zclController_ProcessInWriteRspCmd
          CFI Conditional ??CrossCallReturnLabel_86
          CFI R6 load(1, XDATA, add(CFA_XSP16, literal(-22)))
          CFI VB load(1, XDATA, add(CFA_XSP16, literal(-21)))
          CFI V0 load(1, XDATA, add(CFA_XSP16, literal(-20)))
          CFI V1 load(1, XDATA, add(CFA_XSP16, literal(-19)))
          CFI V2 load(1, XDATA, add(CFA_XSP16, literal(-18)))
          CFI V3 load(1, XDATA, add(CFA_XSP16, literal(-17)))
          CFI V4 load(1, XDATA, add(CFA_XSP16, literal(-16)))
          CFI V5 load(1, XDATA, add(CFA_XSP16, literal(-15)))
          CFI V6 load(1, XDATA, add(CFA_XSP16, literal(-14)))
          CFI V7 load(1, XDATA, add(CFA_XSP16, literal(-13)))
          CFI V8 load(1, XDATA, add(CFA_XSP16, literal(-12)))
          CFI V9 load(1, XDATA, add(CFA_XSP16, literal(-11)))
          CFI V10 load(1, XDATA, add(CFA_XSP16, literal(-10)))
          CFI V11 load(1, XDATA, add(CFA_XSP16, literal(-9)))
          CFI V12 load(1, XDATA, add(CFA_XSP16, literal(-8)))
          CFI V13 load(1, XDATA, add(CFA_XSP16, literal(-7)))
          CFI R7 load(1, XDATA, add(CFA_XSP16, literal(-6)))
          CFI ?RET_LOW load(1, XDATA, add(CFA_XSP16, literal(-5)))
          CFI ?RET_HIGH load(1, XDATA, add(CFA_XSP16, literal(-4)))
          CFI ?BRET_EXT load(1, XDATA, add(CFA_XSP16, literal(-3)))
          CFI DPL0 load(1, XDATA, add(CFA_XSP16, literal(-2)))
          CFI DPH0 load(1, XDATA, add(CFA_XSP16, literal(-1)))
          CFI CFA_SP SP+-2
          CFI CFA_XSP16 add(XSP16, 39)
          CFI Block cfiCond135 Using cfiCommon0
          CFI (cfiCond135) Function zclController_ProcessInWriteRspCmd
          CFI (cfiCond135) Conditional ??CrossCallReturnLabel_87, ??CrossCallReturnLabel_8
          CFI (cfiCond135) R6 load(1, XDATA, add(CFA_XSP16, literal(-22)))
          CFI (cfiCond135) VB load(1, XDATA, add(CFA_XSP16, literal(-21)))
          CFI (cfiCond135) V0 load(1, XDATA, add(CFA_XSP16, literal(-20)))
          CFI (cfiCond135) V1 load(1, XDATA, add(CFA_XSP16, literal(-19)))
          CFI (cfiCond135) V2 load(1, XDATA, add(CFA_XSP16, literal(-18)))
          CFI (cfiCond135) V3 load(1, XDATA, add(CFA_XSP16, literal(-17)))
          CFI (cfiCond135) V4 load(1, XDATA, add(CFA_XSP16, literal(-16)))
          CFI (cfiCond135) V5 load(1, XDATA, add(CFA_XSP16, literal(-15)))
          CFI (cfiCond135) V6 load(1, XDATA, add(CFA_XSP16, literal(-14)))
          CFI (cfiCond135) V7 load(1, XDATA, add(CFA_XSP16, literal(-13)))
          CFI (cfiCond135) V8 load(1, XDATA, add(CFA_XSP16, literal(-12)))
          CFI (cfiCond135) V9 load(1, XDATA, add(CFA_XSP16, literal(-11)))
          CFI (cfiCond135) V10 load(1, XDATA, add(CFA_XSP16, literal(-10)))
          CFI (cfiCond135) V11 load(1, XDATA, add(CFA_XSP16, literal(-9)))
          CFI (cfiCond135) V12 load(1, XDATA, add(CFA_XSP16, literal(-8)))
          CFI (cfiCond135) V13 load(1, XDATA, add(CFA_XSP16, literal(-7)))
          CFI (cfiCond135) R7 load(1, XDATA, add(CFA_XSP16, literal(-6)))
          CFI (cfiCond135) ?RET_LOW load(1, XDATA, add(CFA_XSP16, literal(-5)))
          CFI (cfiCond135) ?RET_HIGH load(1, XDATA, add(CFA_XSP16, literal(-4)))
          CFI (cfiCond135) ?BRET_EXT load(1, XDATA, add(CFA_XSP16, literal(-3)))
          CFI (cfiCond135) DPL0 load(1, XDATA, add(CFA_XSP16, literal(-2)))
          CFI (cfiCond135) DPH0 load(1, XDATA, add(CFA_XSP16, literal(-1)))
          CFI (cfiCond135) CFA_SP SP+-4
          CFI (cfiCond135) CFA_XSP16 add(XSP16, 39)
          CFI Block cfiCond136 Using cfiCommon0
          CFI (cfiCond136) Function zclController_ProcessInWriteRspCmd
          CFI (cfiCond136) Conditional ??CrossCallReturnLabel_87, ??CrossCallReturnLabel_9
          CFI (cfiCond136) R6 load(1, XDATA, add(CFA_XSP16, literal(-22)))
          CFI (cfiCond136) VB load(1, XDATA, add(CFA_XSP16, literal(-21)))
          CFI (cfiCond136) V0 load(1, XDATA, add(CFA_XSP16, literal(-20)))
          CFI (cfiCond136) V1 load(1, XDATA, add(CFA_XSP16, literal(-19)))
          CFI (cfiCond136) V2 load(1, XDATA, add(CFA_XSP16, literal(-18)))
          CFI (cfiCond136) V3 load(1, XDATA, add(CFA_XSP16, literal(-17)))
          CFI (cfiCond136) V4 load(1, XDATA, add(CFA_XSP16, literal(-16)))
          CFI (cfiCond136) V5 load(1, XDATA, add(CFA_XSP16, literal(-15)))
          CFI (cfiCond136) V6 load(1, XDATA, add(CFA_XSP16, literal(-14)))
          CFI (cfiCond136) V7 load(1, XDATA, add(CFA_XSP16, literal(-13)))
          CFI (cfiCond136) V8 load(1, XDATA, add(CFA_XSP16, literal(-12)))
          CFI (cfiCond136) V9 load(1, XDATA, add(CFA_XSP16, literal(-11)))
          CFI (cfiCond136) V10 load(1, XDATA, add(CFA_XSP16, literal(-10)))
          CFI (cfiCond136) V11 load(1, XDATA, add(CFA_XSP16, literal(-9)))
          CFI (cfiCond136) V12 load(1, XDATA, add(CFA_XSP16, literal(-8)))
          CFI (cfiCond136) V13 load(1, XDATA, add(CFA_XSP16, literal(-7)))
          CFI (cfiCond136) R7 load(1, XDATA, add(CFA_XSP16, literal(-6)))
          CFI (cfiCond136) ?RET_LOW load(1, XDATA, add(CFA_XSP16, literal(-5)))
          CFI (cfiCond136) ?RET_HIGH load(1, XDATA, add(CFA_XSP16, literal(-4)))
          CFI (cfiCond136) ?BRET_EXT load(1, XDATA, add(CFA_XSP16, literal(-3)))
          CFI (cfiCond136) DPL0 load(1, XDATA, add(CFA_XSP16, literal(-2)))
          CFI (cfiCond136) DPH0 load(1, XDATA, add(CFA_XSP16, literal(-1)))
          CFI (cfiCond136) CFA_SP SP+-4
          CFI (cfiCond136) CFA_XSP16 add(XSP16, 39)
          CFI Block cfiPicker137 Using cfiCommon1
          CFI (cfiPicker137) NoFunction
          CFI (cfiPicker137) Picker
        MOV       R5,#0x0
        MOV       R2,?XSP + 0
        MOV       R3,?XSP + 1
        LCALL     `??AT_Uart0_Send::?relay`; Banked call to: AT_Uart0_Send
        ; Setup parameters for call to function AT_Uart0_Send
        ; Setup parameters for call to function AT_Uart0_Send
        ; Setup parameters for call to function AT_Uart0_Send
        MOV       R4,#0x1
        MOV       R5,#0x0
        MOV       R2,?V6
        MOV       R3,?V7
        LCALL     `??AT_Uart0_Send::?relay`; Banked call to: AT_Uart0_Send
        RET
          CFI EndBlock cfiCond134
          CFI EndBlock cfiCond135
          CFI EndBlock cfiCond136
          CFI EndBlock cfiPicker137
//  901 #endif // ZCL_WRITE
//  902 
//  903 #ifdef ZCL_REPORT_CONFIGURING_DEVICE
//  904 /*********************************************************************
//  905  * @fn      zclController_ProcessInReadReportCfgRspCmd
//  906  *
//  907  * @brief   Process the "Profile" Read Reporting Configuration Response Command
//  908  *
//  909  * @param   pInMsg - incoming message to process
//  910  *
//  911  * @return  none
//  912  ********************************************************************/

        RSEG BANKED_CODE:HUGECODE:NOROOT(0)
//  913 static uint8 zclController_ProcessInReadReportCfgRspCmd( zclIncomingMsg_t *pInMsg )
zclController_ProcessInReadReportCfgRspCmd:
          CFI Block cfiBlock138 Using cfiCommon0
          CFI Function zclController_ProcessInReadReportCfgRspCmd
        CODE
//  914 {
        FUNCALL zclController_ProcessInReadReportCfgRspCmd, AT_Uart0_Send
        LOCFRAME ISTACK, 0, STACK
        LOCFRAME PSTACK, 0, STACK
        LOCFRAME XSTACK, 20, STACK
        LOCFRAME IOVERLAY, 0, STATIC
        LOCFRAME DOVERLAY, 0, STATIC
        ARGFRAME ISTACK, 0, STACK
        ARGFRAME PSTACK, 0, STACK
        ARGFRAME XSTACK, 20, STACK
        ARGFRAME IOVERLAY, 0, STATIC
        ARGFRAME DOVERLAY, 0, STATIC
        FUNCALL zclController_ProcessInReadReportCfgRspCmd, printf
        LOCFRAME ISTACK, 0, STACK
        LOCFRAME PSTACK, 0, STACK
        LOCFRAME XSTACK, 28, STACK
        LOCFRAME IOVERLAY, 0, STATIC
        LOCFRAME DOVERLAY, 0, STATIC
        ARGFRAME ISTACK, 0, STACK
        ARGFRAME PSTACK, 0, STACK
        ARGFRAME XSTACK, 28, STACK
        ARGFRAME IOVERLAY, 0, STATIC
        ARGFRAME DOVERLAY, 0, STATIC
        FUNCALL zclController_ProcessInReadReportCfgRspCmd, printf
        LOCFRAME ISTACK, 0, STACK
        LOCFRAME PSTACK, 0, STACK
        LOCFRAME XSTACK, 22, STACK
        LOCFRAME IOVERLAY, 0, STATIC
        LOCFRAME DOVERLAY, 0, STATIC
        ARGFRAME ISTACK, 0, STACK
        ARGFRAME PSTACK, 0, STACK
        ARGFRAME XSTACK, 22, STACK
        ARGFRAME IOVERLAY, 0, STATIC
        ARGFRAME DOVERLAY, 0, STATIC
        FUNCALL zclController_ProcessInReadReportCfgRspCmd, AT_Uart0_Send
        LOCFRAME ISTACK, 0, STACK
        LOCFRAME PSTACK, 0, STACK
        LOCFRAME XSTACK, 20, STACK
        LOCFRAME IOVERLAY, 0, STATIC
        LOCFRAME DOVERLAY, 0, STATIC
        ARGFRAME ISTACK, 0, STACK
        ARGFRAME PSTACK, 0, STACK
        ARGFRAME XSTACK, 20, STACK
        ARGFRAME IOVERLAY, 0, STATIC
        ARGFRAME DOVERLAY, 0, STATIC
        FUNCALL zclController_ProcessInReadReportCfgRspCmd, printf
        LOCFRAME ISTACK, 0, STACK
        LOCFRAME PSTACK, 0, STACK
        LOCFRAME XSTACK, 28, STACK
        LOCFRAME IOVERLAY, 0, STATIC
        LOCFRAME DOVERLAY, 0, STATIC
        ARGFRAME ISTACK, 0, STACK
        ARGFRAME PSTACK, 0, STACK
        ARGFRAME XSTACK, 28, STACK
        ARGFRAME IOVERLAY, 0, STATIC
        ARGFRAME DOVERLAY, 0, STATIC
        FUNCALL zclController_ProcessInReadReportCfgRspCmd, printf
        LOCFRAME ISTACK, 0, STACK
        LOCFRAME PSTACK, 0, STACK
        LOCFRAME XSTACK, 26, STACK
        LOCFRAME IOVERLAY, 0, STATIC
        LOCFRAME DOVERLAY, 0, STATIC
        ARGFRAME ISTACK, 0, STACK
        ARGFRAME PSTACK, 0, STACK
        ARGFRAME XSTACK, 26, STACK
        ARGFRAME IOVERLAY, 0, STATIC
        ARGFRAME DOVERLAY, 0, STATIC
        FUNCALL zclController_ProcessInReadReportCfgRspCmd, zclAnalogDataType
        LOCFRAME ISTACK, 0, STACK
        LOCFRAME PSTACK, 0, STACK
        LOCFRAME XSTACK, 20, STACK
        LOCFRAME IOVERLAY, 0, STATIC
        LOCFRAME DOVERLAY, 0, STATIC
        ARGFRAME ISTACK, 0, STACK
        ARGFRAME PSTACK, 0, STACK
        ARGFRAME XSTACK, 20, STACK
        ARGFRAME IOVERLAY, 0, STATIC
        ARGFRAME DOVERLAY, 0, STATIC
        FUNCALL zclController_ProcessInReadReportCfgRspCmd, zclController_PrintfAttrData
        LOCFRAME ISTACK, 0, STACK
        LOCFRAME PSTACK, 0, STACK
        LOCFRAME XSTACK, 20, STACK
        LOCFRAME IOVERLAY, 0, STATIC
        LOCFRAME DOVERLAY, 0, STATIC
        ARGFRAME ISTACK, 0, STACK
        ARGFRAME PSTACK, 0, STACK
        ARGFRAME XSTACK, 20, STACK
        ARGFRAME IOVERLAY, 0, STATIC
        ARGFRAME DOVERLAY, 0, STATIC
        FUNCALL zclController_ProcessInReadReportCfgRspCmd, AT_Uart0_Send
        LOCFRAME ISTACK, 0, STACK
        LOCFRAME PSTACK, 0, STACK
        LOCFRAME XSTACK, 20, STACK
        LOCFRAME IOVERLAY, 0, STATIC
        LOCFRAME DOVERLAY, 0, STATIC
        ARGFRAME ISTACK, 0, STACK
        ARGFRAME PSTACK, 0, STACK
        ARGFRAME XSTACK, 20, STACK
        ARGFRAME IOVERLAY, 0, STATIC
        ARGFRAME DOVERLAY, 0, STATIC
        FUNCALL zclController_ProcessInReadReportCfgRspCmd, AT_Uart0_Send
        LOCFRAME ISTACK, 0, STACK
        LOCFRAME PSTACK, 0, STACK
        LOCFRAME XSTACK, 20, STACK
        LOCFRAME IOVERLAY, 0, STATIC
        LOCFRAME DOVERLAY, 0, STATIC
        ARGFRAME ISTACK, 0, STACK
        ARGFRAME PSTACK, 0, STACK
        ARGFRAME XSTACK, 20, STACK
        ARGFRAME IOVERLAY, 0, STATIC
        ARGFRAME DOVERLAY, 0, STATIC
        FUNCALL zclController_ProcessInReadReportCfgRspCmd, AT_Uart0_Send
        LOCFRAME ISTACK, 0, STACK
        LOCFRAME PSTACK, 0, STACK
        LOCFRAME XSTACK, 20, STACK
        LOCFRAME IOVERLAY, 0, STATIC
        LOCFRAME DOVERLAY, 0, STATIC
        ARGFRAME ISTACK, 0, STACK
        ARGFRAME PSTACK, 0, STACK
        ARGFRAME XSTACK, 20, STACK
        ARGFRAME IOVERLAY, 0, STATIC
        ARGFRAME DOVERLAY, 0, STATIC
        REQUIRE ?V0
        REQUIRE ?V1
        REQUIRE ?V2
        REQUIRE ?V3
        REQUIRE ?V4
        REQUIRE ?V5
        REQUIRE ?V6
        REQUIRE ?V7
        REQUIRE ?V8
        REQUIRE ?V9
        REQUIRE ?V10
        REQUIRE ?V11
        MOV       A,#-0x14
        LCALL     ?BANKED_ENTER_XDATA
          CFI DPH0 load(1, XDATA, add(CFA_XSP16, literal(-1)))
          CFI DPL0 load(1, XDATA, add(CFA_XSP16, literal(-2)))
          CFI ?BRET_EXT load(1, XDATA, add(CFA_XSP16, literal(-3)))
          CFI ?RET_HIGH load(1, XDATA, add(CFA_XSP16, literal(-4)))
          CFI ?RET_LOW load(1, XDATA, add(CFA_XSP16, literal(-5)))
          CFI R7 load(1, XDATA, add(CFA_XSP16, literal(-6)))
          CFI V11 load(1, XDATA, add(CFA_XSP16, literal(-7)))
          CFI V10 load(1, XDATA, add(CFA_XSP16, literal(-8)))
          CFI V9 load(1, XDATA, add(CFA_XSP16, literal(-9)))
          CFI V8 load(1, XDATA, add(CFA_XSP16, literal(-10)))
          CFI V7 load(1, XDATA, add(CFA_XSP16, literal(-11)))
          CFI V6 load(1, XDATA, add(CFA_XSP16, literal(-12)))
          CFI V5 load(1, XDATA, add(CFA_XSP16, literal(-13)))
          CFI V4 load(1, XDATA, add(CFA_XSP16, literal(-14)))
          CFI V3 load(1, XDATA, add(CFA_XSP16, literal(-15)))
          CFI V2 load(1, XDATA, add(CFA_XSP16, literal(-16)))
          CFI V1 load(1, XDATA, add(CFA_XSP16, literal(-17)))
          CFI V0 load(1, XDATA, add(CFA_XSP16, literal(-18)))
          CFI VB load(1, XDATA, add(CFA_XSP16, literal(-19)))
          CFI R6 load(1, XDATA, add(CFA_XSP16, literal(-20)))
          CFI CFA_SP SP+0
          CFI CFA_XSP16 add(XSP16, 20)
        ; Saved register size: 20
        ; Auto size: 0
//  915   uint16 nodeId   = pInMsg->srcAddr.addr.shortAddr;
        LCALL     ?Subroutine17 & 0xFFFF
//  916   uint8  endpoint = pInMsg->srcAddr.endPoint;
??CrossCallReturnLabel_20:
        MOV       ?V0,A
//  917   uint16 cID      = pInMsg->clusterId;
        LCALL     ?Subroutine20 & 0xFFFF
//  918   zclReadReportCfgRspCmd_t *readReportCfgRspCmd;
//  919   uint8 i;
//  920   // uint8 status;
//  921   // uint8 direction;
//  922   // uint16 attrID;
//  923   // uint8 dataType;
//  924   // uint16 minReportInt;
//  925   // uint16 maxReportInt;
//  926   // uint16 timeoutPeriod;
//  927 
//  928   readReportCfgRspCmd = (zclReadReportCfgRspCmd_t *)pInMsg->attrCmd;
??CrossCallReturnLabel_24:
        LCALL     ?Subroutine13 & 0xFFFF
//  929 
//  930   AT_NEW_LINE();
//  931   printf("READRCFGRSP:%04X,%02X,%04X,%02X", nodeId, endpoint, cID, readReportCfgRspCmd->numAttr);
??CrossCallReturnLabel_12:
        LCALL     ?Subroutine26 & 0xFFFF
??CrossCallReturnLabel_38:
        LCALL     ?PUSH_XSTACK_I_TWO
          CFI CFA_XSP16 add(XSP16, 22)
        MOV       R0,#?V6
        LCALL     ?PUSH_XSTACK_I_TWO
          CFI CFA_XSP16 add(XSP16, 24)
        MOV       ?V1,#0x0
        MOV       R0,#?V0
        LCALL     ?PUSH_XSTACK_I_TWO
          CFI CFA_XSP16 add(XSP16, 26)
        MOV       R0,#?V4
        LCALL     ?PUSH_XSTACK_I_TWO
          CFI CFA_XSP16 add(XSP16, 28)
        MOV       R2,#`?<Constant "READRCFGRSP:%04X,%02X...">` & 0xff
        MOV       R3,#(`?<Constant "READRCFGRSP:%04X,%02X...">` >> 8) & 0xff
        LCALL     `??printf::?relay`; Banked call to: printf
        MOV       A,#0x8
        LCALL     ?DEALLOC_XSTACK8
          CFI CFA_XSP16 add(XSP16, 20)
//  932   for ( i = 0; i < readReportCfgRspCmd->numAttr; i++ ) {
        MOV       ?V6,#0x0
        SJMP      ??zclController_ProcessInReadReportCfgRspCmd_0
//  933     zclReportCfgRspRec_t *reportRspRec = &(readReportCfgRspCmd->attrList[i]);
//  934     AT_NEXT_LINE();
//  935     printf("ATTR%02X:%02X,%02X,%04X", i, reportRspRec->status,
//  936             reportRspRec->direction, reportRspRec->attrID);
//  937     if ( reportRspRec->status == ZCL_STATUS_SUCCESS ) {
//  938       if ( reportRspRec->direction == ZCL_SEND_ATTR_REPORTS ) {
//  939         printf(",%02X,%04X,%04X,", reportRspRec->dataType,
//  940                 reportRspRec->minReportInt, reportRspRec->maxReportInt);
//  941         if ( zclAnalogDataType( reportRspRec->dataType ) ) {
//  942           zclController_PrintfAttrData(reportRspRec->dataType,
//  943                                        reportRspRec->reportableChange);
//  944         }
//  945       } else {
//  946         printf(",%04X", reportRspRec->timeoutPeriod);
??zclController_ProcessInReadReportCfgRspCmd_1:
        ; Setup parameters for call to function printf
        MOV       DPL,?V0
        MOV       DPH,?V1
        INC       DPTR
        INC       DPTR
        INC       DPTR
        INC       DPTR
        INC       DPTR
        INC       DPTR
        INC       DPTR
        INC       DPTR
        INC       DPTR
        LCALL     ?PUSH_XSTACK8_X_TWO
          CFI CFA_XSP16 add(XSP16, 22)
        MOV       R2,#`?<Constant ",%04X">` & 0xff
        MOV       R3,#(`?<Constant ",%04X">` >> 8) & 0xff
        LCALL     `??printf::?relay`; Banked call to: printf
        MOV       A,#0x2
        LCALL     ?DEALLOC_XSTACK8
          CFI CFA_XSP16 add(XSP16, 20)
//  947       }
??zclController_ProcessInReadReportCfgRspCmd_2:
        INC       ?V6
??zclController_ProcessInReadReportCfgRspCmd_0:
        MOV       DPL,?V2
        MOV       DPH,?V3
        MOVX      A,@DPTR
        MOV       R0,A
        MOV       A,?V6
        CLR       C
        SUBB      A,R0
        JC        $+5
        LJMP      ??zclController_ProcessInReadReportCfgRspCmd_3 & 0xFFFF
        MOV       A,?V6
        MOV       ?V8,A
        MOV       B,#0xd
        MUL       AB
        MOV       R0,A
        MOV       R1,B
        MOV       A,?V2
        ADD       A,R0
        MOV       DPL,A
        MOV       A,?V3
        ADDC      A,R1
        MOV       DPH,A
        INC       DPTR
        MOV       ?V0,DPL
        MOV       ?V1,DPH
        ; Setup parameters for call to function AT_Uart0_Send
        MOV       R4,#0x2
        MOV       R5,#0x0
        MOV       R2,#`?<Constant "\\r\\n">` & 0xff
        MOV       R3,#(`?<Constant "\\r\\n">` >> 8) & 0xff
        LCALL     `??AT_Uart0_Send::?relay`; Banked call to: AT_Uart0_Send
        MOV       DPL,?V0
        MOV       DPH,?V1
        INC       DPTR
        MOV       ?V4,DPL
        MOV       ?V5,DPH
        ; Setup parameters for call to function printf
        MOV       DPL,?V0
        MOV       DPH,?V1
        INC       DPTR
        INC       DPTR
        LCALL     ?PUSH_XSTACK8_X_TWO
          CFI CFA_XSP16 add(XSP16, 22)
        MOV       DPL,?V4
        MOV       DPH,?V5
        LCALL     ?Subroutine21 & 0xFFFF
??CrossCallReturnLabel_27:
        LCALL     ?PUSH_XSTACK_I_TWO
          CFI CFA_XSP16 add(XSP16, 24)
        MOV       DPL,?V0
        MOV       DPH,?V1
        MOVX      A,@DPTR
        MOV       ?V10,A
        MOV       R0,#?V10
        LCALL     ?PUSH_XSTACK_I_TWO
          CFI CFA_XSP16 add(XSP16, 26)
        MOV       R0,#?V8
        LCALL     ?PUSH_XSTACK_I_TWO
          CFI CFA_XSP16 add(XSP16, 28)
        MOV       R2,#`?<Constant "ATTR%02X:%02X,%02X,%04X">` & 0xff
        MOV       R3,#(`?<Constant "ATTR%02X:%02X,%02X,%04X">` >> 8) & 0xff
        LCALL     `??printf::?relay`; Banked call to: printf
        MOV       A,#0x8
        LCALL     ?DEALLOC_XSTACK8
          CFI CFA_XSP16 add(XSP16, 20)
        MOV       DPL,?V0
        MOV       DPH,?V1
        MOVX      A,@DPTR
        JZ        $+5
        LJMP      ??zclController_ProcessInReadReportCfgRspCmd_2 & 0xFFFF
        MOV       DPL,?V4
        MOV       DPH,?V5
        MOVX      A,@DPTR
        JZ        $+5
        LJMP      ??zclController_ProcessInReadReportCfgRspCmd_1 & 0xFFFF
        MOV       A,?V0
        ADD       A,#0x4
        MOV       ?V4,A
        CLR       A
        ADDC      A,?V1
        MOV       ?V5,A
        ; Setup parameters for call to function printf
        MOV       DPL,?V0
        MOV       DPH,?V1
        INC       DPTR
        INC       DPTR
        INC       DPTR
        INC       DPTR
        INC       DPTR
        INC       DPTR
        INC       DPTR
        LCALL     ?PUSH_XSTACK8_X_TWO
          CFI CFA_XSP16 add(XSP16, 22)
        MOV       DPL,?V0
        MOV       DPH,?V1
        INC       DPTR
        INC       DPTR
        INC       DPTR
        INC       DPTR
        INC       DPTR
        LCALL     ?PUSH_XSTACK8_X_TWO
          CFI CFA_XSP16 add(XSP16, 24)
        MOV       DPL,?V4
        MOV       DPH,?V5
        MOVX      A,@DPTR
        MOV       ?V8,A
        MOV       R0,#?V8
        LCALL     ?PUSH_XSTACK_I_TWO
          CFI CFA_XSP16 add(XSP16, 26)
        MOV       R2,#`?<Constant ",%02X,%04X,%04X,">` & 0xff
        MOV       R3,#(`?<Constant ",%02X,%04X,%04X,">` >> 8) & 0xff
        LCALL     ?Subroutine38 & 0xFFFF
??CrossCallReturnLabel_68:
        LCALL     ?DEALLOC_XSTACK8
          CFI CFA_XSP16 add(XSP16, 20)
        ; Setup parameters for call to function zclAnalogDataType
        MOV       DPL,?V4
        MOV       DPH,?V5
        MOVX      A,@DPTR
        MOV       R1,A
        LCALL     `??zclAnalogDataType::?relay`; Banked call to: zclAnalogDataType
        MOV       A,R1
        JNZ       $+5
        LJMP      ??zclController_ProcessInReadReportCfgRspCmd_2 & 0xFFFF
        ; Setup parameters for call to function zclController_PrintfAttrData
        MOV       A,?V0
        ADD       A,#0xb
        LCALL     ?Subroutine30 & 0xFFFF
//  948     }
//  949   }
??CrossCallReturnLabel_46:
        LCALL     ?Subroutine54 & 0xFFFF
??CrossCallReturnLabel_124:
        MOV       DPL,?V4
        MOV       DPH,?V5
        MOVX      A,@DPTR
        MOV       R1,A
        LCALL     `??zclController_PrintfAttrData::?relay`; Banked call to: zclController_PrintfAttrData
        LJMP      ??zclController_ProcessInReadReportCfgRspCmd_2 & 0xFFFF
//  950   AT_NEXT_LINE();
??zclController_ProcessInReadReportCfgRspCmd_3:
        ; Setup parameters for call to function AT_Uart0_Send
        MOV       R4,#0x2
        MOV       R5,#0x0
        MOV       R2,#`?<Constant "\\r\\n">` & 0xff
        MOV       R3,#(`?<Constant "\\r\\n">` >> 8) & 0xff
          CFI EndBlock cfiBlock138
        REQUIRE ?Subroutine5
        ; // Fall through to label ?Subroutine5
//  951   AT_RESP("END\r\n", 5);
//  952   AT_NEW_LINE();
//  953 
//  954   return ( TRUE );
//  955 }

        RSEG BANKED_CODE:HUGECODE:NOROOT(0)
?Subroutine5:
          CFI Block cfiBlock139 Using cfiCommon0
          CFI NoFunction
          CFI CFA_SP SP+0
          CFI CFA_XSP16 add(XSP16, 20)
          CFI VB load(1, XDATA, add(CFA_XSP16, literal(-19)))
          CFI DPL0 load(1, XDATA, add(CFA_XSP16, literal(-2)))
          CFI DPH0 load(1, XDATA, add(CFA_XSP16, literal(-1)))
          CFI R6 load(1, XDATA, add(CFA_XSP16, literal(-20)))
          CFI R7 load(1, XDATA, add(CFA_XSP16, literal(-6)))
          CFI V0 load(1, XDATA, add(CFA_XSP16, literal(-18)))
          CFI V1 load(1, XDATA, add(CFA_XSP16, literal(-17)))
          CFI V2 load(1, XDATA, add(CFA_XSP16, literal(-16)))
          CFI V3 load(1, XDATA, add(CFA_XSP16, literal(-15)))
          CFI V4 load(1, XDATA, add(CFA_XSP16, literal(-14)))
          CFI V5 load(1, XDATA, add(CFA_XSP16, literal(-13)))
          CFI V6 load(1, XDATA, add(CFA_XSP16, literal(-12)))
          CFI V7 load(1, XDATA, add(CFA_XSP16, literal(-11)))
          CFI V8 load(1, XDATA, add(CFA_XSP16, literal(-10)))
          CFI V9 load(1, XDATA, add(CFA_XSP16, literal(-9)))
          CFI V10 load(1, XDATA, add(CFA_XSP16, literal(-8)))
          CFI V11 load(1, XDATA, add(CFA_XSP16, literal(-7)))
          CFI ?BRET_EXT load(1, XDATA, add(CFA_XSP16, literal(-3)))
          CFI ?RET_HIGH load(1, XDATA, add(CFA_XSP16, literal(-4)))
          CFI ?RET_LOW load(1, XDATA, add(CFA_XSP16, literal(-5)))
        LCALL     `??AT_Uart0_Send::?relay`; Banked call to: AT_Uart0_Send
        ; Setup parameters for call to function AT_Uart0_Send
        ; Setup parameters for call to function AT_Uart0_Send
        MOV       R4,#0x5
        MOV       R5,#0x0
        MOV       R2,#`?<Constant "END\\r\\n">` & 0xff
        MOV       R3,#(`?<Constant "END\\r\\n">` >> 8) & 0xff
        LCALL     ?Subroutine33 & 0xFFFF
??CrossCallReturnLabel_55:
        MOV       R1,#0x1
          CFI EndBlock cfiBlock139
        REQUIRE ??Subroutine61_0
        ; // Fall through to label ??Subroutine61_0

        RSEG BANKED_CODE:HUGECODE:NOROOT(0)
??Subroutine61_0:
          CFI Block cfiBlock140 Using cfiCommon0
          CFI NoFunction
          CFI CFA_SP SP+0
          CFI CFA_XSP16 add(XSP16, 20)
          CFI VB load(1, XDATA, add(CFA_XSP16, literal(-19)))
          CFI DPL0 load(1, XDATA, add(CFA_XSP16, literal(-2)))
          CFI DPH0 load(1, XDATA, add(CFA_XSP16, literal(-1)))
          CFI R6 load(1, XDATA, add(CFA_XSP16, literal(-20)))
          CFI R7 load(1, XDATA, add(CFA_XSP16, literal(-6)))
          CFI V0 load(1, XDATA, add(CFA_XSP16, literal(-18)))
          CFI V1 load(1, XDATA, add(CFA_XSP16, literal(-17)))
          CFI V2 load(1, XDATA, add(CFA_XSP16, literal(-16)))
          CFI V3 load(1, XDATA, add(CFA_XSP16, literal(-15)))
          CFI V4 load(1, XDATA, add(CFA_XSP16, literal(-14)))
          CFI V5 load(1, XDATA, add(CFA_XSP16, literal(-13)))
          CFI V6 load(1, XDATA, add(CFA_XSP16, literal(-12)))
          CFI V7 load(1, XDATA, add(CFA_XSP16, literal(-11)))
          CFI V8 load(1, XDATA, add(CFA_XSP16, literal(-10)))
          CFI V9 load(1, XDATA, add(CFA_XSP16, literal(-9)))
          CFI V10 load(1, XDATA, add(CFA_XSP16, literal(-8)))
          CFI V11 load(1, XDATA, add(CFA_XSP16, literal(-7)))
          CFI ?BRET_EXT load(1, XDATA, add(CFA_XSP16, literal(-3)))
          CFI ?RET_HIGH load(1, XDATA, add(CFA_XSP16, literal(-4)))
          CFI ?RET_LOW load(1, XDATA, add(CFA_XSP16, literal(-5)))
        MOV       R7,#0xc
        LJMP      ?BANKED_LEAVE_XDATA
          CFI EndBlock cfiBlock140

        RSEG BANKED_CODE:HUGECODE:NOROOT(0)
?Subroutine33:
          CFI Block cfiCond141 Using cfiCommon0
          CFI Function AT_zclCtrl_REpCtrl_rsp
          CFI Conditional ??CrossCallReturnLabel_54
          CFI R6 load(1, XDATA, add(CFA_XSP16, literal(-10)))
          CFI VB load(1, XDATA, add(CFA_XSP16, literal(-9)))
          CFI V0 load(1, XDATA, add(CFA_XSP16, literal(-8)))
          CFI V1 load(1, XDATA, add(CFA_XSP16, literal(-7)))
          CFI R7 load(1, XDATA, add(CFA_XSP16, literal(-6)))
          CFI ?RET_LOW load(1, XDATA, add(CFA_XSP16, literal(-5)))
          CFI ?RET_HIGH load(1, XDATA, add(CFA_XSP16, literal(-4)))
          CFI ?BRET_EXT load(1, XDATA, add(CFA_XSP16, literal(-3)))
          CFI DPL0 load(1, XDATA, add(CFA_XSP16, literal(-2)))
          CFI DPH0 load(1, XDATA, add(CFA_XSP16, literal(-1)))
          CFI CFA_SP SP+-2
          CFI CFA_XSP16 add(XSP16, 13)
          CFI Block cfiCond142 Using cfiCommon0
          CFI (cfiCond142) Function zclController_ProcessInReadReportCfgRspCmd
          CFI (cfiCond142) Conditional ??CrossCallReturnLabel_55
          CFI (cfiCond142) R6 load(1, XDATA, add(CFA_XSP16, literal(-20)))
          CFI (cfiCond142) VB load(1, XDATA, add(CFA_XSP16, literal(-19)))
          CFI (cfiCond142) V0 load(1, XDATA, add(CFA_XSP16, literal(-18)))
          CFI (cfiCond142) V1 load(1, XDATA, add(CFA_XSP16, literal(-17)))
          CFI (cfiCond142) V2 load(1, XDATA, add(CFA_XSP16, literal(-16)))
          CFI (cfiCond142) V3 load(1, XDATA, add(CFA_XSP16, literal(-15)))
          CFI (cfiCond142) V4 load(1, XDATA, add(CFA_XSP16, literal(-14)))
          CFI (cfiCond142) V5 load(1, XDATA, add(CFA_XSP16, literal(-13)))
          CFI (cfiCond142) V6 load(1, XDATA, add(CFA_XSP16, literal(-12)))
          CFI (cfiCond142) V7 load(1, XDATA, add(CFA_XSP16, literal(-11)))
          CFI (cfiCond142) V8 load(1, XDATA, add(CFA_XSP16, literal(-10)))
          CFI (cfiCond142) V9 load(1, XDATA, add(CFA_XSP16, literal(-9)))
          CFI (cfiCond142) V10 load(1, XDATA, add(CFA_XSP16, literal(-8)))
          CFI (cfiCond142) V11 load(1, XDATA, add(CFA_XSP16, literal(-7)))
          CFI (cfiCond142) R7 load(1, XDATA, add(CFA_XSP16, literal(-6)))
          CFI (cfiCond142) ?RET_LOW load(1, XDATA, add(CFA_XSP16, literal(-5)))
          CFI (cfiCond142) ?RET_HIGH load(1, XDATA, add(CFA_XSP16, literal(-4)))
          CFI (cfiCond142) ?BRET_EXT load(1, XDATA, add(CFA_XSP16, literal(-3)))
          CFI (cfiCond142) DPL0 load(1, XDATA, add(CFA_XSP16, literal(-2)))
          CFI (cfiCond142) DPH0 load(1, XDATA, add(CFA_XSP16, literal(-1)))
          CFI (cfiCond142) CFA_SP SP+-2
          CFI (cfiCond142) CFA_XSP16 add(XSP16, 20)
          CFI Block cfiCond143 Using cfiCommon0
          CFI (cfiCond143) Function zclController_ProcessInDiscAttrsRspCmd
          CFI (cfiCond143) Conditional ??CrossCallReturnLabel_55
          CFI (cfiCond143) R6 load(1, XDATA, add(CFA_XSP16, literal(-20)))
          CFI (cfiCond143) VB load(1, XDATA, add(CFA_XSP16, literal(-19)))
          CFI (cfiCond143) V0 load(1, XDATA, add(CFA_XSP16, literal(-18)))
          CFI (cfiCond143) V1 load(1, XDATA, add(CFA_XSP16, literal(-17)))
          CFI (cfiCond143) V2 load(1, XDATA, add(CFA_XSP16, literal(-16)))
          CFI (cfiCond143) V3 load(1, XDATA, add(CFA_XSP16, literal(-15)))
          CFI (cfiCond143) V4 load(1, XDATA, add(CFA_XSP16, literal(-14)))
          CFI (cfiCond143) V5 load(1, XDATA, add(CFA_XSP16, literal(-13)))
          CFI (cfiCond143) V6 load(1, XDATA, add(CFA_XSP16, literal(-12)))
          CFI (cfiCond143) V7 load(1, XDATA, add(CFA_XSP16, literal(-11)))
          CFI (cfiCond143) V8 load(1, XDATA, add(CFA_XSP16, literal(-10)))
          CFI (cfiCond143) V9 load(1, XDATA, add(CFA_XSP16, literal(-9)))
          CFI (cfiCond143) V10 load(1, XDATA, add(CFA_XSP16, literal(-8)))
          CFI (cfiCond143) V11 load(1, XDATA, add(CFA_XSP16, literal(-7)))
          CFI (cfiCond143) R7 load(1, XDATA, add(CFA_XSP16, literal(-6)))
          CFI (cfiCond143) ?RET_LOW load(1, XDATA, add(CFA_XSP16, literal(-5)))
          CFI (cfiCond143) ?RET_HIGH load(1, XDATA, add(CFA_XSP16, literal(-4)))
          CFI (cfiCond143) ?BRET_EXT load(1, XDATA, add(CFA_XSP16, literal(-3)))
          CFI (cfiCond143) DPL0 load(1, XDATA, add(CFA_XSP16, literal(-2)))
          CFI (cfiCond143) DPH0 load(1, XDATA, add(CFA_XSP16, literal(-1)))
          CFI (cfiCond143) CFA_SP SP+-2
          CFI (cfiCond143) CFA_XSP16 add(XSP16, 20)
          CFI Block cfiPicker144 Using cfiCommon1
          CFI (cfiPicker144) NoFunction
          CFI (cfiPicker144) Picker
        LCALL     ?Subroutine53 & 0xFFFF
??CrossCallReturnLabel_97:
        MOV       R2,#`?<Constant "\\r\\n">` & 0xff
        MOV       R3,#(`?<Constant "\\r\\n">` >> 8) & 0xff
        LCALL     `??AT_Uart0_Send::?relay`; Banked call to: AT_Uart0_Send
        RET
          CFI EndBlock cfiCond141
          CFI EndBlock cfiCond142
          CFI EndBlock cfiCond143
          CFI EndBlock cfiPicker144

        RSEG BANKED_CODE:HUGECODE:NOROOT(0)
?Subroutine53:
          CFI Block cfiCond145 Using cfiCommon0
          CFI Function zclController_ProcessInReadRspCmd
          CFI Conditional ??CrossCallReturnLabel_96, ??CrossCallReturnLabel_84
          CFI R6 load(1, XDATA, add(CFA_XSP16, literal(-22)))
          CFI VB load(1, XDATA, add(CFA_XSP16, literal(-21)))
          CFI V0 load(1, XDATA, add(CFA_XSP16, literal(-20)))
          CFI V1 load(1, XDATA, add(CFA_XSP16, literal(-19)))
          CFI V2 load(1, XDATA, add(CFA_XSP16, literal(-18)))
          CFI V3 load(1, XDATA, add(CFA_XSP16, literal(-17)))
          CFI V4 load(1, XDATA, add(CFA_XSP16, literal(-16)))
          CFI V5 load(1, XDATA, add(CFA_XSP16, literal(-15)))
          CFI V6 load(1, XDATA, add(CFA_XSP16, literal(-14)))
          CFI V7 load(1, XDATA, add(CFA_XSP16, literal(-13)))
          CFI V8 load(1, XDATA, add(CFA_XSP16, literal(-12)))
          CFI V9 load(1, XDATA, add(CFA_XSP16, literal(-11)))
          CFI V10 load(1, XDATA, add(CFA_XSP16, literal(-10)))
          CFI V11 load(1, XDATA, add(CFA_XSP16, literal(-9)))
          CFI V12 load(1, XDATA, add(CFA_XSP16, literal(-8)))
          CFI V13 load(1, XDATA, add(CFA_XSP16, literal(-7)))
          CFI R7 load(1, XDATA, add(CFA_XSP16, literal(-6)))
          CFI ?RET_LOW load(1, XDATA, add(CFA_XSP16, literal(-5)))
          CFI ?RET_HIGH load(1, XDATA, add(CFA_XSP16, literal(-4)))
          CFI ?BRET_EXT load(1, XDATA, add(CFA_XSP16, literal(-3)))
          CFI DPL0 load(1, XDATA, add(CFA_XSP16, literal(-2)))
          CFI DPH0 load(1, XDATA, add(CFA_XSP16, literal(-1)))
          CFI CFA_SP SP+-4
          CFI CFA_XSP16 add(XSP16, 39)
          CFI Block cfiCond146 Using cfiCommon0
          CFI (cfiCond146) Function zclController_ProcessInReadRspCmd
          CFI (cfiCond146) Conditional ??CrossCallReturnLabel_96, ??CrossCallReturnLabel_85, ??CrossCallReturnLabel_52
          CFI (cfiCond146) R6 load(1, XDATA, add(CFA_XSP16, literal(-22)))
          CFI (cfiCond146) VB load(1, XDATA, add(CFA_XSP16, literal(-21)))
          CFI (cfiCond146) V0 load(1, XDATA, add(CFA_XSP16, literal(-20)))
          CFI (cfiCond146) V1 load(1, XDATA, add(CFA_XSP16, literal(-19)))
          CFI (cfiCond146) V2 load(1, XDATA, add(CFA_XSP16, literal(-18)))
          CFI (cfiCond146) V3 load(1, XDATA, add(CFA_XSP16, literal(-17)))
          CFI (cfiCond146) V4 load(1, XDATA, add(CFA_XSP16, literal(-16)))
          CFI (cfiCond146) V5 load(1, XDATA, add(CFA_XSP16, literal(-15)))
          CFI (cfiCond146) V6 load(1, XDATA, add(CFA_XSP16, literal(-14)))
          CFI (cfiCond146) V7 load(1, XDATA, add(CFA_XSP16, literal(-13)))
          CFI (cfiCond146) V8 load(1, XDATA, add(CFA_XSP16, literal(-12)))
          CFI (cfiCond146) V9 load(1, XDATA, add(CFA_XSP16, literal(-11)))
          CFI (cfiCond146) V10 load(1, XDATA, add(CFA_XSP16, literal(-10)))
          CFI (cfiCond146) V11 load(1, XDATA, add(CFA_XSP16, literal(-9)))
          CFI (cfiCond146) V12 load(1, XDATA, add(CFA_XSP16, literal(-8)))
          CFI (cfiCond146) V13 load(1, XDATA, add(CFA_XSP16, literal(-7)))
          CFI (cfiCond146) R7 load(1, XDATA, add(CFA_XSP16, literal(-6)))
          CFI (cfiCond146) ?RET_LOW load(1, XDATA, add(CFA_XSP16, literal(-5)))
          CFI (cfiCond146) ?RET_HIGH load(1, XDATA, add(CFA_XSP16, literal(-4)))
          CFI (cfiCond146) ?BRET_EXT load(1, XDATA, add(CFA_XSP16, literal(-3)))
          CFI (cfiCond146) DPL0 load(1, XDATA, add(CFA_XSP16, literal(-2)))
          CFI (cfiCond146) DPH0 load(1, XDATA, add(CFA_XSP16, literal(-1)))
          CFI (cfiCond146) CFA_SP SP+-6
          CFI (cfiCond146) CFA_XSP16 add(XSP16, 39)
          CFI Block cfiCond147 Using cfiCommon0
          CFI (cfiCond147) Function zclController_ProcessInWriteRspCmd
          CFI (cfiCond147) Conditional ??CrossCallReturnLabel_96, ??CrossCallReturnLabel_85, ??CrossCallReturnLabel_53
          CFI (cfiCond147) R6 load(1, XDATA, add(CFA_XSP16, literal(-22)))
          CFI (cfiCond147) VB load(1, XDATA, add(CFA_XSP16, literal(-21)))
          CFI (cfiCond147) V0 load(1, XDATA, add(CFA_XSP16, literal(-20)))
          CFI (cfiCond147) V1 load(1, XDATA, add(CFA_XSP16, literal(-19)))
          CFI (cfiCond147) V2 load(1, XDATA, add(CFA_XSP16, literal(-18)))
          CFI (cfiCond147) V3 load(1, XDATA, add(CFA_XSP16, literal(-17)))
          CFI (cfiCond147) V4 load(1, XDATA, add(CFA_XSP16, literal(-16)))
          CFI (cfiCond147) V5 load(1, XDATA, add(CFA_XSP16, literal(-15)))
          CFI (cfiCond147) V6 load(1, XDATA, add(CFA_XSP16, literal(-14)))
          CFI (cfiCond147) V7 load(1, XDATA, add(CFA_XSP16, literal(-13)))
          CFI (cfiCond147) V8 load(1, XDATA, add(CFA_XSP16, literal(-12)))
          CFI (cfiCond147) V9 load(1, XDATA, add(CFA_XSP16, literal(-11)))
          CFI (cfiCond147) V10 load(1, XDATA, add(CFA_XSP16, literal(-10)))
          CFI (cfiCond147) V11 load(1, XDATA, add(CFA_XSP16, literal(-9)))
          CFI (cfiCond147) V12 load(1, XDATA, add(CFA_XSP16, literal(-8)))
          CFI (cfiCond147) V13 load(1, XDATA, add(CFA_XSP16, literal(-7)))
          CFI (cfiCond147) R7 load(1, XDATA, add(CFA_XSP16, literal(-6)))
          CFI (cfiCond147) ?RET_LOW load(1, XDATA, add(CFA_XSP16, literal(-5)))
          CFI (cfiCond147) ?RET_HIGH load(1, XDATA, add(CFA_XSP16, literal(-4)))
          CFI (cfiCond147) ?BRET_EXT load(1, XDATA, add(CFA_XSP16, literal(-3)))
          CFI (cfiCond147) DPL0 load(1, XDATA, add(CFA_XSP16, literal(-2)))
          CFI (cfiCond147) DPH0 load(1, XDATA, add(CFA_XSP16, literal(-1)))
          CFI (cfiCond147) CFA_SP SP+-6
          CFI (cfiCond147) CFA_XSP16 add(XSP16, 39)
          CFI Block cfiCond148 Using cfiCommon0
          CFI (cfiCond148) Function AT_zclCtrl_REpCtrl_rsp
          CFI (cfiCond148) Conditional ??CrossCallReturnLabel_97, ??CrossCallReturnLabel_54
          CFI (cfiCond148) R6 load(1, XDATA, add(CFA_XSP16, literal(-10)))
          CFI (cfiCond148) VB load(1, XDATA, add(CFA_XSP16, literal(-9)))
          CFI (cfiCond148) V0 load(1, XDATA, add(CFA_XSP16, literal(-8)))
          CFI (cfiCond148) V1 load(1, XDATA, add(CFA_XSP16, literal(-7)))
          CFI (cfiCond148) R7 load(1, XDATA, add(CFA_XSP16, literal(-6)))
          CFI (cfiCond148) ?RET_LOW load(1, XDATA, add(CFA_XSP16, literal(-5)))
          CFI (cfiCond148) ?RET_HIGH load(1, XDATA, add(CFA_XSP16, literal(-4)))
          CFI (cfiCond148) ?BRET_EXT load(1, XDATA, add(CFA_XSP16, literal(-3)))
          CFI (cfiCond148) DPL0 load(1, XDATA, add(CFA_XSP16, literal(-2)))
          CFI (cfiCond148) DPH0 load(1, XDATA, add(CFA_XSP16, literal(-1)))
          CFI (cfiCond148) CFA_SP SP+-4
          CFI (cfiCond148) CFA_XSP16 add(XSP16, 13)
          CFI Block cfiCond149 Using cfiCommon0
          CFI (cfiCond149) Function zclController_ProcessInReadReportCfgRspCmd
          CFI (cfiCond149) Conditional ??CrossCallReturnLabel_97, ??CrossCallReturnLabel_55
          CFI (cfiCond149) R6 load(1, XDATA, add(CFA_XSP16, literal(-20)))
          CFI (cfiCond149) VB load(1, XDATA, add(CFA_XSP16, literal(-19)))
          CFI (cfiCond149) V0 load(1, XDATA, add(CFA_XSP16, literal(-18)))
          CFI (cfiCond149) V1 load(1, XDATA, add(CFA_XSP16, literal(-17)))
          CFI (cfiCond149) V2 load(1, XDATA, add(CFA_XSP16, literal(-16)))
          CFI (cfiCond149) V3 load(1, XDATA, add(CFA_XSP16, literal(-15)))
          CFI (cfiCond149) V4 load(1, XDATA, add(CFA_XSP16, literal(-14)))
          CFI (cfiCond149) V5 load(1, XDATA, add(CFA_XSP16, literal(-13)))
          CFI (cfiCond149) V6 load(1, XDATA, add(CFA_XSP16, literal(-12)))
          CFI (cfiCond149) V7 load(1, XDATA, add(CFA_XSP16, literal(-11)))
          CFI (cfiCond149) V8 load(1, XDATA, add(CFA_XSP16, literal(-10)))
          CFI (cfiCond149) V9 load(1, XDATA, add(CFA_XSP16, literal(-9)))
          CFI (cfiCond149) V10 load(1, XDATA, add(CFA_XSP16, literal(-8)))
          CFI (cfiCond149) V11 load(1, XDATA, add(CFA_XSP16, literal(-7)))
          CFI (cfiCond149) R7 load(1, XDATA, add(CFA_XSP16, literal(-6)))
          CFI (cfiCond149) ?RET_LOW load(1, XDATA, add(CFA_XSP16, literal(-5)))
          CFI (cfiCond149) ?RET_HIGH load(1, XDATA, add(CFA_XSP16, literal(-4)))
          CFI (cfiCond149) ?BRET_EXT load(1, XDATA, add(CFA_XSP16, literal(-3)))
          CFI (cfiCond149) DPL0 load(1, XDATA, add(CFA_XSP16, literal(-2)))
          CFI (cfiCond149) DPH0 load(1, XDATA, add(CFA_XSP16, literal(-1)))
          CFI (cfiCond149) CFA_SP SP+-4
          CFI (cfiCond149) CFA_XSP16 add(XSP16, 20)
          CFI Block cfiCond150 Using cfiCommon0
          CFI (cfiCond150) Function zclController_ProcessInDiscAttrsRspCmd
          CFI (cfiCond150) Conditional ??CrossCallReturnLabel_97, ??CrossCallReturnLabel_55
          CFI (cfiCond150) R6 load(1, XDATA, add(CFA_XSP16, literal(-20)))
          CFI (cfiCond150) VB load(1, XDATA, add(CFA_XSP16, literal(-19)))
          CFI (cfiCond150) V0 load(1, XDATA, add(CFA_XSP16, literal(-18)))
          CFI (cfiCond150) V1 load(1, XDATA, add(CFA_XSP16, literal(-17)))
          CFI (cfiCond150) V2 load(1, XDATA, add(CFA_XSP16, literal(-16)))
          CFI (cfiCond150) V3 load(1, XDATA, add(CFA_XSP16, literal(-15)))
          CFI (cfiCond150) V4 load(1, XDATA, add(CFA_XSP16, literal(-14)))
          CFI (cfiCond150) V5 load(1, XDATA, add(CFA_XSP16, literal(-13)))
          CFI (cfiCond150) V6 load(1, XDATA, add(CFA_XSP16, literal(-12)))
          CFI (cfiCond150) V7 load(1, XDATA, add(CFA_XSP16, literal(-11)))
          CFI (cfiCond150) V8 load(1, XDATA, add(CFA_XSP16, literal(-10)))
          CFI (cfiCond150) V9 load(1, XDATA, add(CFA_XSP16, literal(-9)))
          CFI (cfiCond150) V10 load(1, XDATA, add(CFA_XSP16, literal(-8)))
          CFI (cfiCond150) V11 load(1, XDATA, add(CFA_XSP16, literal(-7)))
          CFI (cfiCond150) R7 load(1, XDATA, add(CFA_XSP16, literal(-6)))
          CFI (cfiCond150) ?RET_LOW load(1, XDATA, add(CFA_XSP16, literal(-5)))
          CFI (cfiCond150) ?RET_HIGH load(1, XDATA, add(CFA_XSP16, literal(-4)))
          CFI (cfiCond150) ?BRET_EXT load(1, XDATA, add(CFA_XSP16, literal(-3)))
          CFI (cfiCond150) DPL0 load(1, XDATA, add(CFA_XSP16, literal(-2)))
          CFI (cfiCond150) DPH0 load(1, XDATA, add(CFA_XSP16, literal(-1)))
          CFI (cfiCond150) CFA_SP SP+-4
          CFI (cfiCond150) CFA_XSP16 add(XSP16, 20)
          CFI Block cfiCond151 Using cfiCommon0
          CFI (cfiCond151) Function zclController_ProcessInReportCmd
          CFI (cfiCond151) Conditional ??CrossCallReturnLabel_98, ??CrossCallReturnLabel_56
          CFI (cfiCond151) R6 load(1, XDATA, add(CFA_XSP16, literal(-18)))
          CFI (cfiCond151) VB load(1, XDATA, add(CFA_XSP16, literal(-17)))
          CFI (cfiCond151) V0 load(1, XDATA, add(CFA_XSP16, literal(-16)))
          CFI (cfiCond151) V1 load(1, XDATA, add(CFA_XSP16, literal(-15)))
          CFI (cfiCond151) V2 load(1, XDATA, add(CFA_XSP16, literal(-14)))
          CFI (cfiCond151) V3 load(1, XDATA, add(CFA_XSP16, literal(-13)))
          CFI (cfiCond151) V4 load(1, XDATA, add(CFA_XSP16, literal(-12)))
          CFI (cfiCond151) V5 load(1, XDATA, add(CFA_XSP16, literal(-11)))
          CFI (cfiCond151) V6 load(1, XDATA, add(CFA_XSP16, literal(-10)))
          CFI (cfiCond151) V7 load(1, XDATA, add(CFA_XSP16, literal(-9)))
          CFI (cfiCond151) V8 load(1, XDATA, add(CFA_XSP16, literal(-8)))
          CFI (cfiCond151) V9 load(1, XDATA, add(CFA_XSP16, literal(-7)))
          CFI (cfiCond151) R7 load(1, XDATA, add(CFA_XSP16, literal(-6)))
          CFI (cfiCond151) ?RET_LOW load(1, XDATA, add(CFA_XSP16, literal(-5)))
          CFI (cfiCond151) ?RET_HIGH load(1, XDATA, add(CFA_XSP16, literal(-4)))
          CFI (cfiCond151) ?BRET_EXT load(1, XDATA, add(CFA_XSP16, literal(-3)))
          CFI (cfiCond151) DPL0 load(1, XDATA, add(CFA_XSP16, literal(-2)))
          CFI (cfiCond151) DPH0 load(1, XDATA, add(CFA_XSP16, literal(-1)))
          CFI (cfiCond151) CFA_SP SP+-4
          CFI (cfiCond151) CFA_XSP16 add(XSP16, 35)
          CFI Block cfiCond152 Using cfiCommon0
          CFI (cfiCond152) Function zclController_ProcessInReportCmd
          CFI (cfiCond152) Conditional ??CrossCallReturnLabel_98, ??CrossCallReturnLabel_57
          CFI (cfiCond152) R6 load(1, XDATA, add(CFA_XSP16, literal(-18)))
          CFI (cfiCond152) VB load(1, XDATA, add(CFA_XSP16, literal(-17)))
          CFI (cfiCond152) V0 load(1, XDATA, add(CFA_XSP16, literal(-16)))
          CFI (cfiCond152) V1 load(1, XDATA, add(CFA_XSP16, literal(-15)))
          CFI (cfiCond152) V2 load(1, XDATA, add(CFA_XSP16, literal(-14)))
          CFI (cfiCond152) V3 load(1, XDATA, add(CFA_XSP16, literal(-13)))
          CFI (cfiCond152) V4 load(1, XDATA, add(CFA_XSP16, literal(-12)))
          CFI (cfiCond152) V5 load(1, XDATA, add(CFA_XSP16, literal(-11)))
          CFI (cfiCond152) V6 load(1, XDATA, add(CFA_XSP16, literal(-10)))
          CFI (cfiCond152) V7 load(1, XDATA, add(CFA_XSP16, literal(-9)))
          CFI (cfiCond152) V8 load(1, XDATA, add(CFA_XSP16, literal(-8)))
          CFI (cfiCond152) V9 load(1, XDATA, add(CFA_XSP16, literal(-7)))
          CFI (cfiCond152) R7 load(1, XDATA, add(CFA_XSP16, literal(-6)))
          CFI (cfiCond152) ?RET_LOW load(1, XDATA, add(CFA_XSP16, literal(-5)))
          CFI (cfiCond152) ?RET_HIGH load(1, XDATA, add(CFA_XSP16, literal(-4)))
          CFI (cfiCond152) ?BRET_EXT load(1, XDATA, add(CFA_XSP16, literal(-3)))
          CFI (cfiCond152) DPL0 load(1, XDATA, add(CFA_XSP16, literal(-2)))
          CFI (cfiCond152) DPH0 load(1, XDATA, add(CFA_XSP16, literal(-1)))
          CFI (cfiCond152) CFA_SP SP+-4
          CFI (cfiCond152) CFA_XSP16 add(XSP16, 35)
          CFI Block cfiPicker153 Using cfiCommon1
          CFI (cfiPicker153) NoFunction
          CFI (cfiPicker153) Picker
        LCALL     `??AT_Uart0_Send::?relay`; Banked call to: AT_Uart0_Send
        ; Setup parameters for call to function AT_Uart0_Send
        ; Setup parameters for call to function AT_Uart0_Send
        ; Setup parameters for call to function AT_Uart0_Send
        ; Setup parameters for call to function AT_Uart0_Send
        ; Setup parameters for call to function AT_Uart0_Send
        ; Setup parameters for call to function AT_Uart0_Send
        ; Setup parameters for call to function AT_Uart0_Send
        ; Setup parameters for call to function AT_Uart0_Send
        MOV       R4,#0x2
        MOV       R5,#0x0
        RET
          CFI EndBlock cfiCond145
          CFI EndBlock cfiCond146
          CFI EndBlock cfiCond147
          CFI EndBlock cfiCond148
          CFI EndBlock cfiCond149
          CFI EndBlock cfiCond150
          CFI EndBlock cfiCond151
          CFI EndBlock cfiCond152
          CFI EndBlock cfiPicker153

        RSEG BANKED_CODE:HUGECODE:NOROOT(0)
?Subroutine30:
          CFI Block cfiCond154 Using cfiCommon0
          CFI Function AT_zclCtrl_REpCtrl_req
          CFI Conditional ??CrossCallReturnLabel_44
          CFI R6 load(1, XDATA, add(CFA_XSP16, literal(-14)))
          CFI VB load(1, XDATA, add(CFA_XSP16, literal(-13)))
          CFI V0 load(1, XDATA, add(CFA_XSP16, literal(-12)))
          CFI V1 load(1, XDATA, add(CFA_XSP16, literal(-11)))
          CFI V2 load(1, XDATA, add(CFA_XSP16, literal(-10)))
          CFI V3 load(1, XDATA, add(CFA_XSP16, literal(-9)))
          CFI V4 load(1, XDATA, add(CFA_XSP16, literal(-8)))
          CFI V5 load(1, XDATA, add(CFA_XSP16, literal(-7)))
          CFI R7 load(1, XDATA, add(CFA_XSP16, literal(-6)))
          CFI ?RET_LOW load(1, XDATA, add(CFA_XSP16, literal(-5)))
          CFI ?RET_HIGH load(1, XDATA, add(CFA_XSP16, literal(-4)))
          CFI ?BRET_EXT load(1, XDATA, add(CFA_XSP16, literal(-3)))
          CFI DPL0 load(1, XDATA, add(CFA_XSP16, literal(-2)))
          CFI DPH0 load(1, XDATA, add(CFA_XSP16, literal(-1)))
          CFI CFA_SP SP+-2
          CFI CFA_XSP16 add(XSP16, 14)
          CFI Block cfiCond155 Using cfiCommon0
          CFI (cfiCond155) Function zclController_ProcessInReadRspCmd
          CFI (cfiCond155) Conditional ??CrossCallReturnLabel_45
          CFI (cfiCond155) R6 load(1, XDATA, add(CFA_XSP16, literal(-22)))
          CFI (cfiCond155) VB load(1, XDATA, add(CFA_XSP16, literal(-21)))
          CFI (cfiCond155) V0 load(1, XDATA, add(CFA_XSP16, literal(-20)))
          CFI (cfiCond155) V1 load(1, XDATA, add(CFA_XSP16, literal(-19)))
          CFI (cfiCond155) V2 load(1, XDATA, add(CFA_XSP16, literal(-18)))
          CFI (cfiCond155) V3 load(1, XDATA, add(CFA_XSP16, literal(-17)))
          CFI (cfiCond155) V4 load(1, XDATA, add(CFA_XSP16, literal(-16)))
          CFI (cfiCond155) V5 load(1, XDATA, add(CFA_XSP16, literal(-15)))
          CFI (cfiCond155) V6 load(1, XDATA, add(CFA_XSP16, literal(-14)))
          CFI (cfiCond155) V7 load(1, XDATA, add(CFA_XSP16, literal(-13)))
          CFI (cfiCond155) V8 load(1, XDATA, add(CFA_XSP16, literal(-12)))
          CFI (cfiCond155) V9 load(1, XDATA, add(CFA_XSP16, literal(-11)))
          CFI (cfiCond155) V10 load(1, XDATA, add(CFA_XSP16, literal(-10)))
          CFI (cfiCond155) V11 load(1, XDATA, add(CFA_XSP16, literal(-9)))
          CFI (cfiCond155) V12 load(1, XDATA, add(CFA_XSP16, literal(-8)))
          CFI (cfiCond155) V13 load(1, XDATA, add(CFA_XSP16, literal(-7)))
          CFI (cfiCond155) R7 load(1, XDATA, add(CFA_XSP16, literal(-6)))
          CFI (cfiCond155) ?RET_LOW load(1, XDATA, add(CFA_XSP16, literal(-5)))
          CFI (cfiCond155) ?RET_HIGH load(1, XDATA, add(CFA_XSP16, literal(-4)))
          CFI (cfiCond155) ?BRET_EXT load(1, XDATA, add(CFA_XSP16, literal(-3)))
          CFI (cfiCond155) DPL0 load(1, XDATA, add(CFA_XSP16, literal(-2)))
          CFI (cfiCond155) DPH0 load(1, XDATA, add(CFA_XSP16, literal(-1)))
          CFI (cfiCond155) CFA_SP SP+-2
          CFI (cfiCond155) CFA_XSP16 add(XSP16, 39)
          CFI Block cfiCond156 Using cfiCommon0
          CFI (cfiCond156) Function zclController_ProcessInReadReportCfgRspCmd
          CFI (cfiCond156) Conditional ??CrossCallReturnLabel_46
          CFI (cfiCond156) R6 load(1, XDATA, add(CFA_XSP16, literal(-20)))
          CFI (cfiCond156) VB load(1, XDATA, add(CFA_XSP16, literal(-19)))
          CFI (cfiCond156) V0 load(1, XDATA, add(CFA_XSP16, literal(-18)))
          CFI (cfiCond156) V1 load(1, XDATA, add(CFA_XSP16, literal(-17)))
          CFI (cfiCond156) V2 load(1, XDATA, add(CFA_XSP16, literal(-16)))
          CFI (cfiCond156) V3 load(1, XDATA, add(CFA_XSP16, literal(-15)))
          CFI (cfiCond156) V4 load(1, XDATA, add(CFA_XSP16, literal(-14)))
          CFI (cfiCond156) V5 load(1, XDATA, add(CFA_XSP16, literal(-13)))
          CFI (cfiCond156) V6 load(1, XDATA, add(CFA_XSP16, literal(-12)))
          CFI (cfiCond156) V7 load(1, XDATA, add(CFA_XSP16, literal(-11)))
          CFI (cfiCond156) V8 load(1, XDATA, add(CFA_XSP16, literal(-10)))
          CFI (cfiCond156) V9 load(1, XDATA, add(CFA_XSP16, literal(-9)))
          CFI (cfiCond156) V10 load(1, XDATA, add(CFA_XSP16, literal(-8)))
          CFI (cfiCond156) V11 load(1, XDATA, add(CFA_XSP16, literal(-7)))
          CFI (cfiCond156) R7 load(1, XDATA, add(CFA_XSP16, literal(-6)))
          CFI (cfiCond156) ?RET_LOW load(1, XDATA, add(CFA_XSP16, literal(-5)))
          CFI (cfiCond156) ?RET_HIGH load(1, XDATA, add(CFA_XSP16, literal(-4)))
          CFI (cfiCond156) ?BRET_EXT load(1, XDATA, add(CFA_XSP16, literal(-3)))
          CFI (cfiCond156) DPL0 load(1, XDATA, add(CFA_XSP16, literal(-2)))
          CFI (cfiCond156) DPH0 load(1, XDATA, add(CFA_XSP16, literal(-1)))
          CFI (cfiCond156) CFA_SP SP+-2
          CFI (cfiCond156) CFA_XSP16 add(XSP16, 20)
          CFI Block cfiCond157 Using cfiCommon0
          CFI (cfiCond157) Function zclController_ProcessInReportCmd
          CFI (cfiCond157) Conditional ??CrossCallReturnLabel_47
          CFI (cfiCond157) R6 load(1, XDATA, add(CFA_XSP16, literal(-18)))
          CFI (cfiCond157) VB load(1, XDATA, add(CFA_XSP16, literal(-17)))
          CFI (cfiCond157) V0 load(1, XDATA, add(CFA_XSP16, literal(-16)))
          CFI (cfiCond157) V1 load(1, XDATA, add(CFA_XSP16, literal(-15)))
          CFI (cfiCond157) V2 load(1, XDATA, add(CFA_XSP16, literal(-14)))
          CFI (cfiCond157) V3 load(1, XDATA, add(CFA_XSP16, literal(-13)))
          CFI (cfiCond157) V4 load(1, XDATA, add(CFA_XSP16, literal(-12)))
          CFI (cfiCond157) V5 load(1, XDATA, add(CFA_XSP16, literal(-11)))
          CFI (cfiCond157) V6 load(1, XDATA, add(CFA_XSP16, literal(-10)))
          CFI (cfiCond157) V7 load(1, XDATA, add(CFA_XSP16, literal(-9)))
          CFI (cfiCond157) V8 load(1, XDATA, add(CFA_XSP16, literal(-8)))
          CFI (cfiCond157) V9 load(1, XDATA, add(CFA_XSP16, literal(-7)))
          CFI (cfiCond157) R7 load(1, XDATA, add(CFA_XSP16, literal(-6)))
          CFI (cfiCond157) ?RET_LOW load(1, XDATA, add(CFA_XSP16, literal(-5)))
          CFI (cfiCond157) ?RET_HIGH load(1, XDATA, add(CFA_XSP16, literal(-4)))
          CFI (cfiCond157) ?BRET_EXT load(1, XDATA, add(CFA_XSP16, literal(-3)))
          CFI (cfiCond157) DPL0 load(1, XDATA, add(CFA_XSP16, literal(-2)))
          CFI (cfiCond157) DPH0 load(1, XDATA, add(CFA_XSP16, literal(-1)))
          CFI (cfiCond157) CFA_SP SP+-2
          CFI (cfiCond157) CFA_XSP16 add(XSP16, 35)
          CFI Block cfiCond158 Using cfiCommon0
          CFI (cfiCond158) Function zclController_ProcessInReportCmd
          CFI (cfiCond158) Conditional ??CrossCallReturnLabel_48
          CFI (cfiCond158) R6 load(1, XDATA, add(CFA_XSP16, literal(-18)))
          CFI (cfiCond158) VB load(1, XDATA, add(CFA_XSP16, literal(-17)))
          CFI (cfiCond158) V0 load(1, XDATA, add(CFA_XSP16, literal(-16)))
          CFI (cfiCond158) V1 load(1, XDATA, add(CFA_XSP16, literal(-15)))
          CFI (cfiCond158) V2 load(1, XDATA, add(CFA_XSP16, literal(-14)))
          CFI (cfiCond158) V3 load(1, XDATA, add(CFA_XSP16, literal(-13)))
          CFI (cfiCond158) V4 load(1, XDATA, add(CFA_XSP16, literal(-12)))
          CFI (cfiCond158) V5 load(1, XDATA, add(CFA_XSP16, literal(-11)))
          CFI (cfiCond158) V6 load(1, XDATA, add(CFA_XSP16, literal(-10)))
          CFI (cfiCond158) V7 load(1, XDATA, add(CFA_XSP16, literal(-9)))
          CFI (cfiCond158) V8 load(1, XDATA, add(CFA_XSP16, literal(-8)))
          CFI (cfiCond158) V9 load(1, XDATA, add(CFA_XSP16, literal(-7)))
          CFI (cfiCond158) R7 load(1, XDATA, add(CFA_XSP16, literal(-6)))
          CFI (cfiCond158) ?RET_LOW load(1, XDATA, add(CFA_XSP16, literal(-5)))
          CFI (cfiCond158) ?RET_HIGH load(1, XDATA, add(CFA_XSP16, literal(-4)))
          CFI (cfiCond158) ?BRET_EXT load(1, XDATA, add(CFA_XSP16, literal(-3)))
          CFI (cfiCond158) DPL0 load(1, XDATA, add(CFA_XSP16, literal(-2)))
          CFI (cfiCond158) DPH0 load(1, XDATA, add(CFA_XSP16, literal(-1)))
          CFI (cfiCond158) CFA_SP SP+-2
          CFI (cfiCond158) CFA_XSP16 add(XSP16, 35)
          CFI Block cfiCond159 Using cfiCommon0
          CFI (cfiCond159) Function zclController_ProcessInDiscAttrsRspCmd
          CFI (cfiCond159) Conditional ??CrossCallReturnLabel_49
          CFI (cfiCond159) R6 load(1, XDATA, add(CFA_XSP16, literal(-20)))
          CFI (cfiCond159) VB load(1, XDATA, add(CFA_XSP16, literal(-19)))
          CFI (cfiCond159) V0 load(1, XDATA, add(CFA_XSP16, literal(-18)))
          CFI (cfiCond159) V1 load(1, XDATA, add(CFA_XSP16, literal(-17)))
          CFI (cfiCond159) V2 load(1, XDATA, add(CFA_XSP16, literal(-16)))
          CFI (cfiCond159) V3 load(1, XDATA, add(CFA_XSP16, literal(-15)))
          CFI (cfiCond159) V4 load(1, XDATA, add(CFA_XSP16, literal(-14)))
          CFI (cfiCond159) V5 load(1, XDATA, add(CFA_XSP16, literal(-13)))
          CFI (cfiCond159) V6 load(1, XDATA, add(CFA_XSP16, literal(-12)))
          CFI (cfiCond159) V7 load(1, XDATA, add(CFA_XSP16, literal(-11)))
          CFI (cfiCond159) V8 load(1, XDATA, add(CFA_XSP16, literal(-10)))
          CFI (cfiCond159) V9 load(1, XDATA, add(CFA_XSP16, literal(-9)))
          CFI (cfiCond159) V10 load(1, XDATA, add(CFA_XSP16, literal(-8)))
          CFI (cfiCond159) V11 load(1, XDATA, add(CFA_XSP16, literal(-7)))
          CFI (cfiCond159) R7 load(1, XDATA, add(CFA_XSP16, literal(-6)))
          CFI (cfiCond159) ?RET_LOW load(1, XDATA, add(CFA_XSP16, literal(-5)))
          CFI (cfiCond159) ?RET_HIGH load(1, XDATA, add(CFA_XSP16, literal(-4)))
          CFI (cfiCond159) ?BRET_EXT load(1, XDATA, add(CFA_XSP16, literal(-3)))
          CFI (cfiCond159) DPL0 load(1, XDATA, add(CFA_XSP16, literal(-2)))
          CFI (cfiCond159) DPH0 load(1, XDATA, add(CFA_XSP16, literal(-1)))
          CFI (cfiCond159) CFA_SP SP+-2
          CFI (cfiCond159) CFA_XSP16 add(XSP16, 20)
          CFI Block cfiPicker160 Using cfiCommon1
          CFI (cfiPicker160) NoFunction
          CFI (cfiPicker160) Picker
        MOV       DPL,A
        CLR       A
        ADDC      A,?V1
        MOV       DPH,A
        RET
          CFI EndBlock cfiCond154
          CFI EndBlock cfiCond155
          CFI EndBlock cfiCond156
          CFI EndBlock cfiCond157
          CFI EndBlock cfiCond158
          CFI EndBlock cfiCond159
          CFI EndBlock cfiPicker160

        RSEG BANKED_CODE:HUGECODE:NOROOT(0)
?Subroutine21:
          CFI Block cfiCond161 Using cfiCommon0
          CFI Function AT_zclController_ProcessIncomingMsg
          CFI Conditional ??CrossCallReturnLabel_26
          CFI R6 load(1, XDATA, add(CFA_XSP16, literal(-20)))
          CFI VB load(1, XDATA, add(CFA_XSP16, literal(-19)))
          CFI V0 load(1, XDATA, add(CFA_XSP16, literal(-18)))
          CFI V1 load(1, XDATA, add(CFA_XSP16, literal(-17)))
          CFI V2 load(1, XDATA, add(CFA_XSP16, literal(-16)))
          CFI V3 load(1, XDATA, add(CFA_XSP16, literal(-15)))
          CFI V4 load(1, XDATA, add(CFA_XSP16, literal(-14)))
          CFI V5 load(1, XDATA, add(CFA_XSP16, literal(-13)))
          CFI V6 load(1, XDATA, add(CFA_XSP16, literal(-12)))
          CFI V7 load(1, XDATA, add(CFA_XSP16, literal(-11)))
          CFI V8 load(1, XDATA, add(CFA_XSP16, literal(-10)))
          CFI V9 load(1, XDATA, add(CFA_XSP16, literal(-9)))
          CFI V10 load(1, XDATA, add(CFA_XSP16, literal(-8)))
          CFI V11 load(1, XDATA, add(CFA_XSP16, literal(-7)))
          CFI R7 load(1, XDATA, add(CFA_XSP16, literal(-6)))
          CFI ?RET_LOW load(1, XDATA, add(CFA_XSP16, literal(-5)))
          CFI ?RET_HIGH load(1, XDATA, add(CFA_XSP16, literal(-4)))
          CFI ?BRET_EXT load(1, XDATA, add(CFA_XSP16, literal(-3)))
          CFI DPL0 load(1, XDATA, add(CFA_XSP16, literal(-2)))
          CFI DPH0 load(1, XDATA, add(CFA_XSP16, literal(-1)))
          CFI CFA_SP SP+-2
          CFI CFA_XSP16 add(XSP16, 20)
          CFI Block cfiCond162 Using cfiCommon0
          CFI (cfiCond162) Function zclController_ProcessInReadReportCfgRspCmd
          CFI (cfiCond162) Conditional ??CrossCallReturnLabel_27
          CFI (cfiCond162) R6 load(1, XDATA, add(CFA_XSP16, literal(-20)))
          CFI (cfiCond162) VB load(1, XDATA, add(CFA_XSP16, literal(-19)))
          CFI (cfiCond162) V0 load(1, XDATA, add(CFA_XSP16, literal(-18)))
          CFI (cfiCond162) V1 load(1, XDATA, add(CFA_XSP16, literal(-17)))
          CFI (cfiCond162) V2 load(1, XDATA, add(CFA_XSP16, literal(-16)))
          CFI (cfiCond162) V3 load(1, XDATA, add(CFA_XSP16, literal(-15)))
          CFI (cfiCond162) V4 load(1, XDATA, add(CFA_XSP16, literal(-14)))
          CFI (cfiCond162) V5 load(1, XDATA, add(CFA_XSP16, literal(-13)))
          CFI (cfiCond162) V6 load(1, XDATA, add(CFA_XSP16, literal(-12)))
          CFI (cfiCond162) V7 load(1, XDATA, add(CFA_XSP16, literal(-11)))
          CFI (cfiCond162) V8 load(1, XDATA, add(CFA_XSP16, literal(-10)))
          CFI (cfiCond162) V9 load(1, XDATA, add(CFA_XSP16, literal(-9)))
          CFI (cfiCond162) V10 load(1, XDATA, add(CFA_XSP16, literal(-8)))
          CFI (cfiCond162) V11 load(1, XDATA, add(CFA_XSP16, literal(-7)))
          CFI (cfiCond162) R7 load(1, XDATA, add(CFA_XSP16, literal(-6)))
          CFI (cfiCond162) ?RET_LOW load(1, XDATA, add(CFA_XSP16, literal(-5)))
          CFI (cfiCond162) ?RET_HIGH load(1, XDATA, add(CFA_XSP16, literal(-4)))
          CFI (cfiCond162) ?BRET_EXT load(1, XDATA, add(CFA_XSP16, literal(-3)))
          CFI (cfiCond162) DPL0 load(1, XDATA, add(CFA_XSP16, literal(-2)))
          CFI (cfiCond162) DPH0 load(1, XDATA, add(CFA_XSP16, literal(-1)))
          CFI (cfiCond162) CFA_SP SP+-2
          CFI (cfiCond162) CFA_XSP16 add(XSP16, 22)
          CFI Block cfiCond163 Using cfiCommon0
          CFI (cfiCond163) Function zclController_ProcessInDiscAttrsRspCmd
          CFI (cfiCond163) Conditional ??CrossCallReturnLabel_28
          CFI (cfiCond163) R6 load(1, XDATA, add(CFA_XSP16, literal(-20)))
          CFI (cfiCond163) VB load(1, XDATA, add(CFA_XSP16, literal(-19)))
          CFI (cfiCond163) V0 load(1, XDATA, add(CFA_XSP16, literal(-18)))
          CFI (cfiCond163) V1 load(1, XDATA, add(CFA_XSP16, literal(-17)))
          CFI (cfiCond163) V2 load(1, XDATA, add(CFA_XSP16, literal(-16)))
          CFI (cfiCond163) V3 load(1, XDATA, add(CFA_XSP16, literal(-15)))
          CFI (cfiCond163) V4 load(1, XDATA, add(CFA_XSP16, literal(-14)))
          CFI (cfiCond163) V5 load(1, XDATA, add(CFA_XSP16, literal(-13)))
          CFI (cfiCond163) V6 load(1, XDATA, add(CFA_XSP16, literal(-12)))
          CFI (cfiCond163) V7 load(1, XDATA, add(CFA_XSP16, literal(-11)))
          CFI (cfiCond163) V8 load(1, XDATA, add(CFA_XSP16, literal(-10)))
          CFI (cfiCond163) V9 load(1, XDATA, add(CFA_XSP16, literal(-9)))
          CFI (cfiCond163) V10 load(1, XDATA, add(CFA_XSP16, literal(-8)))
          CFI (cfiCond163) V11 load(1, XDATA, add(CFA_XSP16, literal(-7)))
          CFI (cfiCond163) R7 load(1, XDATA, add(CFA_XSP16, literal(-6)))
          CFI (cfiCond163) ?RET_LOW load(1, XDATA, add(CFA_XSP16, literal(-5)))
          CFI (cfiCond163) ?RET_HIGH load(1, XDATA, add(CFA_XSP16, literal(-4)))
          CFI (cfiCond163) ?BRET_EXT load(1, XDATA, add(CFA_XSP16, literal(-3)))
          CFI (cfiCond163) DPL0 load(1, XDATA, add(CFA_XSP16, literal(-2)))
          CFI (cfiCond163) DPH0 load(1, XDATA, add(CFA_XSP16, literal(-1)))
          CFI (cfiCond163) CFA_SP SP+-2
          CFI (cfiCond163) CFA_XSP16 add(XSP16, 20)
          CFI Block cfiPicker164 Using cfiCommon1
          CFI (cfiPicker164) NoFunction
          CFI (cfiPicker164) Picker
        MOVX      A,@DPTR
        MOV       ?V10,A
        MOV       ?V11,#0x0
        MOV       R0,#?V10
        RET
          CFI EndBlock cfiCond161
          CFI EndBlock cfiCond162
          CFI EndBlock cfiCond163
          CFI EndBlock cfiPicker164
//  956 
//  957 /*********************************************************************
//  958  * @fn      zclController_ProcessInConfigReportRspCmd
//  959  *
//  960  * @brief   Process the "Profile" Configure Reporting Response Command
//  961  *
//  962  * @param   pInMsg - incoming message to process
//  963  *
//  964  * @return  none
//  965  ********************************************************************/

        RSEG BANKED_CODE:HUGECODE:NOROOT(0)
//  966 static uint8 zclController_ProcessInConfigReportRspCmd( zclIncomingMsg_t *pInMsg )
zclController_ProcessInConfigReportRspCmd:
          CFI Block cfiBlock165 Using cfiCommon0
          CFI Function zclController_ProcessInConfigReportRspCmd
        CODE
//  967 {
        FUNCALL zclController_ProcessInConfigReportRspCmd, AT_Uart0_Send
        LOCFRAME ISTACK, 0, STACK
        LOCFRAME PSTACK, 0, STACK
        LOCFRAME XSTACK, 16, STACK
        LOCFRAME IOVERLAY, 0, STATIC
        LOCFRAME DOVERLAY, 0, STATIC
        ARGFRAME ISTACK, 0, STACK
        ARGFRAME PSTACK, 0, STACK
        ARGFRAME XSTACK, 16, STACK
        ARGFRAME IOVERLAY, 0, STATIC
        ARGFRAME DOVERLAY, 0, STATIC
        FUNCALL zclController_ProcessInConfigReportRspCmd, printf
        LOCFRAME ISTACK, 0, STACK
        LOCFRAME PSTACK, 0, STACK
        LOCFRAME XSTACK, 22, STACK
        LOCFRAME IOVERLAY, 0, STATIC
        LOCFRAME DOVERLAY, 0, STATIC
        ARGFRAME ISTACK, 0, STACK
        ARGFRAME PSTACK, 0, STACK
        ARGFRAME XSTACK, 22, STACK
        ARGFRAME IOVERLAY, 0, STATIC
        ARGFRAME DOVERLAY, 0, STATIC
        FUNCALL zclController_ProcessInConfigReportRspCmd, AT_Uart0_Send
        LOCFRAME ISTACK, 0, STACK
        LOCFRAME PSTACK, 0, STACK
        LOCFRAME XSTACK, 16, STACK
        LOCFRAME IOVERLAY, 0, STATIC
        LOCFRAME DOVERLAY, 0, STATIC
        ARGFRAME ISTACK, 0, STACK
        ARGFRAME PSTACK, 0, STACK
        ARGFRAME XSTACK, 16, STACK
        ARGFRAME IOVERLAY, 0, STATIC
        ARGFRAME DOVERLAY, 0, STATIC
        FUNCALL zclController_ProcessInConfigReportRspCmd, printf
        LOCFRAME ISTACK, 0, STACK
        LOCFRAME PSTACK, 0, STACK
        LOCFRAME XSTACK, 22, STACK
        LOCFRAME IOVERLAY, 0, STATIC
        LOCFRAME DOVERLAY, 0, STATIC
        ARGFRAME ISTACK, 0, STACK
        ARGFRAME PSTACK, 0, STACK
        ARGFRAME XSTACK, 22, STACK
        ARGFRAME IOVERLAY, 0, STATIC
        ARGFRAME DOVERLAY, 0, STATIC
        FUNCALL zclController_ProcessInConfigReportRspCmd, AT_Uart0_Send
        LOCFRAME ISTACK, 0, STACK
        LOCFRAME PSTACK, 0, STACK
        LOCFRAME XSTACK, 16, STACK
        LOCFRAME IOVERLAY, 0, STATIC
        LOCFRAME DOVERLAY, 0, STATIC
        ARGFRAME ISTACK, 0, STACK
        ARGFRAME PSTACK, 0, STACK
        ARGFRAME XSTACK, 16, STACK
        ARGFRAME IOVERLAY, 0, STATIC
        ARGFRAME DOVERLAY, 0, STATIC
        REQUIRE ?V0
        REQUIRE ?V1
        REQUIRE ?V2
        REQUIRE ?V3
        REQUIRE ?V4
        REQUIRE ?V5
        REQUIRE ?V6
        REQUIRE ?V7
        MOV       A,#-0x10
        LCALL     ?BANKED_ENTER_XDATA
          CFI DPH0 load(1, XDATA, add(CFA_XSP16, literal(-1)))
          CFI DPL0 load(1, XDATA, add(CFA_XSP16, literal(-2)))
          CFI ?BRET_EXT load(1, XDATA, add(CFA_XSP16, literal(-3)))
          CFI ?RET_HIGH load(1, XDATA, add(CFA_XSP16, literal(-4)))
          CFI ?RET_LOW load(1, XDATA, add(CFA_XSP16, literal(-5)))
          CFI R7 load(1, XDATA, add(CFA_XSP16, literal(-6)))
          CFI V7 load(1, XDATA, add(CFA_XSP16, literal(-7)))
          CFI V6 load(1, XDATA, add(CFA_XSP16, literal(-8)))
          CFI V5 load(1, XDATA, add(CFA_XSP16, literal(-9)))
          CFI V4 load(1, XDATA, add(CFA_XSP16, literal(-10)))
          CFI V3 load(1, XDATA, add(CFA_XSP16, literal(-11)))
          CFI V2 load(1, XDATA, add(CFA_XSP16, literal(-12)))
          CFI V1 load(1, XDATA, add(CFA_XSP16, literal(-13)))
          CFI V0 load(1, XDATA, add(CFA_XSP16, literal(-14)))
          CFI VB load(1, XDATA, add(CFA_XSP16, literal(-15)))
          CFI R6 load(1, XDATA, add(CFA_XSP16, literal(-16)))
          CFI CFA_SP SP+0
          CFI CFA_XSP16 add(XSP16, 16)
        ; Saved register size: 16
        ; Auto size: 0
//  968   uint16 nodeId   = pInMsg->srcAddr.addr.shortAddr;
        LCALL     ?Subroutine17 & 0xFFFF
//  969   uint8  endpoint = pInMsg->srcAddr.endPoint;
??CrossCallReturnLabel_21:
        MOV       ?V2,A
//  970   uint16 cID      = pInMsg->clusterId;
        LCALL     ?Subroutine20 & 0xFFFF
//  971   zclCfgReportRspCmd_t *cfgReportRspCmd;
//  972   uint8 i;
//  973   // uint8  status;
//  974   // uint8  direction;
//  975   // uint16 attrID;
//  976 
//  977   cfgReportRspCmd = (zclCfgReportRspCmd_t *)pInMsg->attrCmd;
??CrossCallReturnLabel_25:
        MOV       DPH,A
        LCALL     ??Subroutine62_0 & 0xFFFF
??CrossCallReturnLabel_129:
        MOV       ?V0,R0
        MOV       ?V1,A
//  978 
//  979   AT_NEW_LINE();
        ; Setup parameters for call to function AT_Uart0_Send
        MOV       R4,#0x2
        MOV       R5,#0x0
        MOV       R2,#`?<Constant "\\r\\n">` & 0xff
        MOV       R3,#(`?<Constant "\\r\\n">` >> 8) & 0xff
        LCALL     `??AT_Uart0_Send::?relay`; Banked call to: AT_Uart0_Send
//  980   printf("CFGRPTRSP:%04X,%02X,%04X", nodeId, endpoint, cID);
        ; Setup parameters for call to function printf
        MOV       R0,#?V6
        LCALL     ?PUSH_XSTACK_I_TWO
          CFI CFA_XSP16 add(XSP16, 18)
        MOV       ?V3,#0x0
        MOV       R0,#?V2
        LCALL     ?PUSH_XSTACK_I_TWO
          CFI CFA_XSP16 add(XSP16, 20)
        MOV       R0,#?V4
        LCALL     ?PUSH_XSTACK_I_TWO
          CFI CFA_XSP16 add(XSP16, 22)
        MOV       R2,#`?<Constant "CFGRPTRSP:%04X,%02X,%04X">` & 0xff
        MOV       R3,#(`?<Constant "CFGRPTRSP:%04X,%02X,%04X">` >> 8) & 0xff
        LCALL     ?Subroutine38 & 0xFFFF
??CrossCallReturnLabel_69:
        LCALL     ?DEALLOC_XSTACK8
          CFI CFA_XSP16 add(XSP16, 16)
//  981   if (cfgReportRspCmd->numAttr == 0) {
        MOV       DPL,?V0
        MOV       DPH,?V1
        MOVX      A,@DPTR
        JNZ       ??zclController_ProcessInConfigReportRspCmd_0
//  982   	AT_RESP(",00", 3);
        ; Setup parameters for call to function AT_Uart0_Send
        MOV       R4,#0x3
        MOV       R5,#0x0
        MOV       R2,#`?<Constant ",00">` & 0xff
        MOV       R3,#(`?<Constant ",00">` >> 8) & 0xff
        LCALL     `??AT_Uart0_Send::?relay`; Banked call to: AT_Uart0_Send
        SJMP      ??zclController_ProcessInConfigReportRspCmd_1
//  983   } else {
//  984 	for ( i = 0; i < cfgReportRspCmd->numAttr; i++ )
??zclController_ProcessInConfigReportRspCmd_0:
        MOV       ?V2,#0x0
        SJMP      ??zclController_ProcessInConfigReportRspCmd_2
//  985   	{
//  986       printf(",%02X,%02X,%04X", cfgReportRspCmd->attrList[i].status,
//  987 	  	cfgReportRspCmd->attrList[i].direction, cfgReportRspCmd->attrList[i].attrID);
??zclController_ProcessInConfigReportRspCmd_3:
        MOV       A,?V2
        MOV       ?V4,A
        MOV       ?V5,#0x0
        MOV       A,#0x2
        MOV       R0,#?V4
        LCALL     ?S_SHL
        MOV       A,?V0
        ADD       A,?V4
        MOV       R0,A
        MOV       A,?V1
        ADDC      A,?V5
        MOV       R1,A
        MOV       A,R0
        MOV       R2,A
        MOV       A,R1
        ; Setup parameters for call to function printf
        MOV       DPL,R0
        MOV       DPH,A
        INC       DPTR
        INC       DPTR
        INC       DPTR
        LCALL     ?PUSH_XSTACK8_X_TWO
          CFI CFA_XSP16 add(XSP16, 18)
        MOV       DPL,R0
        MOV       DPH,R1
        INC       DPTR
        INC       DPTR
        MOVX      A,@DPTR
        MOV       ?V4,A
        MOV       ?V5,#0x0
        MOV       R0,#?V4
        LCALL     ?PUSH_XSTACK_I_TWO
          CFI CFA_XSP16 add(XSP16, 20)
        MOV       DPL,R2
        MOV       DPH,R1
        INC       DPTR
        MOVX      A,@DPTR
        MOV       ?V4,A
        MOV       R0,#?V4
        LCALL     ?PUSH_XSTACK_I_TWO
          CFI CFA_XSP16 add(XSP16, 22)
        MOV       R2,#`?<Constant ",%02X,%02X,%04X">` & 0xff
        MOV       R3,#(`?<Constant ",%02X,%02X,%04X">` >> 8) & 0xff
        LCALL     ?Subroutine38 & 0xFFFF
//  988     }
??CrossCallReturnLabel_70:
        LCALL     ?DEALLOC_XSTACK8
          CFI CFA_XSP16 add(XSP16, 16)
        INC       ?V2
??zclController_ProcessInConfigReportRspCmd_2:
        MOV       DPL,?V0
        MOV       DPH,?V1
        LCALL     ?Subroutine22 & 0xFFFF
//  989   }
??CrossCallReturnLabel_31:
        JC        ??zclController_ProcessInConfigReportRspCmd_3
//  990   AT_NEW_LINE();
??zclController_ProcessInConfigReportRspCmd_1:
        ; Setup parameters for call to function AT_Uart0_Send
        MOV       R4,#0x2
        MOV       R5,#0x0
        MOV       R2,#`?<Constant "\\r\\n">` & 0xff
        MOV       R3,#(`?<Constant "\\r\\n">` >> 8) & 0xff
        LCALL     `??AT_Uart0_Send::?relay`; Banked call to: AT_Uart0_Send
//  991 
//  992   return ( TRUE );
        MOV       R1,#0x1
        LJMP      ??Subroutine57_0 & 0xFFFF
//  993 }
          CFI EndBlock cfiBlock165

        RSEG BANKED_CODE:HUGECODE:NOROOT(0)
?Subroutine38:
          CFI Block cfiCond166 Using cfiCommon0
          CFI Function zclController_ProcessInReadReportCfgRspCmd
          CFI Conditional ??CrossCallReturnLabel_68
          CFI R6 load(1, XDATA, add(CFA_XSP16, literal(-20)))
          CFI VB load(1, XDATA, add(CFA_XSP16, literal(-19)))
          CFI V0 load(1, XDATA, add(CFA_XSP16, literal(-18)))
          CFI V1 load(1, XDATA, add(CFA_XSP16, literal(-17)))
          CFI V2 load(1, XDATA, add(CFA_XSP16, literal(-16)))
          CFI V3 load(1, XDATA, add(CFA_XSP16, literal(-15)))
          CFI V4 load(1, XDATA, add(CFA_XSP16, literal(-14)))
          CFI V5 load(1, XDATA, add(CFA_XSP16, literal(-13)))
          CFI V6 load(1, XDATA, add(CFA_XSP16, literal(-12)))
          CFI V7 load(1, XDATA, add(CFA_XSP16, literal(-11)))
          CFI V8 load(1, XDATA, add(CFA_XSP16, literal(-10)))
          CFI V9 load(1, XDATA, add(CFA_XSP16, literal(-9)))
          CFI V10 load(1, XDATA, add(CFA_XSP16, literal(-8)))
          CFI V11 load(1, XDATA, add(CFA_XSP16, literal(-7)))
          CFI R7 load(1, XDATA, add(CFA_XSP16, literal(-6)))
          CFI ?RET_LOW load(1, XDATA, add(CFA_XSP16, literal(-5)))
          CFI ?RET_HIGH load(1, XDATA, add(CFA_XSP16, literal(-4)))
          CFI ?BRET_EXT load(1, XDATA, add(CFA_XSP16, literal(-3)))
          CFI DPL0 load(1, XDATA, add(CFA_XSP16, literal(-2)))
          CFI DPH0 load(1, XDATA, add(CFA_XSP16, literal(-1)))
          CFI CFA_SP SP+-2
          CFI CFA_XSP16 add(XSP16, 26)
          CFI Block cfiCond167 Using cfiCommon0
          CFI (cfiCond167) Function zclController_ProcessInConfigReportRspCmd
          CFI (cfiCond167) Conditional ??CrossCallReturnLabel_69
          CFI (cfiCond167) R6 load(1, XDATA, add(CFA_XSP16, literal(-16)))
          CFI (cfiCond167) VB load(1, XDATA, add(CFA_XSP16, literal(-15)))
          CFI (cfiCond167) V0 load(1, XDATA, add(CFA_XSP16, literal(-14)))
          CFI (cfiCond167) V1 load(1, XDATA, add(CFA_XSP16, literal(-13)))
          CFI (cfiCond167) V2 load(1, XDATA, add(CFA_XSP16, literal(-12)))
          CFI (cfiCond167) V3 load(1, XDATA, add(CFA_XSP16, literal(-11)))
          CFI (cfiCond167) V4 load(1, XDATA, add(CFA_XSP16, literal(-10)))
          CFI (cfiCond167) V5 load(1, XDATA, add(CFA_XSP16, literal(-9)))
          CFI (cfiCond167) V6 load(1, XDATA, add(CFA_XSP16, literal(-8)))
          CFI (cfiCond167) V7 load(1, XDATA, add(CFA_XSP16, literal(-7)))
          CFI (cfiCond167) R7 load(1, XDATA, add(CFA_XSP16, literal(-6)))
          CFI (cfiCond167) ?RET_LOW load(1, XDATA, add(CFA_XSP16, literal(-5)))
          CFI (cfiCond167) ?RET_HIGH load(1, XDATA, add(CFA_XSP16, literal(-4)))
          CFI (cfiCond167) ?BRET_EXT load(1, XDATA, add(CFA_XSP16, literal(-3)))
          CFI (cfiCond167) DPL0 load(1, XDATA, add(CFA_XSP16, literal(-2)))
          CFI (cfiCond167) DPH0 load(1, XDATA, add(CFA_XSP16, literal(-1)))
          CFI (cfiCond167) CFA_SP SP+-2
          CFI (cfiCond167) CFA_XSP16 add(XSP16, 22)
          CFI Block cfiCond168 Using cfiCommon0
          CFI (cfiCond168) Function zclController_ProcessInConfigReportRspCmd
          CFI (cfiCond168) Conditional ??CrossCallReturnLabel_70
          CFI (cfiCond168) R6 load(1, XDATA, add(CFA_XSP16, literal(-16)))
          CFI (cfiCond168) VB load(1, XDATA, add(CFA_XSP16, literal(-15)))
          CFI (cfiCond168) V0 load(1, XDATA, add(CFA_XSP16, literal(-14)))
          CFI (cfiCond168) V1 load(1, XDATA, add(CFA_XSP16, literal(-13)))
          CFI (cfiCond168) V2 load(1, XDATA, add(CFA_XSP16, literal(-12)))
          CFI (cfiCond168) V3 load(1, XDATA, add(CFA_XSP16, literal(-11)))
          CFI (cfiCond168) V4 load(1, XDATA, add(CFA_XSP16, literal(-10)))
          CFI (cfiCond168) V5 load(1, XDATA, add(CFA_XSP16, literal(-9)))
          CFI (cfiCond168) V6 load(1, XDATA, add(CFA_XSP16, literal(-8)))
          CFI (cfiCond168) V7 load(1, XDATA, add(CFA_XSP16, literal(-7)))
          CFI (cfiCond168) R7 load(1, XDATA, add(CFA_XSP16, literal(-6)))
          CFI (cfiCond168) ?RET_LOW load(1, XDATA, add(CFA_XSP16, literal(-5)))
          CFI (cfiCond168) ?RET_HIGH load(1, XDATA, add(CFA_XSP16, literal(-4)))
          CFI (cfiCond168) ?BRET_EXT load(1, XDATA, add(CFA_XSP16, literal(-3)))
          CFI (cfiCond168) DPL0 load(1, XDATA, add(CFA_XSP16, literal(-2)))
          CFI (cfiCond168) DPH0 load(1, XDATA, add(CFA_XSP16, literal(-1)))
          CFI (cfiCond168) CFA_SP SP+-2
          CFI (cfiCond168) CFA_XSP16 add(XSP16, 22)
          CFI Block cfiCond169 Using cfiCommon0
          CFI (cfiCond169) Function zclController_ProcessInDiscAttrsRspCmd
          CFI (cfiCond169) Conditional ??CrossCallReturnLabel_71
          CFI (cfiCond169) R6 load(1, XDATA, add(CFA_XSP16, literal(-20)))
          CFI (cfiCond169) VB load(1, XDATA, add(CFA_XSP16, literal(-19)))
          CFI (cfiCond169) V0 load(1, XDATA, add(CFA_XSP16, literal(-18)))
          CFI (cfiCond169) V1 load(1, XDATA, add(CFA_XSP16, literal(-17)))
          CFI (cfiCond169) V2 load(1, XDATA, add(CFA_XSP16, literal(-16)))
          CFI (cfiCond169) V3 load(1, XDATA, add(CFA_XSP16, literal(-15)))
          CFI (cfiCond169) V4 load(1, XDATA, add(CFA_XSP16, literal(-14)))
          CFI (cfiCond169) V5 load(1, XDATA, add(CFA_XSP16, literal(-13)))
          CFI (cfiCond169) V6 load(1, XDATA, add(CFA_XSP16, literal(-12)))
          CFI (cfiCond169) V7 load(1, XDATA, add(CFA_XSP16, literal(-11)))
          CFI (cfiCond169) V8 load(1, XDATA, add(CFA_XSP16, literal(-10)))
          CFI (cfiCond169) V9 load(1, XDATA, add(CFA_XSP16, literal(-9)))
          CFI (cfiCond169) V10 load(1, XDATA, add(CFA_XSP16, literal(-8)))
          CFI (cfiCond169) V11 load(1, XDATA, add(CFA_XSP16, literal(-7)))
          CFI (cfiCond169) R7 load(1, XDATA, add(CFA_XSP16, literal(-6)))
          CFI (cfiCond169) ?RET_LOW load(1, XDATA, add(CFA_XSP16, literal(-5)))
          CFI (cfiCond169) ?RET_HIGH load(1, XDATA, add(CFA_XSP16, literal(-4)))
          CFI (cfiCond169) ?BRET_EXT load(1, XDATA, add(CFA_XSP16, literal(-3)))
          CFI (cfiCond169) DPL0 load(1, XDATA, add(CFA_XSP16, literal(-2)))
          CFI (cfiCond169) DPH0 load(1, XDATA, add(CFA_XSP16, literal(-1)))
          CFI (cfiCond169) CFA_SP SP+-2
          CFI (cfiCond169) CFA_XSP16 add(XSP16, 26)
          CFI Block cfiPicker170 Using cfiCommon1
          CFI (cfiPicker170) NoFunction
          CFI (cfiPicker170) Picker
        LCALL     `??printf::?relay`; Banked call to: printf
        MOV       A,#0x6
        RET
          CFI EndBlock cfiCond166
          CFI EndBlock cfiCond167
          CFI EndBlock cfiCond168
          CFI EndBlock cfiCond169
          CFI EndBlock cfiPicker170

        RSEG BANKED_CODE:HUGECODE:NOROOT(0)
?Subroutine25:
          CFI Block cfiCond171 Using cfiCommon0
          CFI Function AT_zclController_ProcessIncomingMsg
          CFI Conditional ??CrossCallReturnLabel_131
          CFI R6 load(1, XDATA, add(CFA_XSP16, literal(-20)))
          CFI VB load(1, XDATA, add(CFA_XSP16, literal(-19)))
          CFI V0 load(1, XDATA, add(CFA_XSP16, literal(-18)))
          CFI V1 load(1, XDATA, add(CFA_XSP16, literal(-17)))
          CFI V2 load(1, XDATA, add(CFA_XSP16, literal(-16)))
          CFI V3 load(1, XDATA, add(CFA_XSP16, literal(-15)))
          CFI V4 load(1, XDATA, add(CFA_XSP16, literal(-14)))
          CFI V5 load(1, XDATA, add(CFA_XSP16, literal(-13)))
          CFI V6 load(1, XDATA, add(CFA_XSP16, literal(-12)))
          CFI V7 load(1, XDATA, add(CFA_XSP16, literal(-11)))
          CFI V8 load(1, XDATA, add(CFA_XSP16, literal(-10)))
          CFI V9 load(1, XDATA, add(CFA_XSP16, literal(-9)))
          CFI V10 load(1, XDATA, add(CFA_XSP16, literal(-8)))
          CFI V11 load(1, XDATA, add(CFA_XSP16, literal(-7)))
          CFI R7 load(1, XDATA, add(CFA_XSP16, literal(-6)))
          CFI ?RET_LOW load(1, XDATA, add(CFA_XSP16, literal(-5)))
          CFI ?RET_HIGH load(1, XDATA, add(CFA_XSP16, literal(-4)))
          CFI ?BRET_EXT load(1, XDATA, add(CFA_XSP16, literal(-3)))
          CFI DPL0 load(1, XDATA, add(CFA_XSP16, literal(-2)))
          CFI DPH0 load(1, XDATA, add(CFA_XSP16, literal(-1)))
          CFI CFA_SP SP+-2
          CFI CFA_XSP16 add(XSP16, 20)
          CFI Block cfiCond172 Using cfiCommon0
          CFI (cfiCond172) Function AT_zclController_ProcessIncomingMsg
          CFI (cfiCond172) Conditional ??CrossCallReturnLabel_132
          CFI (cfiCond172) R6 load(1, XDATA, add(CFA_XSP16, literal(-20)))
          CFI (cfiCond172) VB load(1, XDATA, add(CFA_XSP16, literal(-19)))
          CFI (cfiCond172) V0 load(1, XDATA, add(CFA_XSP16, literal(-18)))
          CFI (cfiCond172) V1 load(1, XDATA, add(CFA_XSP16, literal(-17)))
          CFI (cfiCond172) V2 load(1, XDATA, add(CFA_XSP16, literal(-16)))
          CFI (cfiCond172) V3 load(1, XDATA, add(CFA_XSP16, literal(-15)))
          CFI (cfiCond172) V4 load(1, XDATA, add(CFA_XSP16, literal(-14)))
          CFI (cfiCond172) V5 load(1, XDATA, add(CFA_XSP16, literal(-13)))
          CFI (cfiCond172) V6 load(1, XDATA, add(CFA_XSP16, literal(-12)))
          CFI (cfiCond172) V7 load(1, XDATA, add(CFA_XSP16, literal(-11)))
          CFI (cfiCond172) V8 load(1, XDATA, add(CFA_XSP16, literal(-10)))
          CFI (cfiCond172) V9 load(1, XDATA, add(CFA_XSP16, literal(-9)))
          CFI (cfiCond172) V10 load(1, XDATA, add(CFA_XSP16, literal(-8)))
          CFI (cfiCond172) V11 load(1, XDATA, add(CFA_XSP16, literal(-7)))
          CFI (cfiCond172) R7 load(1, XDATA, add(CFA_XSP16, literal(-6)))
          CFI (cfiCond172) ?RET_LOW load(1, XDATA, add(CFA_XSP16, literal(-5)))
          CFI (cfiCond172) ?RET_HIGH load(1, XDATA, add(CFA_XSP16, literal(-4)))
          CFI (cfiCond172) ?BRET_EXT load(1, XDATA, add(CFA_XSP16, literal(-3)))
          CFI (cfiCond172) DPL0 load(1, XDATA, add(CFA_XSP16, literal(-2)))
          CFI (cfiCond172) DPH0 load(1, XDATA, add(CFA_XSP16, literal(-1)))
          CFI (cfiCond172) CFA_SP SP+-2
          CFI (cfiCond172) CFA_XSP16 add(XSP16, 20)
          CFI Block cfiPicker173 Using cfiCommon1
          CFI (cfiPicker173) NoFunction
          CFI (cfiPicker173) Picker
        MOV       DPL,R0
        MOV       DPH,?V1
          CFI EndBlock cfiCond171
          CFI EndBlock cfiCond172
          CFI EndBlock cfiPicker173
        REQUIRE ??Subroutine62_0
        ; // Fall through to label ??Subroutine62_0

        RSEG BANKED_CODE:HUGECODE:NOROOT(0)
??Subroutine62_0:
          CFI Block cfiCond174 Using cfiCommon0
          CFI Function AT_Endpoint_Register
          CFI Conditional ??CrossCallReturnLabel_126
          CFI R6 load(1, XDATA, add(CFA_XSP16, literal(-14)))
          CFI VB load(1, XDATA, add(CFA_XSP16, literal(-13)))
          CFI V0 load(1, XDATA, add(CFA_XSP16, literal(-12)))
          CFI V1 load(1, XDATA, add(CFA_XSP16, literal(-11)))
          CFI V2 load(1, XDATA, add(CFA_XSP16, literal(-10)))
          CFI V3 load(1, XDATA, add(CFA_XSP16, literal(-9)))
          CFI V4 load(1, XDATA, add(CFA_XSP16, literal(-8)))
          CFI V5 load(1, XDATA, add(CFA_XSP16, literal(-7)))
          CFI R7 load(1, XDATA, add(CFA_XSP16, literal(-6)))
          CFI ?RET_LOW load(1, XDATA, add(CFA_XSP16, literal(-5)))
          CFI ?RET_HIGH load(1, XDATA, add(CFA_XSP16, literal(-4)))
          CFI ?BRET_EXT load(1, XDATA, add(CFA_XSP16, literal(-3)))
          CFI DPL0 load(1, XDATA, add(CFA_XSP16, literal(-2)))
          CFI DPH0 load(1, XDATA, add(CFA_XSP16, literal(-1)))
          CFI CFA_SP SP+-2
          CFI CFA_XSP16 add(XSP16, 14)
          CFI Block cfiCond175 Using cfiCommon0
          CFI (cfiCond175) Function AT_Endpoint_Controller
          CFI (cfiCond175) Conditional ??CrossCallReturnLabel_127
          CFI (cfiCond175) R6 load(1, XDATA, add(CFA_XSP16, literal(-9)))
          CFI (cfiCond175) VB load(1, XDATA, add(CFA_XSP16, literal(-8)))
          CFI (cfiCond175) V0 load(1, XDATA, add(CFA_XSP16, literal(-7)))
          CFI (cfiCond175) R7 load(1, XDATA, add(CFA_XSP16, literal(-6)))
          CFI (cfiCond175) ?RET_LOW load(1, XDATA, add(CFA_XSP16, literal(-5)))
          CFI (cfiCond175) ?RET_HIGH load(1, XDATA, add(CFA_XSP16, literal(-4)))
          CFI (cfiCond175) ?BRET_EXT load(1, XDATA, add(CFA_XSP16, literal(-3)))
          CFI (cfiCond175) DPL0 load(1, XDATA, add(CFA_XSP16, literal(-2)))
          CFI (cfiCond175) DPH0 load(1, XDATA, add(CFA_XSP16, literal(-1)))
          CFI (cfiCond175) CFA_SP SP+-2
          CFI (cfiCond175) CFA_XSP16 add(XSP16, 9)
          CFI Block cfiCond176 Using cfiCommon0
          CFI (cfiCond176) Function AT_Endpoint_Controller
          CFI (cfiCond176) Conditional ??CrossCallReturnLabel_128
          CFI (cfiCond176) R6 load(1, XDATA, add(CFA_XSP16, literal(-9)))
          CFI (cfiCond176) VB load(1, XDATA, add(CFA_XSP16, literal(-8)))
          CFI (cfiCond176) V0 load(1, XDATA, add(CFA_XSP16, literal(-7)))
          CFI (cfiCond176) R7 load(1, XDATA, add(CFA_XSP16, literal(-6)))
          CFI (cfiCond176) ?RET_LOW load(1, XDATA, add(CFA_XSP16, literal(-5)))
          CFI (cfiCond176) ?RET_HIGH load(1, XDATA, add(CFA_XSP16, literal(-4)))
          CFI (cfiCond176) ?BRET_EXT load(1, XDATA, add(CFA_XSP16, literal(-3)))
          CFI (cfiCond176) DPL0 load(1, XDATA, add(CFA_XSP16, literal(-2)))
          CFI (cfiCond176) DPH0 load(1, XDATA, add(CFA_XSP16, literal(-1)))
          CFI (cfiCond176) CFA_SP SP+-2
          CFI (cfiCond176) CFA_XSP16 add(XSP16, 9)
          CFI Block cfiCond177 Using cfiCommon0
          CFI (cfiCond177) Function zclController_ProcessInConfigReportRspCmd
          CFI (cfiCond177) Conditional ??CrossCallReturnLabel_129
          CFI (cfiCond177) R6 load(1, XDATA, add(CFA_XSP16, literal(-16)))
          CFI (cfiCond177) VB load(1, XDATA, add(CFA_XSP16, literal(-15)))
          CFI (cfiCond177) V0 load(1, XDATA, add(CFA_XSP16, literal(-14)))
          CFI (cfiCond177) V1 load(1, XDATA, add(CFA_XSP16, literal(-13)))
          CFI (cfiCond177) V2 load(1, XDATA, add(CFA_XSP16, literal(-12)))
          CFI (cfiCond177) V3 load(1, XDATA, add(CFA_XSP16, literal(-11)))
          CFI (cfiCond177) V4 load(1, XDATA, add(CFA_XSP16, literal(-10)))
          CFI (cfiCond177) V5 load(1, XDATA, add(CFA_XSP16, literal(-9)))
          CFI (cfiCond177) V6 load(1, XDATA, add(CFA_XSP16, literal(-8)))
          CFI (cfiCond177) V7 load(1, XDATA, add(CFA_XSP16, literal(-7)))
          CFI (cfiCond177) R7 load(1, XDATA, add(CFA_XSP16, literal(-6)))
          CFI (cfiCond177) ?RET_LOW load(1, XDATA, add(CFA_XSP16, literal(-5)))
          CFI (cfiCond177) ?RET_HIGH load(1, XDATA, add(CFA_XSP16, literal(-4)))
          CFI (cfiCond177) ?BRET_EXT load(1, XDATA, add(CFA_XSP16, literal(-3)))
          CFI (cfiCond177) DPL0 load(1, XDATA, add(CFA_XSP16, literal(-2)))
          CFI (cfiCond177) DPH0 load(1, XDATA, add(CFA_XSP16, literal(-1)))
          CFI (cfiCond177) CFA_SP SP+-2
          CFI (cfiCond177) CFA_XSP16 add(XSP16, 16)
          CFI Block cfiCond178 Using cfiCommon0
          CFI (cfiCond178) Function zclController_ProcessInDiscCmdsRspCmd
          CFI (cfiCond178) Conditional ??CrossCallReturnLabel_130
          CFI (cfiCond178) DPL0 Frame(CFA_SP, 4)
          CFI (cfiCond178) DPH0 Frame(CFA_SP, 5)
          CFI (cfiCond178) CFA_SP SP+-7
          CFI Block cfiCond179 Using cfiCommon0
          CFI (cfiCond179) Function AT_zclController_ProcessIncomingMsg
          CFI (cfiCond179) Conditional ??CrossCallReturnLabel_131
          CFI (cfiCond179) R6 load(1, XDATA, add(CFA_XSP16, literal(-20)))
          CFI (cfiCond179) VB load(1, XDATA, add(CFA_XSP16, literal(-19)))
          CFI (cfiCond179) V0 load(1, XDATA, add(CFA_XSP16, literal(-18)))
          CFI (cfiCond179) V1 load(1, XDATA, add(CFA_XSP16, literal(-17)))
          CFI (cfiCond179) V2 load(1, XDATA, add(CFA_XSP16, literal(-16)))
          CFI (cfiCond179) V3 load(1, XDATA, add(CFA_XSP16, literal(-15)))
          CFI (cfiCond179) V4 load(1, XDATA, add(CFA_XSP16, literal(-14)))
          CFI (cfiCond179) V5 load(1, XDATA, add(CFA_XSP16, literal(-13)))
          CFI (cfiCond179) V6 load(1, XDATA, add(CFA_XSP16, literal(-12)))
          CFI (cfiCond179) V7 load(1, XDATA, add(CFA_XSP16, literal(-11)))
          CFI (cfiCond179) V8 load(1, XDATA, add(CFA_XSP16, literal(-10)))
          CFI (cfiCond179) V9 load(1, XDATA, add(CFA_XSP16, literal(-9)))
          CFI (cfiCond179) V10 load(1, XDATA, add(CFA_XSP16, literal(-8)))
          CFI (cfiCond179) V11 load(1, XDATA, add(CFA_XSP16, literal(-7)))
          CFI (cfiCond179) R7 load(1, XDATA, add(CFA_XSP16, literal(-6)))
          CFI (cfiCond179) ?RET_LOW load(1, XDATA, add(CFA_XSP16, literal(-5)))
          CFI (cfiCond179) ?RET_HIGH load(1, XDATA, add(CFA_XSP16, literal(-4)))
          CFI (cfiCond179) ?BRET_EXT load(1, XDATA, add(CFA_XSP16, literal(-3)))
          CFI (cfiCond179) DPL0 load(1, XDATA, add(CFA_XSP16, literal(-2)))
          CFI (cfiCond179) DPH0 load(1, XDATA, add(CFA_XSP16, literal(-1)))
          CFI (cfiCond179) CFA_SP SP+-2
          CFI (cfiCond179) CFA_XSP16 add(XSP16, 20)
          CFI Block cfiCond180 Using cfiCommon0
          CFI (cfiCond180) Function AT_zclController_ProcessIncomingMsg
          CFI (cfiCond180) Conditional ??CrossCallReturnLabel_132
          CFI (cfiCond180) R6 load(1, XDATA, add(CFA_XSP16, literal(-20)))
          CFI (cfiCond180) VB load(1, XDATA, add(CFA_XSP16, literal(-19)))
          CFI (cfiCond180) V0 load(1, XDATA, add(CFA_XSP16, literal(-18)))
          CFI (cfiCond180) V1 load(1, XDATA, add(CFA_XSP16, literal(-17)))
          CFI (cfiCond180) V2 load(1, XDATA, add(CFA_XSP16, literal(-16)))
          CFI (cfiCond180) V3 load(1, XDATA, add(CFA_XSP16, literal(-15)))
          CFI (cfiCond180) V4 load(1, XDATA, add(CFA_XSP16, literal(-14)))
          CFI (cfiCond180) V5 load(1, XDATA, add(CFA_XSP16, literal(-13)))
          CFI (cfiCond180) V6 load(1, XDATA, add(CFA_XSP16, literal(-12)))
          CFI (cfiCond180) V7 load(1, XDATA, add(CFA_XSP16, literal(-11)))
          CFI (cfiCond180) V8 load(1, XDATA, add(CFA_XSP16, literal(-10)))
          CFI (cfiCond180) V9 load(1, XDATA, add(CFA_XSP16, literal(-9)))
          CFI (cfiCond180) V10 load(1, XDATA, add(CFA_XSP16, literal(-8)))
          CFI (cfiCond180) V11 load(1, XDATA, add(CFA_XSP16, literal(-7)))
          CFI (cfiCond180) R7 load(1, XDATA, add(CFA_XSP16, literal(-6)))
          CFI (cfiCond180) ?RET_LOW load(1, XDATA, add(CFA_XSP16, literal(-5)))
          CFI (cfiCond180) ?RET_HIGH load(1, XDATA, add(CFA_XSP16, literal(-4)))
          CFI (cfiCond180) ?BRET_EXT load(1, XDATA, add(CFA_XSP16, literal(-3)))
          CFI (cfiCond180) DPL0 load(1, XDATA, add(CFA_XSP16, literal(-2)))
          CFI (cfiCond180) DPH0 load(1, XDATA, add(CFA_XSP16, literal(-1)))
          CFI (cfiCond180) CFA_SP SP+-2
          CFI (cfiCond180) CFA_XSP16 add(XSP16, 20)
          CFI Block cfiPicker181 Using cfiCommon1
          CFI (cfiPicker181) NoFunction
          CFI (cfiPicker181) Picker
        MOVX      A,@DPTR
        MOV       R0,A
        INC       DPTR
        MOVX      A,@DPTR
        RET
          CFI EndBlock cfiCond174
          CFI EndBlock cfiCond175
          CFI EndBlock cfiCond176
          CFI EndBlock cfiCond177
          CFI EndBlock cfiCond178
          CFI EndBlock cfiCond179
          CFI EndBlock cfiCond180
          CFI EndBlock cfiPicker181

        RSEG BANKED_CODE:HUGECODE:NOROOT(0)
?Subroutine22:
          CFI Block cfiCond182 Using cfiCommon0
          CFI Function zclController_ProcessInReadRspCmd
          CFI Conditional ??CrossCallReturnLabel_29
          CFI R6 load(1, XDATA, add(CFA_XSP16, literal(-22)))
          CFI VB load(1, XDATA, add(CFA_XSP16, literal(-21)))
          CFI V0 load(1, XDATA, add(CFA_XSP16, literal(-20)))
          CFI V1 load(1, XDATA, add(CFA_XSP16, literal(-19)))
          CFI V2 load(1, XDATA, add(CFA_XSP16, literal(-18)))
          CFI V3 load(1, XDATA, add(CFA_XSP16, literal(-17)))
          CFI V4 load(1, XDATA, add(CFA_XSP16, literal(-16)))
          CFI V5 load(1, XDATA, add(CFA_XSP16, literal(-15)))
          CFI V6 load(1, XDATA, add(CFA_XSP16, literal(-14)))
          CFI V7 load(1, XDATA, add(CFA_XSP16, literal(-13)))
          CFI V8 load(1, XDATA, add(CFA_XSP16, literal(-12)))
          CFI V9 load(1, XDATA, add(CFA_XSP16, literal(-11)))
          CFI V10 load(1, XDATA, add(CFA_XSP16, literal(-10)))
          CFI V11 load(1, XDATA, add(CFA_XSP16, literal(-9)))
          CFI V12 load(1, XDATA, add(CFA_XSP16, literal(-8)))
          CFI V13 load(1, XDATA, add(CFA_XSP16, literal(-7)))
          CFI R7 load(1, XDATA, add(CFA_XSP16, literal(-6)))
          CFI ?RET_LOW load(1, XDATA, add(CFA_XSP16, literal(-5)))
          CFI ?RET_HIGH load(1, XDATA, add(CFA_XSP16, literal(-4)))
          CFI ?BRET_EXT load(1, XDATA, add(CFA_XSP16, literal(-3)))
          CFI DPL0 load(1, XDATA, add(CFA_XSP16, literal(-2)))
          CFI DPH0 load(1, XDATA, add(CFA_XSP16, literal(-1)))
          CFI CFA_SP SP+-2
          CFI CFA_XSP16 add(XSP16, 39)
          CFI Block cfiCond183 Using cfiCommon0
          CFI (cfiCond183) Function zclController_ProcessInWriteRspCmd
          CFI (cfiCond183) Conditional ??CrossCallReturnLabel_30
          CFI (cfiCond183) R6 load(1, XDATA, add(CFA_XSP16, literal(-22)))
          CFI (cfiCond183) VB load(1, XDATA, add(CFA_XSP16, literal(-21)))
          CFI (cfiCond183) V0 load(1, XDATA, add(CFA_XSP16, literal(-20)))
          CFI (cfiCond183) V1 load(1, XDATA, add(CFA_XSP16, literal(-19)))
          CFI (cfiCond183) V2 load(1, XDATA, add(CFA_XSP16, literal(-18)))
          CFI (cfiCond183) V3 load(1, XDATA, add(CFA_XSP16, literal(-17)))
          CFI (cfiCond183) V4 load(1, XDATA, add(CFA_XSP16, literal(-16)))
          CFI (cfiCond183) V5 load(1, XDATA, add(CFA_XSP16, literal(-15)))
          CFI (cfiCond183) V6 load(1, XDATA, add(CFA_XSP16, literal(-14)))
          CFI (cfiCond183) V7 load(1, XDATA, add(CFA_XSP16, literal(-13)))
          CFI (cfiCond183) V8 load(1, XDATA, add(CFA_XSP16, literal(-12)))
          CFI (cfiCond183) V9 load(1, XDATA, add(CFA_XSP16, literal(-11)))
          CFI (cfiCond183) V10 load(1, XDATA, add(CFA_XSP16, literal(-10)))
          CFI (cfiCond183) V11 load(1, XDATA, add(CFA_XSP16, literal(-9)))
          CFI (cfiCond183) V12 load(1, XDATA, add(CFA_XSP16, literal(-8)))
          CFI (cfiCond183) V13 load(1, XDATA, add(CFA_XSP16, literal(-7)))
          CFI (cfiCond183) R7 load(1, XDATA, add(CFA_XSP16, literal(-6)))
          CFI (cfiCond183) ?RET_LOW load(1, XDATA, add(CFA_XSP16, literal(-5)))
          CFI (cfiCond183) ?RET_HIGH load(1, XDATA, add(CFA_XSP16, literal(-4)))
          CFI (cfiCond183) ?BRET_EXT load(1, XDATA, add(CFA_XSP16, literal(-3)))
          CFI (cfiCond183) DPL0 load(1, XDATA, add(CFA_XSP16, literal(-2)))
          CFI (cfiCond183) DPH0 load(1, XDATA, add(CFA_XSP16, literal(-1)))
          CFI (cfiCond183) CFA_SP SP+-2
          CFI (cfiCond183) CFA_XSP16 add(XSP16, 39)
          CFI Block cfiCond184 Using cfiCommon0
          CFI (cfiCond184) Function zclController_ProcessInConfigReportRspCmd
          CFI (cfiCond184) Conditional ??CrossCallReturnLabel_31
          CFI (cfiCond184) R6 load(1, XDATA, add(CFA_XSP16, literal(-16)))
          CFI (cfiCond184) VB load(1, XDATA, add(CFA_XSP16, literal(-15)))
          CFI (cfiCond184) V0 load(1, XDATA, add(CFA_XSP16, literal(-14)))
          CFI (cfiCond184) V1 load(1, XDATA, add(CFA_XSP16, literal(-13)))
          CFI (cfiCond184) V2 load(1, XDATA, add(CFA_XSP16, literal(-12)))
          CFI (cfiCond184) V3 load(1, XDATA, add(CFA_XSP16, literal(-11)))
          CFI (cfiCond184) V4 load(1, XDATA, add(CFA_XSP16, literal(-10)))
          CFI (cfiCond184) V5 load(1, XDATA, add(CFA_XSP16, literal(-9)))
          CFI (cfiCond184) V6 load(1, XDATA, add(CFA_XSP16, literal(-8)))
          CFI (cfiCond184) V7 load(1, XDATA, add(CFA_XSP16, literal(-7)))
          CFI (cfiCond184) R7 load(1, XDATA, add(CFA_XSP16, literal(-6)))
          CFI (cfiCond184) ?RET_LOW load(1, XDATA, add(CFA_XSP16, literal(-5)))
          CFI (cfiCond184) ?RET_HIGH load(1, XDATA, add(CFA_XSP16, literal(-4)))
          CFI (cfiCond184) ?BRET_EXT load(1, XDATA, add(CFA_XSP16, literal(-3)))
          CFI (cfiCond184) DPL0 load(1, XDATA, add(CFA_XSP16, literal(-2)))
          CFI (cfiCond184) DPH0 load(1, XDATA, add(CFA_XSP16, literal(-1)))
          CFI (cfiCond184) CFA_SP SP+-2
          CFI (cfiCond184) CFA_XSP16 add(XSP16, 16)
          CFI Block cfiCond185 Using cfiCommon0
          CFI (cfiCond185) Function zclController_ProcessInReportCmd
          CFI (cfiCond185) Conditional ??CrossCallReturnLabel_32
          CFI (cfiCond185) R6 load(1, XDATA, add(CFA_XSP16, literal(-18)))
          CFI (cfiCond185) VB load(1, XDATA, add(CFA_XSP16, literal(-17)))
          CFI (cfiCond185) V0 load(1, XDATA, add(CFA_XSP16, literal(-16)))
          CFI (cfiCond185) V1 load(1, XDATA, add(CFA_XSP16, literal(-15)))
          CFI (cfiCond185) V2 load(1, XDATA, add(CFA_XSP16, literal(-14)))
          CFI (cfiCond185) V3 load(1, XDATA, add(CFA_XSP16, literal(-13)))
          CFI (cfiCond185) V4 load(1, XDATA, add(CFA_XSP16, literal(-12)))
          CFI (cfiCond185) V5 load(1, XDATA, add(CFA_XSP16, literal(-11)))
          CFI (cfiCond185) V6 load(1, XDATA, add(CFA_XSP16, literal(-10)))
          CFI (cfiCond185) V7 load(1, XDATA, add(CFA_XSP16, literal(-9)))
          CFI (cfiCond185) V8 load(1, XDATA, add(CFA_XSP16, literal(-8)))
          CFI (cfiCond185) V9 load(1, XDATA, add(CFA_XSP16, literal(-7)))
          CFI (cfiCond185) R7 load(1, XDATA, add(CFA_XSP16, literal(-6)))
          CFI (cfiCond185) ?RET_LOW load(1, XDATA, add(CFA_XSP16, literal(-5)))
          CFI (cfiCond185) ?RET_HIGH load(1, XDATA, add(CFA_XSP16, literal(-4)))
          CFI (cfiCond185) ?BRET_EXT load(1, XDATA, add(CFA_XSP16, literal(-3)))
          CFI (cfiCond185) DPL0 load(1, XDATA, add(CFA_XSP16, literal(-2)))
          CFI (cfiCond185) DPH0 load(1, XDATA, add(CFA_XSP16, literal(-1)))
          CFI (cfiCond185) CFA_SP SP+-2
          CFI (cfiCond185) CFA_XSP16 add(XSP16, 35)
          CFI Block cfiPicker186 Using cfiCommon1
          CFI (cfiPicker186) NoFunction
          CFI (cfiPicker186) Picker
        MOVX      A,@DPTR
        MOV       R0,A
        MOV       A,?V2
        CLR       C
        SUBB      A,R0
        RET
          CFI EndBlock cfiCond182
          CFI EndBlock cfiCond183
          CFI EndBlock cfiCond184
          CFI EndBlock cfiCond185
          CFI EndBlock cfiPicker186

        RSEG BANKED_CODE:HUGECODE:NOROOT(0)
?Subroutine20:
          CFI Block cfiCond187 Using cfiCommon0
          CFI Function zclController_ProcessInReadReportCfgRspCmd
          CFI Conditional ??CrossCallReturnLabel_24
          CFI R6 load(1, XDATA, add(CFA_XSP16, literal(-20)))
          CFI VB load(1, XDATA, add(CFA_XSP16, literal(-19)))
          CFI V0 load(1, XDATA, add(CFA_XSP16, literal(-18)))
          CFI V1 load(1, XDATA, add(CFA_XSP16, literal(-17)))
          CFI V2 load(1, XDATA, add(CFA_XSP16, literal(-16)))
          CFI V3 load(1, XDATA, add(CFA_XSP16, literal(-15)))
          CFI V4 load(1, XDATA, add(CFA_XSP16, literal(-14)))
          CFI V5 load(1, XDATA, add(CFA_XSP16, literal(-13)))
          CFI V6 load(1, XDATA, add(CFA_XSP16, literal(-12)))
          CFI V7 load(1, XDATA, add(CFA_XSP16, literal(-11)))
          CFI V8 load(1, XDATA, add(CFA_XSP16, literal(-10)))
          CFI V9 load(1, XDATA, add(CFA_XSP16, literal(-9)))
          CFI V10 load(1, XDATA, add(CFA_XSP16, literal(-8)))
          CFI V11 load(1, XDATA, add(CFA_XSP16, literal(-7)))
          CFI R7 load(1, XDATA, add(CFA_XSP16, literal(-6)))
          CFI ?RET_LOW load(1, XDATA, add(CFA_XSP16, literal(-5)))
          CFI ?RET_HIGH load(1, XDATA, add(CFA_XSP16, literal(-4)))
          CFI ?BRET_EXT load(1, XDATA, add(CFA_XSP16, literal(-3)))
          CFI DPL0 load(1, XDATA, add(CFA_XSP16, literal(-2)))
          CFI DPH0 load(1, XDATA, add(CFA_XSP16, literal(-1)))
          CFI CFA_SP SP+-2
          CFI CFA_XSP16 add(XSP16, 20)
          CFI Block cfiCond188 Using cfiCommon0
          CFI (cfiCond188) Function zclController_ProcessInConfigReportRspCmd
          CFI (cfiCond188) Conditional ??CrossCallReturnLabel_25
          CFI (cfiCond188) R6 load(1, XDATA, add(CFA_XSP16, literal(-16)))
          CFI (cfiCond188) VB load(1, XDATA, add(CFA_XSP16, literal(-15)))
          CFI (cfiCond188) V0 load(1, XDATA, add(CFA_XSP16, literal(-14)))
          CFI (cfiCond188) V1 load(1, XDATA, add(CFA_XSP16, literal(-13)))
          CFI (cfiCond188) V2 load(1, XDATA, add(CFA_XSP16, literal(-12)))
          CFI (cfiCond188) V3 load(1, XDATA, add(CFA_XSP16, literal(-11)))
          CFI (cfiCond188) V4 load(1, XDATA, add(CFA_XSP16, literal(-10)))
          CFI (cfiCond188) V5 load(1, XDATA, add(CFA_XSP16, literal(-9)))
          CFI (cfiCond188) V6 load(1, XDATA, add(CFA_XSP16, literal(-8)))
          CFI (cfiCond188) V7 load(1, XDATA, add(CFA_XSP16, literal(-7)))
          CFI (cfiCond188) R7 load(1, XDATA, add(CFA_XSP16, literal(-6)))
          CFI (cfiCond188) ?RET_LOW load(1, XDATA, add(CFA_XSP16, literal(-5)))
          CFI (cfiCond188) ?RET_HIGH load(1, XDATA, add(CFA_XSP16, literal(-4)))
          CFI (cfiCond188) ?BRET_EXT load(1, XDATA, add(CFA_XSP16, literal(-3)))
          CFI (cfiCond188) DPL0 load(1, XDATA, add(CFA_XSP16, literal(-2)))
          CFI (cfiCond188) DPH0 load(1, XDATA, add(CFA_XSP16, literal(-1)))
          CFI (cfiCond188) CFA_SP SP+-2
          CFI (cfiCond188) CFA_XSP16 add(XSP16, 16)
          CFI Block cfiPicker189 Using cfiCommon1
          CFI (cfiPicker189) NoFunction
          CFI (cfiPicker189) Picker
        MOV       DPL,R2
        MOV       DPH,R3
        LCALL     ?Subroutine44 & 0xFFFF
??CrossCallReturnLabel_81:
        ADD       A,#0x17
        MOV       DPL,A
        CLR       A
        ADDC      A,R3
        RET
          CFI EndBlock cfiCond187
          CFI EndBlock cfiCond188
          CFI EndBlock cfiPicker189

        RSEG BANKED_CODE:HUGECODE:NOROOT(0)
?Subroutine44:
          CFI Block cfiCond190 Using cfiCommon0
          CFI Function AT_zclController_ProcessIncomingMsg
          CFI Conditional ??CrossCallReturnLabel_80
          CFI R6 load(1, XDATA, add(CFA_XSP16, literal(-20)))
          CFI VB load(1, XDATA, add(CFA_XSP16, literal(-19)))
          CFI V0 load(1, XDATA, add(CFA_XSP16, literal(-18)))
          CFI V1 load(1, XDATA, add(CFA_XSP16, literal(-17)))
          CFI V2 load(1, XDATA, add(CFA_XSP16, literal(-16)))
          CFI V3 load(1, XDATA, add(CFA_XSP16, literal(-15)))
          CFI V4 load(1, XDATA, add(CFA_XSP16, literal(-14)))
          CFI V5 load(1, XDATA, add(CFA_XSP16, literal(-13)))
          CFI V6 load(1, XDATA, add(CFA_XSP16, literal(-12)))
          CFI V7 load(1, XDATA, add(CFA_XSP16, literal(-11)))
          CFI V8 load(1, XDATA, add(CFA_XSP16, literal(-10)))
          CFI V9 load(1, XDATA, add(CFA_XSP16, literal(-9)))
          CFI V10 load(1, XDATA, add(CFA_XSP16, literal(-8)))
          CFI V11 load(1, XDATA, add(CFA_XSP16, literal(-7)))
          CFI R7 load(1, XDATA, add(CFA_XSP16, literal(-6)))
          CFI ?RET_LOW load(1, XDATA, add(CFA_XSP16, literal(-5)))
          CFI ?RET_HIGH load(1, XDATA, add(CFA_XSP16, literal(-4)))
          CFI ?BRET_EXT load(1, XDATA, add(CFA_XSP16, literal(-3)))
          CFI DPL0 load(1, XDATA, add(CFA_XSP16, literal(-2)))
          CFI DPH0 load(1, XDATA, add(CFA_XSP16, literal(-1)))
          CFI CFA_SP SP+-2
          CFI CFA_XSP16 add(XSP16, 20)
          CFI Block cfiCond191 Using cfiCommon0
          CFI (cfiCond191) Function zclController_ProcessInReadReportCfgRspCmd
          CFI (cfiCond191) Conditional ??CrossCallReturnLabel_81, ??CrossCallReturnLabel_24
          CFI (cfiCond191) R6 load(1, XDATA, add(CFA_XSP16, literal(-20)))
          CFI (cfiCond191) VB load(1, XDATA, add(CFA_XSP16, literal(-19)))
          CFI (cfiCond191) V0 load(1, XDATA, add(CFA_XSP16, literal(-18)))
          CFI (cfiCond191) V1 load(1, XDATA, add(CFA_XSP16, literal(-17)))
          CFI (cfiCond191) V2 load(1, XDATA, add(CFA_XSP16, literal(-16)))
          CFI (cfiCond191) V3 load(1, XDATA, add(CFA_XSP16, literal(-15)))
          CFI (cfiCond191) V4 load(1, XDATA, add(CFA_XSP16, literal(-14)))
          CFI (cfiCond191) V5 load(1, XDATA, add(CFA_XSP16, literal(-13)))
          CFI (cfiCond191) V6 load(1, XDATA, add(CFA_XSP16, literal(-12)))
          CFI (cfiCond191) V7 load(1, XDATA, add(CFA_XSP16, literal(-11)))
          CFI (cfiCond191) V8 load(1, XDATA, add(CFA_XSP16, literal(-10)))
          CFI (cfiCond191) V9 load(1, XDATA, add(CFA_XSP16, literal(-9)))
          CFI (cfiCond191) V10 load(1, XDATA, add(CFA_XSP16, literal(-8)))
          CFI (cfiCond191) V11 load(1, XDATA, add(CFA_XSP16, literal(-7)))
          CFI (cfiCond191) R7 load(1, XDATA, add(CFA_XSP16, literal(-6)))
          CFI (cfiCond191) ?RET_LOW load(1, XDATA, add(CFA_XSP16, literal(-5)))
          CFI (cfiCond191) ?RET_HIGH load(1, XDATA, add(CFA_XSP16, literal(-4)))
          CFI (cfiCond191) ?BRET_EXT load(1, XDATA, add(CFA_XSP16, literal(-3)))
          CFI (cfiCond191) DPL0 load(1, XDATA, add(CFA_XSP16, literal(-2)))
          CFI (cfiCond191) DPH0 load(1, XDATA, add(CFA_XSP16, literal(-1)))
          CFI (cfiCond191) CFA_SP SP+-4
          CFI (cfiCond191) CFA_XSP16 add(XSP16, 20)
          CFI Block cfiCond192 Using cfiCommon0
          CFI (cfiCond192) Function zclController_ProcessInConfigReportRspCmd
          CFI (cfiCond192) Conditional ??CrossCallReturnLabel_81, ??CrossCallReturnLabel_25
          CFI (cfiCond192) R6 load(1, XDATA, add(CFA_XSP16, literal(-16)))
          CFI (cfiCond192) VB load(1, XDATA, add(CFA_XSP16, literal(-15)))
          CFI (cfiCond192) V0 load(1, XDATA, add(CFA_XSP16, literal(-14)))
          CFI (cfiCond192) V1 load(1, XDATA, add(CFA_XSP16, literal(-13)))
          CFI (cfiCond192) V2 load(1, XDATA, add(CFA_XSP16, literal(-12)))
          CFI (cfiCond192) V3 load(1, XDATA, add(CFA_XSP16, literal(-11)))
          CFI (cfiCond192) V4 load(1, XDATA, add(CFA_XSP16, literal(-10)))
          CFI (cfiCond192) V5 load(1, XDATA, add(CFA_XSP16, literal(-9)))
          CFI (cfiCond192) V6 load(1, XDATA, add(CFA_XSP16, literal(-8)))
          CFI (cfiCond192) V7 load(1, XDATA, add(CFA_XSP16, literal(-7)))
          CFI (cfiCond192) R7 load(1, XDATA, add(CFA_XSP16, literal(-6)))
          CFI (cfiCond192) ?RET_LOW load(1, XDATA, add(CFA_XSP16, literal(-5)))
          CFI (cfiCond192) ?RET_HIGH load(1, XDATA, add(CFA_XSP16, literal(-4)))
          CFI (cfiCond192) ?BRET_EXT load(1, XDATA, add(CFA_XSP16, literal(-3)))
          CFI (cfiCond192) DPL0 load(1, XDATA, add(CFA_XSP16, literal(-2)))
          CFI (cfiCond192) DPH0 load(1, XDATA, add(CFA_XSP16, literal(-1)))
          CFI (cfiCond192) CFA_SP SP+-4
          CFI (cfiCond192) CFA_XSP16 add(XSP16, 16)
          CFI Block cfiPicker193 Using cfiCommon1
          CFI (cfiPicker193) NoFunction
          CFI (cfiPicker193) Picker
        INC       DPTR
        INC       DPTR
        INC       DPTR
        INC       DPTR
        INC       DPTR
        INC       DPTR
        INC       DPTR
        INC       DPTR
        MOVX      A,@DPTR
        MOV       ?V6,A
        INC       DPTR
        MOVX      A,@DPTR
        MOV       ?V7,A
        MOV       A,R2
        RET
          CFI EndBlock cfiCond190
          CFI EndBlock cfiCond191
          CFI EndBlock cfiCond192
          CFI EndBlock cfiPicker193

        RSEG BANKED_CODE:HUGECODE:NOROOT(0)
?Subroutine17:
          CFI Block cfiCond194 Using cfiCommon0
          CFI Function zclController_ProcessInReadReportCfgRspCmd
          CFI Conditional ??CrossCallReturnLabel_20
          CFI R6 load(1, XDATA, add(CFA_XSP16, literal(-20)))
          CFI VB load(1, XDATA, add(CFA_XSP16, literal(-19)))
          CFI V0 load(1, XDATA, add(CFA_XSP16, literal(-18)))
          CFI V1 load(1, XDATA, add(CFA_XSP16, literal(-17)))
          CFI V2 load(1, XDATA, add(CFA_XSP16, literal(-16)))
          CFI V3 load(1, XDATA, add(CFA_XSP16, literal(-15)))
          CFI V4 load(1, XDATA, add(CFA_XSP16, literal(-14)))
          CFI V5 load(1, XDATA, add(CFA_XSP16, literal(-13)))
          CFI V6 load(1, XDATA, add(CFA_XSP16, literal(-12)))
          CFI V7 load(1, XDATA, add(CFA_XSP16, literal(-11)))
          CFI V8 load(1, XDATA, add(CFA_XSP16, literal(-10)))
          CFI V9 load(1, XDATA, add(CFA_XSP16, literal(-9)))
          CFI V10 load(1, XDATA, add(CFA_XSP16, literal(-8)))
          CFI V11 load(1, XDATA, add(CFA_XSP16, literal(-7)))
          CFI R7 load(1, XDATA, add(CFA_XSP16, literal(-6)))
          CFI ?RET_LOW load(1, XDATA, add(CFA_XSP16, literal(-5)))
          CFI ?RET_HIGH load(1, XDATA, add(CFA_XSP16, literal(-4)))
          CFI ?BRET_EXT load(1, XDATA, add(CFA_XSP16, literal(-3)))
          CFI DPL0 load(1, XDATA, add(CFA_XSP16, literal(-2)))
          CFI DPH0 load(1, XDATA, add(CFA_XSP16, literal(-1)))
          CFI CFA_SP SP+-2
          CFI CFA_XSP16 add(XSP16, 20)
          CFI Block cfiCond195 Using cfiCommon0
          CFI (cfiCond195) Function zclController_ProcessInConfigReportRspCmd
          CFI (cfiCond195) Conditional ??CrossCallReturnLabel_21
          CFI (cfiCond195) R6 load(1, XDATA, add(CFA_XSP16, literal(-16)))
          CFI (cfiCond195) VB load(1, XDATA, add(CFA_XSP16, literal(-15)))
          CFI (cfiCond195) V0 load(1, XDATA, add(CFA_XSP16, literal(-14)))
          CFI (cfiCond195) V1 load(1, XDATA, add(CFA_XSP16, literal(-13)))
          CFI (cfiCond195) V2 load(1, XDATA, add(CFA_XSP16, literal(-12)))
          CFI (cfiCond195) V3 load(1, XDATA, add(CFA_XSP16, literal(-11)))
          CFI (cfiCond195) V4 load(1, XDATA, add(CFA_XSP16, literal(-10)))
          CFI (cfiCond195) V5 load(1, XDATA, add(CFA_XSP16, literal(-9)))
          CFI (cfiCond195) V6 load(1, XDATA, add(CFA_XSP16, literal(-8)))
          CFI (cfiCond195) V7 load(1, XDATA, add(CFA_XSP16, literal(-7)))
          CFI (cfiCond195) R7 load(1, XDATA, add(CFA_XSP16, literal(-6)))
          CFI (cfiCond195) ?RET_LOW load(1, XDATA, add(CFA_XSP16, literal(-5)))
          CFI (cfiCond195) ?RET_HIGH load(1, XDATA, add(CFA_XSP16, literal(-4)))
          CFI (cfiCond195) ?BRET_EXT load(1, XDATA, add(CFA_XSP16, literal(-3)))
          CFI (cfiCond195) DPL0 load(1, XDATA, add(CFA_XSP16, literal(-2)))
          CFI (cfiCond195) DPH0 load(1, XDATA, add(CFA_XSP16, literal(-1)))
          CFI (cfiCond195) CFA_SP SP+-2
          CFI (cfiCond195) CFA_XSP16 add(XSP16, 16)
          CFI Block cfiPicker196 Using cfiCommon1
          CFI (cfiPicker196) NoFunction
          CFI (cfiPicker196) Picker
        MOV       DPL,R2
        MOV       DPH,R3
        INC       DPTR
        INC       DPTR
        INC       DPTR
        INC       DPTR
        INC       DPTR
        INC       DPTR
        INC       DPTR
        INC       DPTR
        INC       DPTR
        INC       DPTR
        MOVX      A,@DPTR
        MOV       ?V4,A
        INC       DPTR
        MOVX      A,@DPTR
        MOV       ?V5,A
        MOV       A,R2
        ADD       A,#0x13
        MOV       DPL,A
        CLR       A
        ADDC      A,R3
        MOV       DPH,A
        MOVX      A,@DPTR
        RET
          CFI EndBlock cfiCond194
          CFI EndBlock cfiCond195
          CFI EndBlock cfiPicker196
//  994 
//  995 #endif // ZCL_REPORT_CONFIGURING_DEVICE
//  996 
//  997 #ifdef ZCL_REPORT_DESTINATION_DEVICE
//  998 /*********************************************************************
//  999  * @fn      zclController_ProcessInReportCmd
// 1000  *
// 1001  * @brief   Process the "Profile" Report Command
// 1002  *
// 1003  * @param   pInMsg - incoming message to process
// 1004  *
// 1005  * @return  none
// 1006  */

        RSEG BANKED_CODE:HUGECODE:NOROOT(0)
// 1007 static void zclController_ProcessInReportCmd( zclIncomingMsg_t *pInMsg )
zclController_ProcessInReportCmd:
          CFI Block cfiBlock197 Using cfiCommon0
          CFI Function zclController_ProcessInReportCmd
        CODE
// 1008 {
        FUNCALL zclController_ProcessInReportCmd, AT_Uart0_Send
        LOCFRAME ISTACK, 0, STACK
        LOCFRAME PSTACK, 0, STACK
        LOCFRAME XSTACK, 35, STACK
        LOCFRAME IOVERLAY, 0, STATIC
        LOCFRAME DOVERLAY, 0, STATIC
        ARGFRAME ISTACK, 0, STACK
        ARGFRAME PSTACK, 0, STACK
        ARGFRAME XSTACK, 35, STACK
        ARGFRAME IOVERLAY, 0, STATIC
        ARGFRAME DOVERLAY, 0, STATIC
        FUNCALL zclController_ProcessInReportCmd, AT_Uart0_Send
        LOCFRAME ISTACK, 0, STACK
        LOCFRAME PSTACK, 0, STACK
        LOCFRAME XSTACK, 35, STACK
        LOCFRAME IOVERLAY, 0, STATIC
        LOCFRAME DOVERLAY, 0, STATIC
        ARGFRAME ISTACK, 0, STACK
        ARGFRAME PSTACK, 0, STACK
        ARGFRAME XSTACK, 35, STACK
        ARGFRAME IOVERLAY, 0, STATIC
        ARGFRAME DOVERLAY, 0, STATIC
        FUNCALL zclController_ProcessInReportCmd, AT_Int16toChar
        LOCFRAME ISTACK, 0, STACK
        LOCFRAME PSTACK, 0, STACK
        LOCFRAME XSTACK, 35, STACK
        LOCFRAME IOVERLAY, 0, STATIC
        LOCFRAME DOVERLAY, 0, STATIC
        ARGFRAME ISTACK, 0, STACK
        ARGFRAME PSTACK, 0, STACK
        ARGFRAME XSTACK, 35, STACK
        ARGFRAME IOVERLAY, 0, STATIC
        ARGFRAME DOVERLAY, 0, STATIC
        FUNCALL zclController_ProcessInReportCmd, AT_Uart0_Send
        LOCFRAME ISTACK, 0, STACK
        LOCFRAME PSTACK, 0, STACK
        LOCFRAME XSTACK, 35, STACK
        LOCFRAME IOVERLAY, 0, STATIC
        LOCFRAME DOVERLAY, 0, STATIC
        ARGFRAME ISTACK, 0, STACK
        ARGFRAME PSTACK, 0, STACK
        ARGFRAME XSTACK, 35, STACK
        ARGFRAME IOVERLAY, 0, STATIC
        ARGFRAME DOVERLAY, 0, STATIC
        FUNCALL zclController_ProcessInReportCmd, AT_GetIEEEAddrStr
        LOCFRAME ISTACK, 0, STACK
        LOCFRAME PSTACK, 0, STACK
        LOCFRAME XSTACK, 35, STACK
        LOCFRAME IOVERLAY, 0, STATIC
        LOCFRAME DOVERLAY, 0, STATIC
        ARGFRAME ISTACK, 0, STACK
        ARGFRAME PSTACK, 0, STACK
        ARGFRAME XSTACK, 35, STACK
        ARGFRAME IOVERLAY, 0, STATIC
        ARGFRAME DOVERLAY, 0, STATIC
        FUNCALL zclController_ProcessInReportCmd, AT_Uart0_Send
        LOCFRAME ISTACK, 0, STACK
        LOCFRAME PSTACK, 0, STACK
        LOCFRAME XSTACK, 35, STACK
        LOCFRAME IOVERLAY, 0, STATIC
        LOCFRAME DOVERLAY, 0, STATIC
        ARGFRAME ISTACK, 0, STACK
        ARGFRAME PSTACK, 0, STACK
        ARGFRAME XSTACK, 35, STACK
        ARGFRAME IOVERLAY, 0, STATIC
        ARGFRAME DOVERLAY, 0, STATIC
        FUNCALL zclController_ProcessInReportCmd, AT_Uart0_Send
        LOCFRAME ISTACK, 0, STACK
        LOCFRAME PSTACK, 0, STACK
        LOCFRAME XSTACK, 35, STACK
        LOCFRAME IOVERLAY, 0, STATIC
        LOCFRAME DOVERLAY, 0, STATIC
        ARGFRAME ISTACK, 0, STACK
        ARGFRAME PSTACK, 0, STACK
        ARGFRAME XSTACK, 35, STACK
        ARGFRAME IOVERLAY, 0, STATIC
        ARGFRAME DOVERLAY, 0, STATIC
        FUNCALL zclController_ProcessInReportCmd, AT_Int8toChar
        LOCFRAME ISTACK, 0, STACK
        LOCFRAME PSTACK, 0, STACK
        LOCFRAME XSTACK, 35, STACK
        LOCFRAME IOVERLAY, 0, STATIC
        LOCFRAME DOVERLAY, 0, STATIC
        ARGFRAME ISTACK, 0, STACK
        ARGFRAME PSTACK, 0, STACK
        ARGFRAME XSTACK, 35, STACK
        ARGFRAME IOVERLAY, 0, STATIC
        ARGFRAME DOVERLAY, 0, STATIC
        FUNCALL zclController_ProcessInReportCmd, AT_Uart0_Send
        LOCFRAME ISTACK, 0, STACK
        LOCFRAME PSTACK, 0, STACK
        LOCFRAME XSTACK, 35, STACK
        LOCFRAME IOVERLAY, 0, STATIC
        LOCFRAME DOVERLAY, 0, STATIC
        ARGFRAME ISTACK, 0, STACK
        ARGFRAME PSTACK, 0, STACK
        ARGFRAME XSTACK, 35, STACK
        ARGFRAME IOVERLAY, 0, STATIC
        ARGFRAME DOVERLAY, 0, STATIC
        FUNCALL zclController_ProcessInReportCmd, AT_Uart0_Send
        LOCFRAME ISTACK, 0, STACK
        LOCFRAME PSTACK, 0, STACK
        LOCFRAME XSTACK, 35, STACK
        LOCFRAME IOVERLAY, 0, STATIC
        LOCFRAME DOVERLAY, 0, STATIC
        ARGFRAME ISTACK, 0, STACK
        ARGFRAME PSTACK, 0, STACK
        ARGFRAME XSTACK, 35, STACK
        ARGFRAME IOVERLAY, 0, STATIC
        ARGFRAME DOVERLAY, 0, STATIC
        FUNCALL zclController_ProcessInReportCmd, AT_Int16toChar
        LOCFRAME ISTACK, 0, STACK
        LOCFRAME PSTACK, 0, STACK
        LOCFRAME XSTACK, 35, STACK
        LOCFRAME IOVERLAY, 0, STATIC
        LOCFRAME DOVERLAY, 0, STATIC
        ARGFRAME ISTACK, 0, STACK
        ARGFRAME PSTACK, 0, STACK
        ARGFRAME XSTACK, 35, STACK
        ARGFRAME IOVERLAY, 0, STATIC
        ARGFRAME DOVERLAY, 0, STATIC
        FUNCALL zclController_ProcessInReportCmd, AT_Uart0_Send
        LOCFRAME ISTACK, 0, STACK
        LOCFRAME PSTACK, 0, STACK
        LOCFRAME XSTACK, 35, STACK
        LOCFRAME IOVERLAY, 0, STATIC
        LOCFRAME DOVERLAY, 0, STATIC
        ARGFRAME ISTACK, 0, STACK
        ARGFRAME PSTACK, 0, STACK
        ARGFRAME XSTACK, 35, STACK
        ARGFRAME IOVERLAY, 0, STATIC
        ARGFRAME DOVERLAY, 0, STATIC
        FUNCALL zclController_ProcessInReportCmd, AT_Uart0_Send
        LOCFRAME ISTACK, 0, STACK
        LOCFRAME PSTACK, 0, STACK
        LOCFRAME XSTACK, 35, STACK
        LOCFRAME IOVERLAY, 0, STATIC
        LOCFRAME DOVERLAY, 0, STATIC
        ARGFRAME ISTACK, 0, STACK
        ARGFRAME PSTACK, 0, STACK
        ARGFRAME XSTACK, 35, STACK
        ARGFRAME IOVERLAY, 0, STATIC
        ARGFRAME DOVERLAY, 0, STATIC
        FUNCALL zclController_ProcessInReportCmd, AT_Int8toChar
        LOCFRAME ISTACK, 0, STACK
        LOCFRAME PSTACK, 0, STACK
        LOCFRAME XSTACK, 35, STACK
        LOCFRAME IOVERLAY, 0, STATIC
        LOCFRAME DOVERLAY, 0, STATIC
        ARGFRAME ISTACK, 0, STACK
        ARGFRAME PSTACK, 0, STACK
        ARGFRAME XSTACK, 35, STACK
        ARGFRAME IOVERLAY, 0, STATIC
        ARGFRAME DOVERLAY, 0, STATIC
        FUNCALL zclController_ProcessInReportCmd, AT_Uart0_Send
        LOCFRAME ISTACK, 0, STACK
        LOCFRAME PSTACK, 0, STACK
        LOCFRAME XSTACK, 35, STACK
        LOCFRAME IOVERLAY, 0, STATIC
        LOCFRAME DOVERLAY, 0, STATIC
        ARGFRAME ISTACK, 0, STACK
        ARGFRAME PSTACK, 0, STACK
        ARGFRAME XSTACK, 35, STACK
        ARGFRAME IOVERLAY, 0, STATIC
        ARGFRAME DOVERLAY, 0, STATIC
        FUNCALL zclController_ProcessInReportCmd, AT_Uart0_Send
        LOCFRAME ISTACK, 0, STACK
        LOCFRAME PSTACK, 0, STACK
        LOCFRAME XSTACK, 35, STACK
        LOCFRAME IOVERLAY, 0, STATIC
        LOCFRAME DOVERLAY, 0, STATIC
        ARGFRAME ISTACK, 0, STACK
        ARGFRAME PSTACK, 0, STACK
        ARGFRAME XSTACK, 35, STACK
        ARGFRAME IOVERLAY, 0, STATIC
        ARGFRAME DOVERLAY, 0, STATIC
        FUNCALL zclController_ProcessInReportCmd, AT_Int8toChar
        LOCFRAME ISTACK, 0, STACK
        LOCFRAME PSTACK, 0, STACK
        LOCFRAME XSTACK, 35, STACK
        LOCFRAME IOVERLAY, 0, STATIC
        LOCFRAME DOVERLAY, 0, STATIC
        ARGFRAME ISTACK, 0, STACK
        ARGFRAME PSTACK, 0, STACK
        ARGFRAME XSTACK, 35, STACK
        ARGFRAME IOVERLAY, 0, STATIC
        ARGFRAME DOVERLAY, 0, STATIC
        FUNCALL zclController_ProcessInReportCmd, AT_Uart0_Send
        LOCFRAME ISTACK, 0, STACK
        LOCFRAME PSTACK, 0, STACK
        LOCFRAME XSTACK, 35, STACK
        LOCFRAME IOVERLAY, 0, STATIC
        LOCFRAME DOVERLAY, 0, STATIC
        ARGFRAME ISTACK, 0, STACK
        ARGFRAME PSTACK, 0, STACK
        ARGFRAME XSTACK, 35, STACK
        ARGFRAME IOVERLAY, 0, STATIC
        ARGFRAME DOVERLAY, 0, STATIC
        FUNCALL zclController_ProcessInReportCmd, AT_Uart0_Send
        LOCFRAME ISTACK, 0, STACK
        LOCFRAME PSTACK, 0, STACK
        LOCFRAME XSTACK, 35, STACK
        LOCFRAME IOVERLAY, 0, STATIC
        LOCFRAME DOVERLAY, 0, STATIC
        ARGFRAME ISTACK, 0, STACK
        ARGFRAME PSTACK, 0, STACK
        ARGFRAME XSTACK, 35, STACK
        ARGFRAME IOVERLAY, 0, STATIC
        ARGFRAME DOVERLAY, 0, STATIC
        FUNCALL zclController_ProcessInReportCmd, AT_Uart0_Send
        LOCFRAME ISTACK, 0, STACK
        LOCFRAME PSTACK, 0, STACK
        LOCFRAME XSTACK, 35, STACK
        LOCFRAME IOVERLAY, 0, STATIC
        LOCFRAME DOVERLAY, 0, STATIC
        ARGFRAME ISTACK, 0, STACK
        ARGFRAME PSTACK, 0, STACK
        ARGFRAME XSTACK, 35, STACK
        ARGFRAME IOVERLAY, 0, STATIC
        ARGFRAME DOVERLAY, 0, STATIC
        FUNCALL zclController_ProcessInReportCmd, AT_Int16toChar
        LOCFRAME ISTACK, 0, STACK
        LOCFRAME PSTACK, 0, STACK
        LOCFRAME XSTACK, 35, STACK
        LOCFRAME IOVERLAY, 0, STATIC
        LOCFRAME DOVERLAY, 0, STATIC
        ARGFRAME ISTACK, 0, STACK
        ARGFRAME PSTACK, 0, STACK
        ARGFRAME XSTACK, 35, STACK
        ARGFRAME IOVERLAY, 0, STATIC
        ARGFRAME DOVERLAY, 0, STATIC
        FUNCALL zclController_ProcessInReportCmd, AT_Uart0_Send
        LOCFRAME ISTACK, 0, STACK
        LOCFRAME PSTACK, 0, STACK
        LOCFRAME XSTACK, 35, STACK
        LOCFRAME IOVERLAY, 0, STATIC
        LOCFRAME DOVERLAY, 0, STATIC
        ARGFRAME ISTACK, 0, STACK
        ARGFRAME PSTACK, 0, STACK
        ARGFRAME XSTACK, 35, STACK
        ARGFRAME IOVERLAY, 0, STATIC
        ARGFRAME DOVERLAY, 0, STATIC
        FUNCALL zclController_ProcessInReportCmd, AT_Uart0_Send
        LOCFRAME ISTACK, 0, STACK
        LOCFRAME PSTACK, 0, STACK
        LOCFRAME XSTACK, 35, STACK
        LOCFRAME IOVERLAY, 0, STATIC
        LOCFRAME DOVERLAY, 0, STATIC
        ARGFRAME ISTACK, 0, STACK
        ARGFRAME PSTACK, 0, STACK
        ARGFRAME XSTACK, 35, STACK
        ARGFRAME IOVERLAY, 0, STATIC
        ARGFRAME DOVERLAY, 0, STATIC
        FUNCALL zclController_ProcessInReportCmd, AT_Int8toChar
        LOCFRAME ISTACK, 0, STACK
        LOCFRAME PSTACK, 0, STACK
        LOCFRAME XSTACK, 35, STACK
        LOCFRAME IOVERLAY, 0, STATIC
        LOCFRAME DOVERLAY, 0, STATIC
        ARGFRAME ISTACK, 0, STACK
        ARGFRAME PSTACK, 0, STACK
        ARGFRAME XSTACK, 35, STACK
        ARGFRAME IOVERLAY, 0, STATIC
        ARGFRAME DOVERLAY, 0, STATIC
        FUNCALL zclController_ProcessInReportCmd, AT_Uart0_Send
        LOCFRAME ISTACK, 0, STACK
        LOCFRAME PSTACK, 0, STACK
        LOCFRAME XSTACK, 35, STACK
        LOCFRAME IOVERLAY, 0, STATIC
        LOCFRAME DOVERLAY, 0, STATIC
        ARGFRAME ISTACK, 0, STACK
        ARGFRAME PSTACK, 0, STACK
        ARGFRAME XSTACK, 35, STACK
        ARGFRAME IOVERLAY, 0, STATIC
        ARGFRAME DOVERLAY, 0, STATIC
        FUNCALL zclController_ProcessInReportCmd, AT_Uart0_Send
        LOCFRAME ISTACK, 0, STACK
        LOCFRAME PSTACK, 0, STACK
        LOCFRAME XSTACK, 35, STACK
        LOCFRAME IOVERLAY, 0, STATIC
        LOCFRAME DOVERLAY, 0, STATIC
        ARGFRAME ISTACK, 0, STACK
        ARGFRAME PSTACK, 0, STACK
        ARGFRAME XSTACK, 35, STACK
        ARGFRAME IOVERLAY, 0, STATIC
        ARGFRAME DOVERLAY, 0, STATIC
        FUNCALL zclController_ProcessInReportCmd, AT_Uart0_Send
        LOCFRAME ISTACK, 0, STACK
        LOCFRAME PSTACK, 0, STACK
        LOCFRAME XSTACK, 35, STACK
        LOCFRAME IOVERLAY, 0, STATIC
        LOCFRAME DOVERLAY, 0, STATIC
        ARGFRAME ISTACK, 0, STACK
        ARGFRAME PSTACK, 0, STACK
        ARGFRAME XSTACK, 35, STACK
        ARGFRAME IOVERLAY, 0, STATIC
        ARGFRAME DOVERLAY, 0, STATIC
        FUNCALL zclController_ProcessInReportCmd, AT_Int16toChar
        LOCFRAME ISTACK, 0, STACK
        LOCFRAME PSTACK, 0, STACK
        LOCFRAME XSTACK, 35, STACK
        LOCFRAME IOVERLAY, 0, STATIC
        LOCFRAME DOVERLAY, 0, STATIC
        ARGFRAME ISTACK, 0, STACK
        ARGFRAME PSTACK, 0, STACK
        ARGFRAME XSTACK, 35, STACK
        ARGFRAME IOVERLAY, 0, STATIC
        ARGFRAME DOVERLAY, 0, STATIC
        FUNCALL zclController_ProcessInReportCmd, AT_Uart0_Send
        LOCFRAME ISTACK, 0, STACK
        LOCFRAME PSTACK, 0, STACK
        LOCFRAME XSTACK, 35, STACK
        LOCFRAME IOVERLAY, 0, STATIC
        LOCFRAME DOVERLAY, 0, STATIC
        ARGFRAME ISTACK, 0, STACK
        ARGFRAME PSTACK, 0, STACK
        ARGFRAME XSTACK, 35, STACK
        ARGFRAME IOVERLAY, 0, STATIC
        ARGFRAME DOVERLAY, 0, STATIC
        FUNCALL zclController_ProcessInReportCmd, AT_Uart0_Send
        LOCFRAME ISTACK, 0, STACK
        LOCFRAME PSTACK, 0, STACK
        LOCFRAME XSTACK, 35, STACK
        LOCFRAME IOVERLAY, 0, STATIC
        LOCFRAME DOVERLAY, 0, STATIC
        ARGFRAME ISTACK, 0, STACK
        ARGFRAME PSTACK, 0, STACK
        ARGFRAME XSTACK, 35, STACK
        ARGFRAME IOVERLAY, 0, STATIC
        ARGFRAME DOVERLAY, 0, STATIC
        FUNCALL zclController_ProcessInReportCmd, AT_Uart0_Send
        LOCFRAME ISTACK, 0, STACK
        LOCFRAME PSTACK, 0, STACK
        LOCFRAME XSTACK, 35, STACK
        LOCFRAME IOVERLAY, 0, STATIC
        LOCFRAME DOVERLAY, 0, STATIC
        ARGFRAME ISTACK, 0, STACK
        ARGFRAME PSTACK, 0, STACK
        ARGFRAME XSTACK, 35, STACK
        ARGFRAME IOVERLAY, 0, STATIC
        ARGFRAME DOVERLAY, 0, STATIC
        REQUIRE ?V0
        REQUIRE ?V1
        REQUIRE ?V2
        REQUIRE ?V4
        REQUIRE ?V5
        REQUIRE ?V6
        REQUIRE ?V7
        REQUIRE ?V8
        REQUIRE ?V9
        MOV       A,#-0x12
        LCALL     ?BANKED_ENTER_XDATA
          CFI DPH0 load(1, XDATA, add(CFA_XSP16, literal(-1)))
          CFI DPL0 load(1, XDATA, add(CFA_XSP16, literal(-2)))
          CFI ?BRET_EXT load(1, XDATA, add(CFA_XSP16, literal(-3)))
          CFI ?RET_HIGH load(1, XDATA, add(CFA_XSP16, literal(-4)))
          CFI ?RET_LOW load(1, XDATA, add(CFA_XSP16, literal(-5)))
          CFI R7 load(1, XDATA, add(CFA_XSP16, literal(-6)))
          CFI V9 load(1, XDATA, add(CFA_XSP16, literal(-7)))
          CFI V8 load(1, XDATA, add(CFA_XSP16, literal(-8)))
          CFI V7 load(1, XDATA, add(CFA_XSP16, literal(-9)))
          CFI V6 load(1, XDATA, add(CFA_XSP16, literal(-10)))
          CFI V5 load(1, XDATA, add(CFA_XSP16, literal(-11)))
          CFI V4 load(1, XDATA, add(CFA_XSP16, literal(-12)))
          CFI V3 load(1, XDATA, add(CFA_XSP16, literal(-13)))
          CFI V2 load(1, XDATA, add(CFA_XSP16, literal(-14)))
          CFI V1 load(1, XDATA, add(CFA_XSP16, literal(-15)))
          CFI V0 load(1, XDATA, add(CFA_XSP16, literal(-16)))
          CFI VB load(1, XDATA, add(CFA_XSP16, literal(-17)))
          CFI R6 load(1, XDATA, add(CFA_XSP16, literal(-18)))
          CFI CFA_SP SP+0
          CFI CFA_XSP16 add(XSP16, 18)
        ; Saved register size: 18
        ; Auto size: 17
        MOV       A,#-0x11
        LCALL     ?ALLOC_XSTACK8
          CFI CFA_XSP16 add(XSP16, 35)
        MOV       ?V0,R2
        MOV       ?V1,R3
// 1009   zclReportCmd_t *pInDataReport;
// 1010   uint8 i;
// 1011   uint8 str[17];
// 1012 
// 1013   pInDataReport = (zclReportCmd_t *)pInMsg->attrCmd;
        MOV       A,R2
        ADD       A,#0x17
        LCALL     ?Subroutine30 & 0xFFFF
??CrossCallReturnLabel_47:
        LCALL     ??Subroutine58_0 & 0xFFFF
// 1014 
// 1015   AT_NEW_LINE();
??CrossCallReturnLabel_110:
        MOV       ?V6,#`?<Constant "\\r\\n">` & 0xff
        MOV       ?V7,#(`?<Constant "\\r\\n">` >> 8) & 0xff
        ; Setup parameters for call to function AT_Uart0_Send
        MOV       R4,#0x2
        MOV       R5,#0x0
        MOV       R2,?V6
        MOV       R3,?V7
        LCALL     `??AT_Uart0_Send::?relay`; Banked call to: AT_Uart0_Send
// 1016   AT_RESP("REPORT:", 7);
        ; Setup parameters for call to function AT_Uart0_Send
        MOV       R4,#0x7
        MOV       R5,#0x0
        MOV       R2,#`?<Constant "REPORT:">` & 0xff
        MOV       R3,#(`?<Constant "REPORT:">` >> 8) & 0xff
        LCALL     `??AT_Uart0_Send::?relay`; Banked call to: AT_Uart0_Send
// 1017 
// 1018   // Node Address
// 1019   if (pInMsg->srcAddr.addrMode == (afAddrMode_t)Addr16Bit) {
        MOV       A,?V0
        ADD       A,#0xa
        MOV       R2,A
        CLR       A
        ADDC      A,?V1
        MOV       R3,A
        MOV       A,?V0
        ADD       A,#0x12
        MOV       DPL,A
        CLR       A
        ADDC      A,?V1
        LCALL     ?Subroutine23 & 0xFFFF
??CrossCallReturnLabel_35:
        JNZ       ??zclController_ProcessInReportCmd_0
// 1020     AT_Int16toChar(pInMsg->srcAddr.addr.shortAddr, str);
        ; Setup parameters for call to function AT_Int16toChar
        MOV       DPL,R2
        MOV       DPH,R3
        LCALL     ??Subroutine60_0 & 0xFFFF
// 1021     AT_RESP(str, 4);
// 1022   } else {
??CrossCallReturnLabel_117:
        SJMP      ??zclController_ProcessInReportCmd_1
// 1023     AT_GetIEEEAddrStr(pInMsg->srcAddr.addr.extAddr, str);
??zclController_ProcessInReportCmd_0:
        ; Setup parameters for call to function AT_GetIEEEAddrStr
        LCALL     `??AT_GetIEEEAddrStr::?relay`; Banked call to: AT_GetIEEEAddrStr
// 1024     AT_RESP(str, 16);
        ; Setup parameters for call to function AT_Uart0_Send
        MOV       R4,#0x10
// 1025   }
??zclController_ProcessInReportCmd_1:
        LCALL     ?Subroutine31 & 0xFFFF
// 1026   AT_RESP(",", 1);
// 1027 
// 1028   // Endpoint
// 1029   AT_Int8toChar(pInMsg->srcAddr.endPoint, str);
??CrossCallReturnLabel_51:
        MOV       A,?V0
        LCALL     ?Subroutine37 & 0xFFFF
??CrossCallReturnLabel_67:
        ADDC      A,?V1
        LCALL     ?Subroutine8 & 0xFFFF
// 1030   AT_RESP(str, 2);
// 1031   AT_RESP(",", 1);
// 1032 
// 1033   // Cluster ID
// 1034   AT_Int16toChar(pInMsg->clusterId, str);
??CrossCallReturnLabel_5:
        MOV       DPL,?V0
        MOV       DPH,?V1
        INC       DPTR
        INC       DPTR
        INC       DPTR
        INC       DPTR
        INC       DPTR
        INC       DPTR
        INC       DPTR
        LCALL     ?Subroutine7 & 0xFFFF
// 1035   AT_RESP(str, 4);
// 1036   AT_RESP(",", 1);
// 1037 
// 1038   // numAttr
// 1039   AT_Int8toChar(pInDataReport->numAttr, str);
??CrossCallReturnLabel_3:
        MOV       DPL,?V8
        MOV       DPH,?V9
        LCALL     ?Subroutine15 & 0xFFFF
// 1040   AT_RESP(str, 2);
// 1041   AT_NEW_LINE();
??CrossCallReturnLabel_17:
        ; Setup parameters for call to function AT_Uart0_Send
        MOV       R4,#0x2
        MOV       R5,#0x0
        MOV       R2,?V6
        MOV       R3,?V7
        LCALL     `??AT_Uart0_Send::?relay`; Banked call to: AT_Uart0_Send
// 1042 
// 1043   for (i = 0; i < pInDataReport->numAttr; i++)
        MOV       ?V2,#0x0
        SJMP      ??zclController_ProcessInReportCmd_2
// 1044   {
// 1045     AT_RESP("RPTATTR:", 8);
// 1046 
// 1047     // Attribute ID
// 1048     AT_Int16toChar(pInDataReport->attrList[i].attrID, str);
// 1049     AT_RESP(str, 4);
// 1050     AT_RESP(",", 1);
// 1051 
// 1052     // Data type
// 1053     AT_Int8toChar(pInDataReport->attrList[i].dataType, str);
// 1054     AT_RESP(str,2);
// 1055     AT_RESP(",",1);
// 1056 
// 1057     // Attribute value
// 1058     if (pInDataReport->attrList[i].dataType == ZCL_DATATYPE_CHAR_STR) {
// 1059       AT_RESP(pInDataReport->attrList[i].attrData+1, pInDataReport->attrList[i].attrData[0]);
// 1060     } else if (pInDataReport->attrList[i].dataType == ZCL_DATATYPE_DATA16||
// 1061                pInDataReport->attrList[i].dataType == ZCL_DATATYPE_UINT16||
// 1062                pInDataReport->attrList[i].dataType == ZCL_DATATYPE_INT16) {
// 1063       AT_Int16toChar(*((uint16*)pInDataReport->attrList[i].attrData),str);
// 1064       AT_RESP(str, 4);
// 1065     } else {
// 1066       AT_Int8toChar((uint8)pInDataReport->attrList[i].attrData[0],str);
??zclController_ProcessInReportCmd_3:
        ; Setup parameters for call to function AT_Int8toChar
        LCALL     ?Subroutine18 & 0xFFFF
// 1067       AT_RESP(str,2);
// 1068     }
??CrossCallReturnLabel_23:
        MOV       R5,#0x0
        MOV       R2,?XSP + 0
        MOV       R3,?XSP + 1
??zclController_ProcessInReportCmd_4:
        LCALL     ?Subroutine34 & 0xFFFF
// 1069 
// 1070     AT_NEW_LINE();
??CrossCallReturnLabel_56:
        INC       ?V2
??zclController_ProcessInReportCmd_2:
        MOV       DPL,?V8
        MOV       DPH,?V9
        LCALL     ?Subroutine22 & 0xFFFF
??CrossCallReturnLabel_32:
        JNC       ??zclController_ProcessInReportCmd_5
        ; Setup parameters for call to function AT_Uart0_Send
        MOV       R4,#0x8
        MOV       R5,#0x0
        MOV       R2,#`?<Constant "RPTATTR:">` & 0xff
        MOV       R3,#(`?<Constant "RPTATTR:">` >> 8) & 0xff
        LCALL     `??AT_Uart0_Send::?relay`; Banked call to: AT_Uart0_Send
        MOV       A,?V2
        MOV       B,#0x5
        MUL       AB
        MOV       R0,A
        MOV       R1,B
        MOV       A,?V8
        ADD       A,R0
        MOV       ?V0,A
        MOV       A,?V9
        LCALL     ?Subroutine35 & 0xFFFF
??CrossCallReturnLabel_59:
        LCALL     ?Subroutine9 & 0xFFFF
??CrossCallReturnLabel_7:
        MOV       A,?V0
        ADD       A,#0x3
        LCALL     ?Subroutine6 & 0xFFFF
??CrossCallReturnLabel_1:
        ADD       A,#0x4
        LCALL     ?Subroutine30 & 0xFFFF
??CrossCallReturnLabel_48:
        MOV       A,#0x42
        XRL       A,R0
        JNZ       ??zclController_ProcessInReportCmd_6
        LCALL     ?Subroutine16 & 0xFFFF
??CrossCallReturnLabel_19:
        SJMP      ??zclController_ProcessInReportCmd_4
??zclController_ProcessInReportCmd_6:
        MOV       A,#0x9
        XRL       A,R0
        JZ        ??zclController_ProcessInReportCmd_7
        MOV       A,#0x21
        XRL       A,R0
        JZ        ??zclController_ProcessInReportCmd_7
        MOV       A,#0x29
        XRL       A,R0
        JNZ       ??zclController_ProcessInReportCmd_3
??zclController_ProcessInReportCmd_7:
        ; Setup parameters for call to function AT_Int16toChar
        LCALL     ?Subroutine11 & 0xFFFF
// 1071   }
??CrossCallReturnLabel_114:
        SJMP      ??CrossCallReturnLabel_23
// 1072   AT_RESP("END\r\n", 5);
??zclController_ProcessInReportCmd_5:
        ; Setup parameters for call to function AT_Uart0_Send
        MOV       R4,#0x5
        MOV       R5,#0x0
        MOV       R2,#`?<Constant "END\\r\\n">` & 0xff
        MOV       R3,#(`?<Constant "END\\r\\n">` >> 8) & 0xff
        LCALL     ?Subroutine34 & 0xFFFF
// 1073   AT_NEW_LINE();
// 1074 }
??CrossCallReturnLabel_57:
        MOV       A,#0x11
        LCALL     ?DEALLOC_XSTACK8
          CFI CFA_XSP16 add(XSP16, 18)
        MOV       R7,#0xa
        LJMP      ?BANKED_LEAVE_XDATA
          CFI EndBlock cfiBlock197

        RSEG BANKED_CODE:HUGECODE:NOROOT(0)
?Subroutine35:
          CFI Block cfiCond198 Using cfiCommon0
          CFI Function zclController_ProcessInReadRspCmd
          CFI Conditional ??CrossCallReturnLabel_58
          CFI R6 load(1, XDATA, add(CFA_XSP16, literal(-22)))
          CFI VB load(1, XDATA, add(CFA_XSP16, literal(-21)))
          CFI V0 load(1, XDATA, add(CFA_XSP16, literal(-20)))
          CFI V1 load(1, XDATA, add(CFA_XSP16, literal(-19)))
          CFI V2 load(1, XDATA, add(CFA_XSP16, literal(-18)))
          CFI V3 load(1, XDATA, add(CFA_XSP16, literal(-17)))
          CFI V4 load(1, XDATA, add(CFA_XSP16, literal(-16)))
          CFI V5 load(1, XDATA, add(CFA_XSP16, literal(-15)))
          CFI V6 load(1, XDATA, add(CFA_XSP16, literal(-14)))
          CFI V7 load(1, XDATA, add(CFA_XSP16, literal(-13)))
          CFI V8 load(1, XDATA, add(CFA_XSP16, literal(-12)))
          CFI V9 load(1, XDATA, add(CFA_XSP16, literal(-11)))
          CFI V10 load(1, XDATA, add(CFA_XSP16, literal(-10)))
          CFI V11 load(1, XDATA, add(CFA_XSP16, literal(-9)))
          CFI V12 load(1, XDATA, add(CFA_XSP16, literal(-8)))
          CFI V13 load(1, XDATA, add(CFA_XSP16, literal(-7)))
          CFI R7 load(1, XDATA, add(CFA_XSP16, literal(-6)))
          CFI ?RET_LOW load(1, XDATA, add(CFA_XSP16, literal(-5)))
          CFI ?RET_HIGH load(1, XDATA, add(CFA_XSP16, literal(-4)))
          CFI ?BRET_EXT load(1, XDATA, add(CFA_XSP16, literal(-3)))
          CFI DPL0 load(1, XDATA, add(CFA_XSP16, literal(-2)))
          CFI DPH0 load(1, XDATA, add(CFA_XSP16, literal(-1)))
          CFI CFA_SP SP+-2
          CFI CFA_XSP16 add(XSP16, 39)
          CFI Block cfiCond199 Using cfiCommon0
          CFI (cfiCond199) Function zclController_ProcessInReportCmd
          CFI (cfiCond199) Conditional ??CrossCallReturnLabel_59
          CFI (cfiCond199) R6 load(1, XDATA, add(CFA_XSP16, literal(-18)))
          CFI (cfiCond199) VB load(1, XDATA, add(CFA_XSP16, literal(-17)))
          CFI (cfiCond199) V0 load(1, XDATA, add(CFA_XSP16, literal(-16)))
          CFI (cfiCond199) V1 load(1, XDATA, add(CFA_XSP16, literal(-15)))
          CFI (cfiCond199) V2 load(1, XDATA, add(CFA_XSP16, literal(-14)))
          CFI (cfiCond199) V3 load(1, XDATA, add(CFA_XSP16, literal(-13)))
          CFI (cfiCond199) V4 load(1, XDATA, add(CFA_XSP16, literal(-12)))
          CFI (cfiCond199) V5 load(1, XDATA, add(CFA_XSP16, literal(-11)))
          CFI (cfiCond199) V6 load(1, XDATA, add(CFA_XSP16, literal(-10)))
          CFI (cfiCond199) V7 load(1, XDATA, add(CFA_XSP16, literal(-9)))
          CFI (cfiCond199) V8 load(1, XDATA, add(CFA_XSP16, literal(-8)))
          CFI (cfiCond199) V9 load(1, XDATA, add(CFA_XSP16, literal(-7)))
          CFI (cfiCond199) R7 load(1, XDATA, add(CFA_XSP16, literal(-6)))
          CFI (cfiCond199) ?RET_LOW load(1, XDATA, add(CFA_XSP16, literal(-5)))
          CFI (cfiCond199) ?RET_HIGH load(1, XDATA, add(CFA_XSP16, literal(-4)))
          CFI (cfiCond199) ?BRET_EXT load(1, XDATA, add(CFA_XSP16, literal(-3)))
          CFI (cfiCond199) DPL0 load(1, XDATA, add(CFA_XSP16, literal(-2)))
          CFI (cfiCond199) DPH0 load(1, XDATA, add(CFA_XSP16, literal(-1)))
          CFI (cfiCond199) CFA_SP SP+-2
          CFI (cfiCond199) CFA_XSP16 add(XSP16, 35)
          CFI Block cfiPicker200 Using cfiCommon1
          CFI (cfiPicker200) NoFunction
          CFI (cfiPicker200) Picker
        ADDC      A,R1
        MOV       ?V1,A
        ; Setup parameters for call to function AT_Int16toChar
        ; Setup parameters for call to function AT_Int16toChar
        MOV       R4,?XSP + 0
        MOV       R5,?XSP + 1
        MOV       DPL,?V0
        MOV       DPH,A
        RET
          CFI EndBlock cfiCond198
          CFI EndBlock cfiCond199
          CFI EndBlock cfiPicker200

        RSEG BANKED_CODE:HUGECODE:NOROOT(0)
?Subroutine34:
          CFI Block cfiCond201 Using cfiCommon0
          CFI Function zclController_ProcessInReportCmd
          CFI Conditional ??CrossCallReturnLabel_56
          CFI R6 load(1, XDATA, add(CFA_XSP16, literal(-18)))
          CFI VB load(1, XDATA, add(CFA_XSP16, literal(-17)))
          CFI V0 load(1, XDATA, add(CFA_XSP16, literal(-16)))
          CFI V1 load(1, XDATA, add(CFA_XSP16, literal(-15)))
          CFI V2 load(1, XDATA, add(CFA_XSP16, literal(-14)))
          CFI V3 load(1, XDATA, add(CFA_XSP16, literal(-13)))
          CFI V4 load(1, XDATA, add(CFA_XSP16, literal(-12)))
          CFI V5 load(1, XDATA, add(CFA_XSP16, literal(-11)))
          CFI V6 load(1, XDATA, add(CFA_XSP16, literal(-10)))
          CFI V7 load(1, XDATA, add(CFA_XSP16, literal(-9)))
          CFI V8 load(1, XDATA, add(CFA_XSP16, literal(-8)))
          CFI V9 load(1, XDATA, add(CFA_XSP16, literal(-7)))
          CFI R7 load(1, XDATA, add(CFA_XSP16, literal(-6)))
          CFI ?RET_LOW load(1, XDATA, add(CFA_XSP16, literal(-5)))
          CFI ?RET_HIGH load(1, XDATA, add(CFA_XSP16, literal(-4)))
          CFI ?BRET_EXT load(1, XDATA, add(CFA_XSP16, literal(-3)))
          CFI DPL0 load(1, XDATA, add(CFA_XSP16, literal(-2)))
          CFI DPH0 load(1, XDATA, add(CFA_XSP16, literal(-1)))
          CFI CFA_SP SP+-2
          CFI CFA_XSP16 add(XSP16, 35)
          CFI Block cfiCond202 Using cfiCommon0
          CFI (cfiCond202) Function zclController_ProcessInReportCmd
          CFI (cfiCond202) Conditional ??CrossCallReturnLabel_57
          CFI (cfiCond202) R6 load(1, XDATA, add(CFA_XSP16, literal(-18)))
          CFI (cfiCond202) VB load(1, XDATA, add(CFA_XSP16, literal(-17)))
          CFI (cfiCond202) V0 load(1, XDATA, add(CFA_XSP16, literal(-16)))
          CFI (cfiCond202) V1 load(1, XDATA, add(CFA_XSP16, literal(-15)))
          CFI (cfiCond202) V2 load(1, XDATA, add(CFA_XSP16, literal(-14)))
          CFI (cfiCond202) V3 load(1, XDATA, add(CFA_XSP16, literal(-13)))
          CFI (cfiCond202) V4 load(1, XDATA, add(CFA_XSP16, literal(-12)))
          CFI (cfiCond202) V5 load(1, XDATA, add(CFA_XSP16, literal(-11)))
          CFI (cfiCond202) V6 load(1, XDATA, add(CFA_XSP16, literal(-10)))
          CFI (cfiCond202) V7 load(1, XDATA, add(CFA_XSP16, literal(-9)))
          CFI (cfiCond202) V8 load(1, XDATA, add(CFA_XSP16, literal(-8)))
          CFI (cfiCond202) V9 load(1, XDATA, add(CFA_XSP16, literal(-7)))
          CFI (cfiCond202) R7 load(1, XDATA, add(CFA_XSP16, literal(-6)))
          CFI (cfiCond202) ?RET_LOW load(1, XDATA, add(CFA_XSP16, literal(-5)))
          CFI (cfiCond202) ?RET_HIGH load(1, XDATA, add(CFA_XSP16, literal(-4)))
          CFI (cfiCond202) ?BRET_EXT load(1, XDATA, add(CFA_XSP16, literal(-3)))
          CFI (cfiCond202) DPL0 load(1, XDATA, add(CFA_XSP16, literal(-2)))
          CFI (cfiCond202) DPH0 load(1, XDATA, add(CFA_XSP16, literal(-1)))
          CFI (cfiCond202) CFA_SP SP+-2
          CFI (cfiCond202) CFA_XSP16 add(XSP16, 35)
          CFI Block cfiPicker203 Using cfiCommon1
          CFI (cfiPicker203) NoFunction
          CFI (cfiPicker203) Picker
        LCALL     ?Subroutine53 & 0xFFFF
??CrossCallReturnLabel_98:
        MOV       R2,?V6
        MOV       R3,?V7
        LCALL     `??AT_Uart0_Send::?relay`; Banked call to: AT_Uart0_Send
        RET
          CFI EndBlock cfiCond201
          CFI EndBlock cfiCond202
          CFI EndBlock cfiPicker203

        RSEG BANKED_CODE:HUGECODE:NOROOT(0)
?Subroutine31:
          CFI Block cfiCond204 Using cfiCommon0
          CFI Function zclController_ProcessInReadRspCmd
          CFI Conditional ??CrossCallReturnLabel_50
          CFI R6 load(1, XDATA, add(CFA_XSP16, literal(-22)))
          CFI VB load(1, XDATA, add(CFA_XSP16, literal(-21)))
          CFI V0 load(1, XDATA, add(CFA_XSP16, literal(-20)))
          CFI V1 load(1, XDATA, add(CFA_XSP16, literal(-19)))
          CFI V2 load(1, XDATA, add(CFA_XSP16, literal(-18)))
          CFI V3 load(1, XDATA, add(CFA_XSP16, literal(-17)))
          CFI V4 load(1, XDATA, add(CFA_XSP16, literal(-16)))
          CFI V5 load(1, XDATA, add(CFA_XSP16, literal(-15)))
          CFI V6 load(1, XDATA, add(CFA_XSP16, literal(-14)))
          CFI V7 load(1, XDATA, add(CFA_XSP16, literal(-13)))
          CFI V8 load(1, XDATA, add(CFA_XSP16, literal(-12)))
          CFI V9 load(1, XDATA, add(CFA_XSP16, literal(-11)))
          CFI V10 load(1, XDATA, add(CFA_XSP16, literal(-10)))
          CFI V11 load(1, XDATA, add(CFA_XSP16, literal(-9)))
          CFI V12 load(1, XDATA, add(CFA_XSP16, literal(-8)))
          CFI V13 load(1, XDATA, add(CFA_XSP16, literal(-7)))
          CFI R7 load(1, XDATA, add(CFA_XSP16, literal(-6)))
          CFI ?RET_LOW load(1, XDATA, add(CFA_XSP16, literal(-5)))
          CFI ?RET_HIGH load(1, XDATA, add(CFA_XSP16, literal(-4)))
          CFI ?BRET_EXT load(1, XDATA, add(CFA_XSP16, literal(-3)))
          CFI DPL0 load(1, XDATA, add(CFA_XSP16, literal(-2)))
          CFI DPH0 load(1, XDATA, add(CFA_XSP16, literal(-1)))
          CFI CFA_SP SP+-2
          CFI CFA_XSP16 add(XSP16, 39)
          CFI Block cfiCond205 Using cfiCommon0
          CFI (cfiCond205) Function zclController_ProcessInReportCmd
          CFI (cfiCond205) Conditional ??CrossCallReturnLabel_51
          CFI (cfiCond205) R6 load(1, XDATA, add(CFA_XSP16, literal(-18)))
          CFI (cfiCond205) VB load(1, XDATA, add(CFA_XSP16, literal(-17)))
          CFI (cfiCond205) V0 load(1, XDATA, add(CFA_XSP16, literal(-16)))
          CFI (cfiCond205) V1 load(1, XDATA, add(CFA_XSP16, literal(-15)))
          CFI (cfiCond205) V2 load(1, XDATA, add(CFA_XSP16, literal(-14)))
          CFI (cfiCond205) V3 load(1, XDATA, add(CFA_XSP16, literal(-13)))
          CFI (cfiCond205) V4 load(1, XDATA, add(CFA_XSP16, literal(-12)))
          CFI (cfiCond205) V5 load(1, XDATA, add(CFA_XSP16, literal(-11)))
          CFI (cfiCond205) V6 load(1, XDATA, add(CFA_XSP16, literal(-10)))
          CFI (cfiCond205) V7 load(1, XDATA, add(CFA_XSP16, literal(-9)))
          CFI (cfiCond205) V8 load(1, XDATA, add(CFA_XSP16, literal(-8)))
          CFI (cfiCond205) V9 load(1, XDATA, add(CFA_XSP16, literal(-7)))
          CFI (cfiCond205) R7 load(1, XDATA, add(CFA_XSP16, literal(-6)))
          CFI (cfiCond205) ?RET_LOW load(1, XDATA, add(CFA_XSP16, literal(-5)))
          CFI (cfiCond205) ?RET_HIGH load(1, XDATA, add(CFA_XSP16, literal(-4)))
          CFI (cfiCond205) ?BRET_EXT load(1, XDATA, add(CFA_XSP16, literal(-3)))
          CFI (cfiCond205) DPL0 load(1, XDATA, add(CFA_XSP16, literal(-2)))
          CFI (cfiCond205) DPH0 load(1, XDATA, add(CFA_XSP16, literal(-1)))
          CFI (cfiCond205) CFA_SP SP+-2
          CFI (cfiCond205) CFA_XSP16 add(XSP16, 35)
          CFI Block cfiPicker206 Using cfiCommon1
          CFI (cfiPicker206) NoFunction
          CFI (cfiPicker206) Picker
        LCALL     ?Subroutine52 & 0xFFFF
??CrossCallReturnLabel_94:
        ; Setup parameters for call to function AT_Int8toChar
        ; Setup parameters for call to function AT_Int8toChar
        MOV       R2,?XSP + 0
        MOV       R3,?XSP + 1
        RET
          CFI EndBlock cfiCond204
          CFI EndBlock cfiCond205
          CFI EndBlock cfiPicker206

        RSEG BANKED_CODE:HUGECODE:NOROOT(0)
?Subroutine18:
          CFI Block cfiCond207 Using cfiCommon0
          CFI Function zclController_ProcessInReadRspCmd
          CFI Conditional ??CrossCallReturnLabel_22
          CFI R6 load(1, XDATA, add(CFA_XSP16, literal(-22)))
          CFI VB load(1, XDATA, add(CFA_XSP16, literal(-21)))
          CFI V0 load(1, XDATA, add(CFA_XSP16, literal(-20)))
          CFI V1 load(1, XDATA, add(CFA_XSP16, literal(-19)))
          CFI V2 load(1, XDATA, add(CFA_XSP16, literal(-18)))
          CFI V3 load(1, XDATA, add(CFA_XSP16, literal(-17)))
          CFI V4 load(1, XDATA, add(CFA_XSP16, literal(-16)))
          CFI V5 load(1, XDATA, add(CFA_XSP16, literal(-15)))
          CFI V6 load(1, XDATA, add(CFA_XSP16, literal(-14)))
          CFI V7 load(1, XDATA, add(CFA_XSP16, literal(-13)))
          CFI V8 load(1, XDATA, add(CFA_XSP16, literal(-12)))
          CFI V9 load(1, XDATA, add(CFA_XSP16, literal(-11)))
          CFI V10 load(1, XDATA, add(CFA_XSP16, literal(-10)))
          CFI V11 load(1, XDATA, add(CFA_XSP16, literal(-9)))
          CFI V12 load(1, XDATA, add(CFA_XSP16, literal(-8)))
          CFI V13 load(1, XDATA, add(CFA_XSP16, literal(-7)))
          CFI R7 load(1, XDATA, add(CFA_XSP16, literal(-6)))
          CFI ?RET_LOW load(1, XDATA, add(CFA_XSP16, literal(-5)))
          CFI ?RET_HIGH load(1, XDATA, add(CFA_XSP16, literal(-4)))
          CFI ?BRET_EXT load(1, XDATA, add(CFA_XSP16, literal(-3)))
          CFI DPL0 load(1, XDATA, add(CFA_XSP16, literal(-2)))
          CFI DPH0 load(1, XDATA, add(CFA_XSP16, literal(-1)))
          CFI CFA_SP SP+-2
          CFI CFA_XSP16 add(XSP16, 39)
          CFI Block cfiCond208 Using cfiCommon0
          CFI (cfiCond208) Function zclController_ProcessInReportCmd
          CFI (cfiCond208) Conditional ??CrossCallReturnLabel_23
          CFI (cfiCond208) R6 load(1, XDATA, add(CFA_XSP16, literal(-18)))
          CFI (cfiCond208) VB load(1, XDATA, add(CFA_XSP16, literal(-17)))
          CFI (cfiCond208) V0 load(1, XDATA, add(CFA_XSP16, literal(-16)))
          CFI (cfiCond208) V1 load(1, XDATA, add(CFA_XSP16, literal(-15)))
          CFI (cfiCond208) V2 load(1, XDATA, add(CFA_XSP16, literal(-14)))
          CFI (cfiCond208) V3 load(1, XDATA, add(CFA_XSP16, literal(-13)))
          CFI (cfiCond208) V4 load(1, XDATA, add(CFA_XSP16, literal(-12)))
          CFI (cfiCond208) V5 load(1, XDATA, add(CFA_XSP16, literal(-11)))
          CFI (cfiCond208) V6 load(1, XDATA, add(CFA_XSP16, literal(-10)))
          CFI (cfiCond208) V7 load(1, XDATA, add(CFA_XSP16, literal(-9)))
          CFI (cfiCond208) V8 load(1, XDATA, add(CFA_XSP16, literal(-8)))
          CFI (cfiCond208) V9 load(1, XDATA, add(CFA_XSP16, literal(-7)))
          CFI (cfiCond208) R7 load(1, XDATA, add(CFA_XSP16, literal(-6)))
          CFI (cfiCond208) ?RET_LOW load(1, XDATA, add(CFA_XSP16, literal(-5)))
          CFI (cfiCond208) ?RET_HIGH load(1, XDATA, add(CFA_XSP16, literal(-4)))
          CFI (cfiCond208) ?BRET_EXT load(1, XDATA, add(CFA_XSP16, literal(-3)))
          CFI (cfiCond208) DPL0 load(1, XDATA, add(CFA_XSP16, literal(-2)))
          CFI (cfiCond208) DPH0 load(1, XDATA, add(CFA_XSP16, literal(-1)))
          CFI (cfiCond208) CFA_SP SP+-2
          CFI (cfiCond208) CFA_XSP16 add(XSP16, 35)
          CFI Block cfiPicker209 Using cfiCommon1
          CFI (cfiPicker209) NoFunction
          CFI (cfiPicker209) Picker
        MOV       R2,?XSP + 0
        MOV       R3,?XSP + 1
        LCALL     ?Subroutine43 & 0xFFFF
??CrossCallReturnLabel_78:
        MOV       R1,A
        LCALL     `??AT_Int8toChar::?relay`; Banked call to: AT_Int8toChar
        ; Setup parameters for call to function AT_Uart0_Send
        ; Setup parameters for call to function AT_Uart0_Send
        MOV       R4,#0x2
        RET
          CFI EndBlock cfiCond207
          CFI EndBlock cfiCond208
          CFI EndBlock cfiPicker209

        RSEG BANKED_CODE:HUGECODE:NOROOT(0)
?Subroutine16:
          CFI Block cfiCond210 Using cfiCommon0
          CFI Function zclController_ProcessInReadRspCmd
          CFI Conditional ??CrossCallReturnLabel_18
          CFI R6 load(1, XDATA, add(CFA_XSP16, literal(-22)))
          CFI VB load(1, XDATA, add(CFA_XSP16, literal(-21)))
          CFI V0 load(1, XDATA, add(CFA_XSP16, literal(-20)))
          CFI V1 load(1, XDATA, add(CFA_XSP16, literal(-19)))
          CFI V2 load(1, XDATA, add(CFA_XSP16, literal(-18)))
          CFI V3 load(1, XDATA, add(CFA_XSP16, literal(-17)))
          CFI V4 load(1, XDATA, add(CFA_XSP16, literal(-16)))
          CFI V5 load(1, XDATA, add(CFA_XSP16, literal(-15)))
          CFI V6 load(1, XDATA, add(CFA_XSP16, literal(-14)))
          CFI V7 load(1, XDATA, add(CFA_XSP16, literal(-13)))
          CFI V8 load(1, XDATA, add(CFA_XSP16, literal(-12)))
          CFI V9 load(1, XDATA, add(CFA_XSP16, literal(-11)))
          CFI V10 load(1, XDATA, add(CFA_XSP16, literal(-10)))
          CFI V11 load(1, XDATA, add(CFA_XSP16, literal(-9)))
          CFI V12 load(1, XDATA, add(CFA_XSP16, literal(-8)))
          CFI V13 load(1, XDATA, add(CFA_XSP16, literal(-7)))
          CFI R7 load(1, XDATA, add(CFA_XSP16, literal(-6)))
          CFI ?RET_LOW load(1, XDATA, add(CFA_XSP16, literal(-5)))
          CFI ?RET_HIGH load(1, XDATA, add(CFA_XSP16, literal(-4)))
          CFI ?BRET_EXT load(1, XDATA, add(CFA_XSP16, literal(-3)))
          CFI DPL0 load(1, XDATA, add(CFA_XSP16, literal(-2)))
          CFI DPH0 load(1, XDATA, add(CFA_XSP16, literal(-1)))
          CFI CFA_SP SP+-2
          CFI CFA_XSP16 add(XSP16, 39)
          CFI Block cfiCond211 Using cfiCommon0
          CFI (cfiCond211) Function zclController_ProcessInReportCmd
          CFI (cfiCond211) Conditional ??CrossCallReturnLabel_19
          CFI (cfiCond211) R6 load(1, XDATA, add(CFA_XSP16, literal(-18)))
          CFI (cfiCond211) VB load(1, XDATA, add(CFA_XSP16, literal(-17)))
          CFI (cfiCond211) V0 load(1, XDATA, add(CFA_XSP16, literal(-16)))
          CFI (cfiCond211) V1 load(1, XDATA, add(CFA_XSP16, literal(-15)))
          CFI (cfiCond211) V2 load(1, XDATA, add(CFA_XSP16, literal(-14)))
          CFI (cfiCond211) V3 load(1, XDATA, add(CFA_XSP16, literal(-13)))
          CFI (cfiCond211) V4 load(1, XDATA, add(CFA_XSP16, literal(-12)))
          CFI (cfiCond211) V5 load(1, XDATA, add(CFA_XSP16, literal(-11)))
          CFI (cfiCond211) V6 load(1, XDATA, add(CFA_XSP16, literal(-10)))
          CFI (cfiCond211) V7 load(1, XDATA, add(CFA_XSP16, literal(-9)))
          CFI (cfiCond211) V8 load(1, XDATA, add(CFA_XSP16, literal(-8)))
          CFI (cfiCond211) V9 load(1, XDATA, add(CFA_XSP16, literal(-7)))
          CFI (cfiCond211) R7 load(1, XDATA, add(CFA_XSP16, literal(-6)))
          CFI (cfiCond211) ?RET_LOW load(1, XDATA, add(CFA_XSP16, literal(-5)))
          CFI (cfiCond211) ?RET_HIGH load(1, XDATA, add(CFA_XSP16, literal(-4)))
          CFI (cfiCond211) ?BRET_EXT load(1, XDATA, add(CFA_XSP16, literal(-3)))
          CFI (cfiCond211) DPL0 load(1, XDATA, add(CFA_XSP16, literal(-2)))
          CFI (cfiCond211) DPH0 load(1, XDATA, add(CFA_XSP16, literal(-1)))
          CFI (cfiCond211) CFA_SP SP+-2
          CFI (cfiCond211) CFA_XSP16 add(XSP16, 35)
          CFI Block cfiPicker212 Using cfiCommon1
          CFI (cfiPicker212) NoFunction
          CFI (cfiPicker212) Picker
        MOVX      A,@DPTR
        MOV       R0,A
        INC       DPTR
        MOVX      A,@DPTR
        MOV       DPL,R0
        MOV       DPH,A
        ; Setup parameters for call to function AT_Uart0_Send
        ; Setup parameters for call to function AT_Uart0_Send
        MOVX      A,@DPTR
        MOV       R4,A
        MOV       R5,#0x0
        INC       DPTR
        MOV       R2,DPL
        MOV       R3,DPH
        RET
          CFI EndBlock cfiCond210
          CFI EndBlock cfiCond211
          CFI EndBlock cfiPicker212

        RSEG BANKED_CODE:HUGECODE:NOROOT(0)
?Subroutine15:
          CFI Block cfiCond213 Using cfiCommon0
          CFI Function zclController_ProcessInWriteRspCmd
          CFI Conditional ??CrossCallReturnLabel_16
          CFI R6 load(1, XDATA, add(CFA_XSP16, literal(-22)))
          CFI VB load(1, XDATA, add(CFA_XSP16, literal(-21)))
          CFI V0 load(1, XDATA, add(CFA_XSP16, literal(-20)))
          CFI V1 load(1, XDATA, add(CFA_XSP16, literal(-19)))
          CFI V2 load(1, XDATA, add(CFA_XSP16, literal(-18)))
          CFI V3 load(1, XDATA, add(CFA_XSP16, literal(-17)))
          CFI V4 load(1, XDATA, add(CFA_XSP16, literal(-16)))
          CFI V5 load(1, XDATA, add(CFA_XSP16, literal(-15)))
          CFI V6 load(1, XDATA, add(CFA_XSP16, literal(-14)))
          CFI V7 load(1, XDATA, add(CFA_XSP16, literal(-13)))
          CFI V8 load(1, XDATA, add(CFA_XSP16, literal(-12)))
          CFI V9 load(1, XDATA, add(CFA_XSP16, literal(-11)))
          CFI V10 load(1, XDATA, add(CFA_XSP16, literal(-10)))
          CFI V11 load(1, XDATA, add(CFA_XSP16, literal(-9)))
          CFI V12 load(1, XDATA, add(CFA_XSP16, literal(-8)))
          CFI V13 load(1, XDATA, add(CFA_XSP16, literal(-7)))
          CFI R7 load(1, XDATA, add(CFA_XSP16, literal(-6)))
          CFI ?RET_LOW load(1, XDATA, add(CFA_XSP16, literal(-5)))
          CFI ?RET_HIGH load(1, XDATA, add(CFA_XSP16, literal(-4)))
          CFI ?BRET_EXT load(1, XDATA, add(CFA_XSP16, literal(-3)))
          CFI DPL0 load(1, XDATA, add(CFA_XSP16, literal(-2)))
          CFI DPH0 load(1, XDATA, add(CFA_XSP16, literal(-1)))
          CFI CFA_SP SP+-2
          CFI CFA_XSP16 add(XSP16, 39)
          CFI Block cfiCond214 Using cfiCommon0
          CFI (cfiCond214) Function zclController_ProcessInReportCmd
          CFI (cfiCond214) Conditional ??CrossCallReturnLabel_17
          CFI (cfiCond214) R6 load(1, XDATA, add(CFA_XSP16, literal(-18)))
          CFI (cfiCond214) VB load(1, XDATA, add(CFA_XSP16, literal(-17)))
          CFI (cfiCond214) V0 load(1, XDATA, add(CFA_XSP16, literal(-16)))
          CFI (cfiCond214) V1 load(1, XDATA, add(CFA_XSP16, literal(-15)))
          CFI (cfiCond214) V2 load(1, XDATA, add(CFA_XSP16, literal(-14)))
          CFI (cfiCond214) V3 load(1, XDATA, add(CFA_XSP16, literal(-13)))
          CFI (cfiCond214) V4 load(1, XDATA, add(CFA_XSP16, literal(-12)))
          CFI (cfiCond214) V5 load(1, XDATA, add(CFA_XSP16, literal(-11)))
          CFI (cfiCond214) V6 load(1, XDATA, add(CFA_XSP16, literal(-10)))
          CFI (cfiCond214) V7 load(1, XDATA, add(CFA_XSP16, literal(-9)))
          CFI (cfiCond214) V8 load(1, XDATA, add(CFA_XSP16, literal(-8)))
          CFI (cfiCond214) V9 load(1, XDATA, add(CFA_XSP16, literal(-7)))
          CFI (cfiCond214) R7 load(1, XDATA, add(CFA_XSP16, literal(-6)))
          CFI (cfiCond214) ?RET_LOW load(1, XDATA, add(CFA_XSP16, literal(-5)))
          CFI (cfiCond214) ?RET_HIGH load(1, XDATA, add(CFA_XSP16, literal(-4)))
          CFI (cfiCond214) ?BRET_EXT load(1, XDATA, add(CFA_XSP16, literal(-3)))
          CFI (cfiCond214) DPL0 load(1, XDATA, add(CFA_XSP16, literal(-2)))
          CFI (cfiCond214) DPH0 load(1, XDATA, add(CFA_XSP16, literal(-1)))
          CFI (cfiCond214) CFA_SP SP+-2
          CFI (cfiCond214) CFA_XSP16 add(XSP16, 35)
          CFI Block cfiPicker215 Using cfiCommon1
          CFI (cfiPicker215) NoFunction
          CFI (cfiPicker215) Picker
        LCALL     ?Subroutine41 & 0xFFFF
??CrossCallReturnLabel_77:
        RET
          CFI EndBlock cfiCond213
          CFI EndBlock cfiCond214
          CFI EndBlock cfiPicker215

        RSEG BANKED_CODE:HUGECODE:NOROOT(0)
?Subroutine41:
          CFI Block cfiCond216 Using cfiCommon0
          CFI Function zclController_ProcessInReadRspCmd
          CFI Conditional ??CrossCallReturnLabel_76, ??CrossCallReturnLabel_14
          CFI R6 load(1, XDATA, add(CFA_XSP16, literal(-22)))
          CFI VB load(1, XDATA, add(CFA_XSP16, literal(-21)))
          CFI V0 load(1, XDATA, add(CFA_XSP16, literal(-20)))
          CFI V1 load(1, XDATA, add(CFA_XSP16, literal(-19)))
          CFI V2 load(1, XDATA, add(CFA_XSP16, literal(-18)))
          CFI V3 load(1, XDATA, add(CFA_XSP16, literal(-17)))
          CFI V4 load(1, XDATA, add(CFA_XSP16, literal(-16)))
          CFI V5 load(1, XDATA, add(CFA_XSP16, literal(-15)))
          CFI V6 load(1, XDATA, add(CFA_XSP16, literal(-14)))
          CFI V7 load(1, XDATA, add(CFA_XSP16, literal(-13)))
          CFI V8 load(1, XDATA, add(CFA_XSP16, literal(-12)))
          CFI V9 load(1, XDATA, add(CFA_XSP16, literal(-11)))
          CFI V10 load(1, XDATA, add(CFA_XSP16, literal(-10)))
          CFI V11 load(1, XDATA, add(CFA_XSP16, literal(-9)))
          CFI V12 load(1, XDATA, add(CFA_XSP16, literal(-8)))
          CFI V13 load(1, XDATA, add(CFA_XSP16, literal(-7)))
          CFI R7 load(1, XDATA, add(CFA_XSP16, literal(-6)))
          CFI ?RET_LOW load(1, XDATA, add(CFA_XSP16, literal(-5)))
          CFI ?RET_HIGH load(1, XDATA, add(CFA_XSP16, literal(-4)))
          CFI ?BRET_EXT load(1, XDATA, add(CFA_XSP16, literal(-3)))
          CFI DPL0 load(1, XDATA, add(CFA_XSP16, literal(-2)))
          CFI DPH0 load(1, XDATA, add(CFA_XSP16, literal(-1)))
          CFI CFA_SP SP+-4
          CFI CFA_XSP16 add(XSP16, 39)
          CFI Block cfiCond217 Using cfiCommon0
          CFI (cfiCond217) Function zclController_ProcessInWriteRspCmd
          CFI (cfiCond217) Conditional ??CrossCallReturnLabel_76, ??CrossCallReturnLabel_15
          CFI (cfiCond217) R6 load(1, XDATA, add(CFA_XSP16, literal(-22)))
          CFI (cfiCond217) VB load(1, XDATA, add(CFA_XSP16, literal(-21)))
          CFI (cfiCond217) V0 load(1, XDATA, add(CFA_XSP16, literal(-20)))
          CFI (cfiCond217) V1 load(1, XDATA, add(CFA_XSP16, literal(-19)))
          CFI (cfiCond217) V2 load(1, XDATA, add(CFA_XSP16, literal(-18)))
          CFI (cfiCond217) V3 load(1, XDATA, add(CFA_XSP16, literal(-17)))
          CFI (cfiCond217) V4 load(1, XDATA, add(CFA_XSP16, literal(-16)))
          CFI (cfiCond217) V5 load(1, XDATA, add(CFA_XSP16, literal(-15)))
          CFI (cfiCond217) V6 load(1, XDATA, add(CFA_XSP16, literal(-14)))
          CFI (cfiCond217) V7 load(1, XDATA, add(CFA_XSP16, literal(-13)))
          CFI (cfiCond217) V8 load(1, XDATA, add(CFA_XSP16, literal(-12)))
          CFI (cfiCond217) V9 load(1, XDATA, add(CFA_XSP16, literal(-11)))
          CFI (cfiCond217) V10 load(1, XDATA, add(CFA_XSP16, literal(-10)))
          CFI (cfiCond217) V11 load(1, XDATA, add(CFA_XSP16, literal(-9)))
          CFI (cfiCond217) V12 load(1, XDATA, add(CFA_XSP16, literal(-8)))
          CFI (cfiCond217) V13 load(1, XDATA, add(CFA_XSP16, literal(-7)))
          CFI (cfiCond217) R7 load(1, XDATA, add(CFA_XSP16, literal(-6)))
          CFI (cfiCond217) ?RET_LOW load(1, XDATA, add(CFA_XSP16, literal(-5)))
          CFI (cfiCond217) ?RET_HIGH load(1, XDATA, add(CFA_XSP16, literal(-4)))
          CFI (cfiCond217) ?BRET_EXT load(1, XDATA, add(CFA_XSP16, literal(-3)))
          CFI (cfiCond217) DPL0 load(1, XDATA, add(CFA_XSP16, literal(-2)))
          CFI (cfiCond217) DPH0 load(1, XDATA, add(CFA_XSP16, literal(-1)))
          CFI (cfiCond217) CFA_SP SP+-4
          CFI (cfiCond217) CFA_XSP16 add(XSP16, 39)
          CFI Block cfiCond218 Using cfiCommon0
          CFI (cfiCond218) Function zclController_ProcessInWriteRspCmd
          CFI (cfiCond218) Conditional ??CrossCallReturnLabel_77, ??CrossCallReturnLabel_16
          CFI (cfiCond218) R6 load(1, XDATA, add(CFA_XSP16, literal(-22)))
          CFI (cfiCond218) VB load(1, XDATA, add(CFA_XSP16, literal(-21)))
          CFI (cfiCond218) V0 load(1, XDATA, add(CFA_XSP16, literal(-20)))
          CFI (cfiCond218) V1 load(1, XDATA, add(CFA_XSP16, literal(-19)))
          CFI (cfiCond218) V2 load(1, XDATA, add(CFA_XSP16, literal(-18)))
          CFI (cfiCond218) V3 load(1, XDATA, add(CFA_XSP16, literal(-17)))
          CFI (cfiCond218) V4 load(1, XDATA, add(CFA_XSP16, literal(-16)))
          CFI (cfiCond218) V5 load(1, XDATA, add(CFA_XSP16, literal(-15)))
          CFI (cfiCond218) V6 load(1, XDATA, add(CFA_XSP16, literal(-14)))
          CFI (cfiCond218) V7 load(1, XDATA, add(CFA_XSP16, literal(-13)))
          CFI (cfiCond218) V8 load(1, XDATA, add(CFA_XSP16, literal(-12)))
          CFI (cfiCond218) V9 load(1, XDATA, add(CFA_XSP16, literal(-11)))
          CFI (cfiCond218) V10 load(1, XDATA, add(CFA_XSP16, literal(-10)))
          CFI (cfiCond218) V11 load(1, XDATA, add(CFA_XSP16, literal(-9)))
          CFI (cfiCond218) V12 load(1, XDATA, add(CFA_XSP16, literal(-8)))
          CFI (cfiCond218) V13 load(1, XDATA, add(CFA_XSP16, literal(-7)))
          CFI (cfiCond218) R7 load(1, XDATA, add(CFA_XSP16, literal(-6)))
          CFI (cfiCond218) ?RET_LOW load(1, XDATA, add(CFA_XSP16, literal(-5)))
          CFI (cfiCond218) ?RET_HIGH load(1, XDATA, add(CFA_XSP16, literal(-4)))
          CFI (cfiCond218) ?BRET_EXT load(1, XDATA, add(CFA_XSP16, literal(-3)))
          CFI (cfiCond218) DPL0 load(1, XDATA, add(CFA_XSP16, literal(-2)))
          CFI (cfiCond218) DPH0 load(1, XDATA, add(CFA_XSP16, literal(-1)))
          CFI (cfiCond218) CFA_SP SP+-4
          CFI (cfiCond218) CFA_XSP16 add(XSP16, 39)
          CFI Block cfiCond219 Using cfiCommon0
          CFI (cfiCond219) Function zclController_ProcessInReportCmd
          CFI (cfiCond219) Conditional ??CrossCallReturnLabel_77, ??CrossCallReturnLabel_17
          CFI (cfiCond219) R6 load(1, XDATA, add(CFA_XSP16, literal(-18)))
          CFI (cfiCond219) VB load(1, XDATA, add(CFA_XSP16, literal(-17)))
          CFI (cfiCond219) V0 load(1, XDATA, add(CFA_XSP16, literal(-16)))
          CFI (cfiCond219) V1 load(1, XDATA, add(CFA_XSP16, literal(-15)))
          CFI (cfiCond219) V2 load(1, XDATA, add(CFA_XSP16, literal(-14)))
          CFI (cfiCond219) V3 load(1, XDATA, add(CFA_XSP16, literal(-13)))
          CFI (cfiCond219) V4 load(1, XDATA, add(CFA_XSP16, literal(-12)))
          CFI (cfiCond219) V5 load(1, XDATA, add(CFA_XSP16, literal(-11)))
          CFI (cfiCond219) V6 load(1, XDATA, add(CFA_XSP16, literal(-10)))
          CFI (cfiCond219) V7 load(1, XDATA, add(CFA_XSP16, literal(-9)))
          CFI (cfiCond219) V8 load(1, XDATA, add(CFA_XSP16, literal(-8)))
          CFI (cfiCond219) V9 load(1, XDATA, add(CFA_XSP16, literal(-7)))
          CFI (cfiCond219) R7 load(1, XDATA, add(CFA_XSP16, literal(-6)))
          CFI (cfiCond219) ?RET_LOW load(1, XDATA, add(CFA_XSP16, literal(-5)))
          CFI (cfiCond219) ?RET_HIGH load(1, XDATA, add(CFA_XSP16, literal(-4)))
          CFI (cfiCond219) ?BRET_EXT load(1, XDATA, add(CFA_XSP16, literal(-3)))
          CFI (cfiCond219) DPL0 load(1, XDATA, add(CFA_XSP16, literal(-2)))
          CFI (cfiCond219) DPH0 load(1, XDATA, add(CFA_XSP16, literal(-1)))
          CFI (cfiCond219) CFA_SP SP+-4
          CFI (cfiCond219) CFA_XSP16 add(XSP16, 35)
          CFI Block cfiPicker220 Using cfiCommon1
          CFI (cfiPicker220) NoFunction
          CFI (cfiPicker220) Picker
        LCALL     ?Subroutine49 & 0xFFFF
??CrossCallReturnLabel_90:
        RET
          CFI EndBlock cfiCond216
          CFI EndBlock cfiCond217
          CFI EndBlock cfiCond218
          CFI EndBlock cfiCond219
          CFI EndBlock cfiPicker220

        RSEG BANKED_CODE:HUGECODE:NOROOT(0)
?Subroutine49:
          CFI Block cfiCond221 Using cfiCommon0
          CFI Function zclController_ProcessInReadRspCmd
          CFI Conditional ??CrossCallReturnLabel_90, ??CrossCallReturnLabel_76, ??CrossCallReturnLabel_14
          CFI R6 load(1, XDATA, add(CFA_XSP16, literal(-22)))
          CFI VB load(1, XDATA, add(CFA_XSP16, literal(-21)))
          CFI V0 load(1, XDATA, add(CFA_XSP16, literal(-20)))
          CFI V1 load(1, XDATA, add(CFA_XSP16, literal(-19)))
          CFI V2 load(1, XDATA, add(CFA_XSP16, literal(-18)))
          CFI V3 load(1, XDATA, add(CFA_XSP16, literal(-17)))
          CFI V4 load(1, XDATA, add(CFA_XSP16, literal(-16)))
          CFI V5 load(1, XDATA, add(CFA_XSP16, literal(-15)))
          CFI V6 load(1, XDATA, add(CFA_XSP16, literal(-14)))
          CFI V7 load(1, XDATA, add(CFA_XSP16, literal(-13)))
          CFI V8 load(1, XDATA, add(CFA_XSP16, literal(-12)))
          CFI V9 load(1, XDATA, add(CFA_XSP16, literal(-11)))
          CFI V10 load(1, XDATA, add(CFA_XSP16, literal(-10)))
          CFI V11 load(1, XDATA, add(CFA_XSP16, literal(-9)))
          CFI V12 load(1, XDATA, add(CFA_XSP16, literal(-8)))
          CFI V13 load(1, XDATA, add(CFA_XSP16, literal(-7)))
          CFI R7 load(1, XDATA, add(CFA_XSP16, literal(-6)))
          CFI ?RET_LOW load(1, XDATA, add(CFA_XSP16, literal(-5)))
          CFI ?RET_HIGH load(1, XDATA, add(CFA_XSP16, literal(-4)))
          CFI ?BRET_EXT load(1, XDATA, add(CFA_XSP16, literal(-3)))
          CFI DPL0 load(1, XDATA, add(CFA_XSP16, literal(-2)))
          CFI DPH0 load(1, XDATA, add(CFA_XSP16, literal(-1)))
          CFI CFA_SP SP+-6
          CFI CFA_XSP16 add(XSP16, 39)
          CFI Block cfiCond222 Using cfiCommon0
          CFI (cfiCond222) Function zclController_ProcessInWriteRspCmd
          CFI (cfiCond222) Conditional ??CrossCallReturnLabel_90, ??CrossCallReturnLabel_76, ??CrossCallReturnLabel_15
          CFI (cfiCond222) R6 load(1, XDATA, add(CFA_XSP16, literal(-22)))
          CFI (cfiCond222) VB load(1, XDATA, add(CFA_XSP16, literal(-21)))
          CFI (cfiCond222) V0 load(1, XDATA, add(CFA_XSP16, literal(-20)))
          CFI (cfiCond222) V1 load(1, XDATA, add(CFA_XSP16, literal(-19)))
          CFI (cfiCond222) V2 load(1, XDATA, add(CFA_XSP16, literal(-18)))
          CFI (cfiCond222) V3 load(1, XDATA, add(CFA_XSP16, literal(-17)))
          CFI (cfiCond222) V4 load(1, XDATA, add(CFA_XSP16, literal(-16)))
          CFI (cfiCond222) V5 load(1, XDATA, add(CFA_XSP16, literal(-15)))
          CFI (cfiCond222) V6 load(1, XDATA, add(CFA_XSP16, literal(-14)))
          CFI (cfiCond222) V7 load(1, XDATA, add(CFA_XSP16, literal(-13)))
          CFI (cfiCond222) V8 load(1, XDATA, add(CFA_XSP16, literal(-12)))
          CFI (cfiCond222) V9 load(1, XDATA, add(CFA_XSP16, literal(-11)))
          CFI (cfiCond222) V10 load(1, XDATA, add(CFA_XSP16, literal(-10)))
          CFI (cfiCond222) V11 load(1, XDATA, add(CFA_XSP16, literal(-9)))
          CFI (cfiCond222) V12 load(1, XDATA, add(CFA_XSP16, literal(-8)))
          CFI (cfiCond222) V13 load(1, XDATA, add(CFA_XSP16, literal(-7)))
          CFI (cfiCond222) R7 load(1, XDATA, add(CFA_XSP16, literal(-6)))
          CFI (cfiCond222) ?RET_LOW load(1, XDATA, add(CFA_XSP16, literal(-5)))
          CFI (cfiCond222) ?RET_HIGH load(1, XDATA, add(CFA_XSP16, literal(-4)))
          CFI (cfiCond222) ?BRET_EXT load(1, XDATA, add(CFA_XSP16, literal(-3)))
          CFI (cfiCond222) DPL0 load(1, XDATA, add(CFA_XSP16, literal(-2)))
          CFI (cfiCond222) DPH0 load(1, XDATA, add(CFA_XSP16, literal(-1)))
          CFI (cfiCond222) CFA_SP SP+-6
          CFI (cfiCond222) CFA_XSP16 add(XSP16, 39)
          CFI Block cfiCond223 Using cfiCommon0
          CFI (cfiCond223) Function zclController_ProcessInWriteRspCmd
          CFI (cfiCond223) Conditional ??CrossCallReturnLabel_90, ??CrossCallReturnLabel_77, ??CrossCallReturnLabel_16
          CFI (cfiCond223) R6 load(1, XDATA, add(CFA_XSP16, literal(-22)))
          CFI (cfiCond223) VB load(1, XDATA, add(CFA_XSP16, literal(-21)))
          CFI (cfiCond223) V0 load(1, XDATA, add(CFA_XSP16, literal(-20)))
          CFI (cfiCond223) V1 load(1, XDATA, add(CFA_XSP16, literal(-19)))
          CFI (cfiCond223) V2 load(1, XDATA, add(CFA_XSP16, literal(-18)))
          CFI (cfiCond223) V3 load(1, XDATA, add(CFA_XSP16, literal(-17)))
          CFI (cfiCond223) V4 load(1, XDATA, add(CFA_XSP16, literal(-16)))
          CFI (cfiCond223) V5 load(1, XDATA, add(CFA_XSP16, literal(-15)))
          CFI (cfiCond223) V6 load(1, XDATA, add(CFA_XSP16, literal(-14)))
          CFI (cfiCond223) V7 load(1, XDATA, add(CFA_XSP16, literal(-13)))
          CFI (cfiCond223) V8 load(1, XDATA, add(CFA_XSP16, literal(-12)))
          CFI (cfiCond223) V9 load(1, XDATA, add(CFA_XSP16, literal(-11)))
          CFI (cfiCond223) V10 load(1, XDATA, add(CFA_XSP16, literal(-10)))
          CFI (cfiCond223) V11 load(1, XDATA, add(CFA_XSP16, literal(-9)))
          CFI (cfiCond223) V12 load(1, XDATA, add(CFA_XSP16, literal(-8)))
          CFI (cfiCond223) V13 load(1, XDATA, add(CFA_XSP16, literal(-7)))
          CFI (cfiCond223) R7 load(1, XDATA, add(CFA_XSP16, literal(-6)))
          CFI (cfiCond223) ?RET_LOW load(1, XDATA, add(CFA_XSP16, literal(-5)))
          CFI (cfiCond223) ?RET_HIGH load(1, XDATA, add(CFA_XSP16, literal(-4)))
          CFI (cfiCond223) ?BRET_EXT load(1, XDATA, add(CFA_XSP16, literal(-3)))
          CFI (cfiCond223) DPL0 load(1, XDATA, add(CFA_XSP16, literal(-2)))
          CFI (cfiCond223) DPH0 load(1, XDATA, add(CFA_XSP16, literal(-1)))
          CFI (cfiCond223) CFA_SP SP+-6
          CFI (cfiCond223) CFA_XSP16 add(XSP16, 39)
          CFI Block cfiCond224 Using cfiCommon0
          CFI (cfiCond224) Function zclController_ProcessInReportCmd
          CFI (cfiCond224) Conditional ??CrossCallReturnLabel_90, ??CrossCallReturnLabel_77, ??CrossCallReturnLabel_17
          CFI (cfiCond224) R6 load(1, XDATA, add(CFA_XSP16, literal(-18)))
          CFI (cfiCond224) VB load(1, XDATA, add(CFA_XSP16, literal(-17)))
          CFI (cfiCond224) V0 load(1, XDATA, add(CFA_XSP16, literal(-16)))
          CFI (cfiCond224) V1 load(1, XDATA, add(CFA_XSP16, literal(-15)))
          CFI (cfiCond224) V2 load(1, XDATA, add(CFA_XSP16, literal(-14)))
          CFI (cfiCond224) V3 load(1, XDATA, add(CFA_XSP16, literal(-13)))
          CFI (cfiCond224) V4 load(1, XDATA, add(CFA_XSP16, literal(-12)))
          CFI (cfiCond224) V5 load(1, XDATA, add(CFA_XSP16, literal(-11)))
          CFI (cfiCond224) V6 load(1, XDATA, add(CFA_XSP16, literal(-10)))
          CFI (cfiCond224) V7 load(1, XDATA, add(CFA_XSP16, literal(-9)))
          CFI (cfiCond224) V8 load(1, XDATA, add(CFA_XSP16, literal(-8)))
          CFI (cfiCond224) V9 load(1, XDATA, add(CFA_XSP16, literal(-7)))
          CFI (cfiCond224) R7 load(1, XDATA, add(CFA_XSP16, literal(-6)))
          CFI (cfiCond224) ?RET_LOW load(1, XDATA, add(CFA_XSP16, literal(-5)))
          CFI (cfiCond224) ?RET_HIGH load(1, XDATA, add(CFA_XSP16, literal(-4)))
          CFI (cfiCond224) ?BRET_EXT load(1, XDATA, add(CFA_XSP16, literal(-3)))
          CFI (cfiCond224) DPL0 load(1, XDATA, add(CFA_XSP16, literal(-2)))
          CFI (cfiCond224) DPH0 load(1, XDATA, add(CFA_XSP16, literal(-1)))
          CFI (cfiCond224) CFA_SP SP+-6
          CFI (cfiCond224) CFA_XSP16 add(XSP16, 35)
          CFI Block cfiCond225 Using cfiCommon0
          CFI (cfiCond225) Function zclController_ProcessInReadRspCmd
          CFI (cfiCond225) Conditional ??CrossCallReturnLabel_91, ??CrossCallReturnLabel_74, ??CrossCallReturnLabel_4
          CFI (cfiCond225) R6 load(1, XDATA, add(CFA_XSP16, literal(-22)))
          CFI (cfiCond225) VB load(1, XDATA, add(CFA_XSP16, literal(-21)))
          CFI (cfiCond225) V0 load(1, XDATA, add(CFA_XSP16, literal(-20)))
          CFI (cfiCond225) V1 load(1, XDATA, add(CFA_XSP16, literal(-19)))
          CFI (cfiCond225) V2 load(1, XDATA, add(CFA_XSP16, literal(-18)))
          CFI (cfiCond225) V3 load(1, XDATA, add(CFA_XSP16, literal(-17)))
          CFI (cfiCond225) V4 load(1, XDATA, add(CFA_XSP16, literal(-16)))
          CFI (cfiCond225) V5 load(1, XDATA, add(CFA_XSP16, literal(-15)))
          CFI (cfiCond225) V6 load(1, XDATA, add(CFA_XSP16, literal(-14)))
          CFI (cfiCond225) V7 load(1, XDATA, add(CFA_XSP16, literal(-13)))
          CFI (cfiCond225) V8 load(1, XDATA, add(CFA_XSP16, literal(-12)))
          CFI (cfiCond225) V9 load(1, XDATA, add(CFA_XSP16, literal(-11)))
          CFI (cfiCond225) V10 load(1, XDATA, add(CFA_XSP16, literal(-10)))
          CFI (cfiCond225) V11 load(1, XDATA, add(CFA_XSP16, literal(-9)))
          CFI (cfiCond225) V12 load(1, XDATA, add(CFA_XSP16, literal(-8)))
          CFI (cfiCond225) V13 load(1, XDATA, add(CFA_XSP16, literal(-7)))
          CFI (cfiCond225) R7 load(1, XDATA, add(CFA_XSP16, literal(-6)))
          CFI (cfiCond225) ?RET_LOW load(1, XDATA, add(CFA_XSP16, literal(-5)))
          CFI (cfiCond225) ?RET_HIGH load(1, XDATA, add(CFA_XSP16, literal(-4)))
          CFI (cfiCond225) ?BRET_EXT load(1, XDATA, add(CFA_XSP16, literal(-3)))
          CFI (cfiCond225) DPL0 load(1, XDATA, add(CFA_XSP16, literal(-2)))
          CFI (cfiCond225) DPH0 load(1, XDATA, add(CFA_XSP16, literal(-1)))
          CFI (cfiCond225) CFA_SP SP+-6
          CFI (cfiCond225) CFA_XSP16 add(XSP16, 39)
          CFI Block cfiCond226 Using cfiCommon0
          CFI (cfiCond226) Function zclController_ProcessInReportCmd
          CFI (cfiCond226) Conditional ??CrossCallReturnLabel_91, ??CrossCallReturnLabel_74, ??CrossCallReturnLabel_5
          CFI (cfiCond226) R6 load(1, XDATA, add(CFA_XSP16, literal(-18)))
          CFI (cfiCond226) VB load(1, XDATA, add(CFA_XSP16, literal(-17)))
          CFI (cfiCond226) V0 load(1, XDATA, add(CFA_XSP16, literal(-16)))
          CFI (cfiCond226) V1 load(1, XDATA, add(CFA_XSP16, literal(-15)))
          CFI (cfiCond226) V2 load(1, XDATA, add(CFA_XSP16, literal(-14)))
          CFI (cfiCond226) V3 load(1, XDATA, add(CFA_XSP16, literal(-13)))
          CFI (cfiCond226) V4 load(1, XDATA, add(CFA_XSP16, literal(-12)))
          CFI (cfiCond226) V5 load(1, XDATA, add(CFA_XSP16, literal(-11)))
          CFI (cfiCond226) V6 load(1, XDATA, add(CFA_XSP16, literal(-10)))
          CFI (cfiCond226) V7 load(1, XDATA, add(CFA_XSP16, literal(-9)))
          CFI (cfiCond226) V8 load(1, XDATA, add(CFA_XSP16, literal(-8)))
          CFI (cfiCond226) V9 load(1, XDATA, add(CFA_XSP16, literal(-7)))
          CFI (cfiCond226) R7 load(1, XDATA, add(CFA_XSP16, literal(-6)))
          CFI (cfiCond226) ?RET_LOW load(1, XDATA, add(CFA_XSP16, literal(-5)))
          CFI (cfiCond226) ?RET_HIGH load(1, XDATA, add(CFA_XSP16, literal(-4)))
          CFI (cfiCond226) ?BRET_EXT load(1, XDATA, add(CFA_XSP16, literal(-3)))
          CFI (cfiCond226) DPL0 load(1, XDATA, add(CFA_XSP16, literal(-2)))
          CFI (cfiCond226) DPH0 load(1, XDATA, add(CFA_XSP16, literal(-1)))
          CFI (cfiCond226) CFA_SP SP+-6
          CFI (cfiCond226) CFA_XSP16 add(XSP16, 35)
          CFI Block cfiCond227 Using cfiCommon0
          CFI (cfiCond227) Function zclController_ProcessInReadRspCmd
          CFI (cfiCond227) Conditional ??CrossCallReturnLabel_91, ??CrossCallReturnLabel_75, ??CrossCallReturnLabel_0
          CFI (cfiCond227) R6 load(1, XDATA, add(CFA_XSP16, literal(-22)))
          CFI (cfiCond227) VB load(1, XDATA, add(CFA_XSP16, literal(-21)))
          CFI (cfiCond227) V0 load(1, XDATA, add(CFA_XSP16, literal(-20)))
          CFI (cfiCond227) V1 load(1, XDATA, add(CFA_XSP16, literal(-19)))
          CFI (cfiCond227) V2 load(1, XDATA, add(CFA_XSP16, literal(-18)))
          CFI (cfiCond227) V3 load(1, XDATA, add(CFA_XSP16, literal(-17)))
          CFI (cfiCond227) V4 load(1, XDATA, add(CFA_XSP16, literal(-16)))
          CFI (cfiCond227) V5 load(1, XDATA, add(CFA_XSP16, literal(-15)))
          CFI (cfiCond227) V6 load(1, XDATA, add(CFA_XSP16, literal(-14)))
          CFI (cfiCond227) V7 load(1, XDATA, add(CFA_XSP16, literal(-13)))
          CFI (cfiCond227) V8 load(1, XDATA, add(CFA_XSP16, literal(-12)))
          CFI (cfiCond227) V9 load(1, XDATA, add(CFA_XSP16, literal(-11)))
          CFI (cfiCond227) V10 load(1, XDATA, add(CFA_XSP16, literal(-10)))
          CFI (cfiCond227) V11 load(1, XDATA, add(CFA_XSP16, literal(-9)))
          CFI (cfiCond227) V12 load(1, XDATA, add(CFA_XSP16, literal(-8)))
          CFI (cfiCond227) V13 load(1, XDATA, add(CFA_XSP16, literal(-7)))
          CFI (cfiCond227) R7 load(1, XDATA, add(CFA_XSP16, literal(-6)))
          CFI (cfiCond227) ?RET_LOW load(1, XDATA, add(CFA_XSP16, literal(-5)))
          CFI (cfiCond227) ?RET_HIGH load(1, XDATA, add(CFA_XSP16, literal(-4)))
          CFI (cfiCond227) ?BRET_EXT load(1, XDATA, add(CFA_XSP16, literal(-3)))
          CFI (cfiCond227) DPL0 load(1, XDATA, add(CFA_XSP16, literal(-2)))
          CFI (cfiCond227) DPH0 load(1, XDATA, add(CFA_XSP16, literal(-1)))
          CFI (cfiCond227) CFA_SP SP+-6
          CFI (cfiCond227) CFA_XSP16 add(XSP16, 39)
          CFI Block cfiCond228 Using cfiCommon0
          CFI (cfiCond228) Function zclController_ProcessInReportCmd
          CFI (cfiCond228) Conditional ??CrossCallReturnLabel_91, ??CrossCallReturnLabel_75, ??CrossCallReturnLabel_1
          CFI (cfiCond228) R6 load(1, XDATA, add(CFA_XSP16, literal(-18)))
          CFI (cfiCond228) VB load(1, XDATA, add(CFA_XSP16, literal(-17)))
          CFI (cfiCond228) V0 load(1, XDATA, add(CFA_XSP16, literal(-16)))
          CFI (cfiCond228) V1 load(1, XDATA, add(CFA_XSP16, literal(-15)))
          CFI (cfiCond228) V2 load(1, XDATA, add(CFA_XSP16, literal(-14)))
          CFI (cfiCond228) V3 load(1, XDATA, add(CFA_XSP16, literal(-13)))
          CFI (cfiCond228) V4 load(1, XDATA, add(CFA_XSP16, literal(-12)))
          CFI (cfiCond228) V5 load(1, XDATA, add(CFA_XSP16, literal(-11)))
          CFI (cfiCond228) V6 load(1, XDATA, add(CFA_XSP16, literal(-10)))
          CFI (cfiCond228) V7 load(1, XDATA, add(CFA_XSP16, literal(-9)))
          CFI (cfiCond228) V8 load(1, XDATA, add(CFA_XSP16, literal(-8)))
          CFI (cfiCond228) V9 load(1, XDATA, add(CFA_XSP16, literal(-7)))
          CFI (cfiCond228) R7 load(1, XDATA, add(CFA_XSP16, literal(-6)))
          CFI (cfiCond228) ?RET_LOW load(1, XDATA, add(CFA_XSP16, literal(-5)))
          CFI (cfiCond228) ?RET_HIGH load(1, XDATA, add(CFA_XSP16, literal(-4)))
          CFI (cfiCond228) ?BRET_EXT load(1, XDATA, add(CFA_XSP16, literal(-3)))
          CFI (cfiCond228) DPL0 load(1, XDATA, add(CFA_XSP16, literal(-2)))
          CFI (cfiCond228) DPH0 load(1, XDATA, add(CFA_XSP16, literal(-1)))
          CFI (cfiCond228) CFA_SP SP+-6
          CFI (cfiCond228) CFA_XSP16 add(XSP16, 35)
          CFI Block cfiPicker229 Using cfiCommon1
          CFI (cfiPicker229) NoFunction
          CFI (cfiPicker229) Picker
        MOVX      A,@DPTR
        MOV       R1,A
        LCALL     ?Subroutine55 & 0xFFFF
??CrossCallReturnLabel_100:
        LCALL     `??AT_Uart0_Send::?relay`; Banked call to: AT_Uart0_Send
        RET
          CFI EndBlock cfiCond221
          CFI EndBlock cfiCond222
          CFI EndBlock cfiCond223
          CFI EndBlock cfiCond224
          CFI EndBlock cfiCond225
          CFI EndBlock cfiCond226
          CFI EndBlock cfiCond227
          CFI EndBlock cfiCond228
          CFI EndBlock cfiPicker229

        RSEG BANKED_CODE:HUGECODE:NOROOT(0)
?Subroutine55:
          CFI Block cfiCond230 Using cfiCommon0
          CFI Function AT_zclCtrl_REpCtrl_rsp
          CFI Conditional ??CrossCallReturnLabel_99
          CFI R6 load(1, XDATA, add(CFA_XSP16, literal(-10)))
          CFI VB load(1, XDATA, add(CFA_XSP16, literal(-9)))
          CFI V0 load(1, XDATA, add(CFA_XSP16, literal(-8)))
          CFI V1 load(1, XDATA, add(CFA_XSP16, literal(-7)))
          CFI R7 load(1, XDATA, add(CFA_XSP16, literal(-6)))
          CFI ?RET_LOW load(1, XDATA, add(CFA_XSP16, literal(-5)))
          CFI ?RET_HIGH load(1, XDATA, add(CFA_XSP16, literal(-4)))
          CFI ?BRET_EXT load(1, XDATA, add(CFA_XSP16, literal(-3)))
          CFI DPL0 load(1, XDATA, add(CFA_XSP16, literal(-2)))
          CFI DPH0 load(1, XDATA, add(CFA_XSP16, literal(-1)))
          CFI CFA_SP SP+-2
          CFI CFA_XSP16 add(XSP16, 13)
          CFI Block cfiCond231 Using cfiCommon0
          CFI (cfiCond231) Function zclController_ProcessInReadRspCmd
          CFI (cfiCond231) Conditional ??CrossCallReturnLabel_100, ??CrossCallReturnLabel_90, ??CrossCallReturnLabel_76, ??CrossCallReturnLabel_14
          CFI (cfiCond231) R6 load(1, XDATA, add(CFA_XSP16, literal(-22)))
          CFI (cfiCond231) VB load(1, XDATA, add(CFA_XSP16, literal(-21)))
          CFI (cfiCond231) V0 load(1, XDATA, add(CFA_XSP16, literal(-20)))
          CFI (cfiCond231) V1 load(1, XDATA, add(CFA_XSP16, literal(-19)))
          CFI (cfiCond231) V2 load(1, XDATA, add(CFA_XSP16, literal(-18)))
          CFI (cfiCond231) V3 load(1, XDATA, add(CFA_XSP16, literal(-17)))
          CFI (cfiCond231) V4 load(1, XDATA, add(CFA_XSP16, literal(-16)))
          CFI (cfiCond231) V5 load(1, XDATA, add(CFA_XSP16, literal(-15)))
          CFI (cfiCond231) V6 load(1, XDATA, add(CFA_XSP16, literal(-14)))
          CFI (cfiCond231) V7 load(1, XDATA, add(CFA_XSP16, literal(-13)))
          CFI (cfiCond231) V8 load(1, XDATA, add(CFA_XSP16, literal(-12)))
          CFI (cfiCond231) V9 load(1, XDATA, add(CFA_XSP16, literal(-11)))
          CFI (cfiCond231) V10 load(1, XDATA, add(CFA_XSP16, literal(-10)))
          CFI (cfiCond231) V11 load(1, XDATA, add(CFA_XSP16, literal(-9)))
          CFI (cfiCond231) V12 load(1, XDATA, add(CFA_XSP16, literal(-8)))
          CFI (cfiCond231) V13 load(1, XDATA, add(CFA_XSP16, literal(-7)))
          CFI (cfiCond231) R7 load(1, XDATA, add(CFA_XSP16, literal(-6)))
          CFI (cfiCond231) ?RET_LOW load(1, XDATA, add(CFA_XSP16, literal(-5)))
          CFI (cfiCond231) ?RET_HIGH load(1, XDATA, add(CFA_XSP16, literal(-4)))
          CFI (cfiCond231) ?BRET_EXT load(1, XDATA, add(CFA_XSP16, literal(-3)))
          CFI (cfiCond231) DPL0 load(1, XDATA, add(CFA_XSP16, literal(-2)))
          CFI (cfiCond231) DPH0 load(1, XDATA, add(CFA_XSP16, literal(-1)))
          CFI (cfiCond231) CFA_SP SP+-8
          CFI (cfiCond231) CFA_XSP16 add(XSP16, 39)
          CFI Block cfiCond232 Using cfiCommon0
          CFI (cfiCond232) Function zclController_ProcessInWriteRspCmd
          CFI (cfiCond232) Conditional ??CrossCallReturnLabel_100, ??CrossCallReturnLabel_90, ??CrossCallReturnLabel_76, ??CrossCallReturnLabel_15
          CFI (cfiCond232) R6 load(1, XDATA, add(CFA_XSP16, literal(-22)))
          CFI (cfiCond232) VB load(1, XDATA, add(CFA_XSP16, literal(-21)))
          CFI (cfiCond232) V0 load(1, XDATA, add(CFA_XSP16, literal(-20)))
          CFI (cfiCond232) V1 load(1, XDATA, add(CFA_XSP16, literal(-19)))
          CFI (cfiCond232) V2 load(1, XDATA, add(CFA_XSP16, literal(-18)))
          CFI (cfiCond232) V3 load(1, XDATA, add(CFA_XSP16, literal(-17)))
          CFI (cfiCond232) V4 load(1, XDATA, add(CFA_XSP16, literal(-16)))
          CFI (cfiCond232) V5 load(1, XDATA, add(CFA_XSP16, literal(-15)))
          CFI (cfiCond232) V6 load(1, XDATA, add(CFA_XSP16, literal(-14)))
          CFI (cfiCond232) V7 load(1, XDATA, add(CFA_XSP16, literal(-13)))
          CFI (cfiCond232) V8 load(1, XDATA, add(CFA_XSP16, literal(-12)))
          CFI (cfiCond232) V9 load(1, XDATA, add(CFA_XSP16, literal(-11)))
          CFI (cfiCond232) V10 load(1, XDATA, add(CFA_XSP16, literal(-10)))
          CFI (cfiCond232) V11 load(1, XDATA, add(CFA_XSP16, literal(-9)))
          CFI (cfiCond232) V12 load(1, XDATA, add(CFA_XSP16, literal(-8)))
          CFI (cfiCond232) V13 load(1, XDATA, add(CFA_XSP16, literal(-7)))
          CFI (cfiCond232) R7 load(1, XDATA, add(CFA_XSP16, literal(-6)))
          CFI (cfiCond232) ?RET_LOW load(1, XDATA, add(CFA_XSP16, literal(-5)))
          CFI (cfiCond232) ?RET_HIGH load(1, XDATA, add(CFA_XSP16, literal(-4)))
          CFI (cfiCond232) ?BRET_EXT load(1, XDATA, add(CFA_XSP16, literal(-3)))
          CFI (cfiCond232) DPL0 load(1, XDATA, add(CFA_XSP16, literal(-2)))
          CFI (cfiCond232) DPH0 load(1, XDATA, add(CFA_XSP16, literal(-1)))
          CFI (cfiCond232) CFA_SP SP+-8
          CFI (cfiCond232) CFA_XSP16 add(XSP16, 39)
          CFI Block cfiCond233 Using cfiCommon0
          CFI (cfiCond233) Function zclController_ProcessInWriteRspCmd
          CFI (cfiCond233) Conditional ??CrossCallReturnLabel_100, ??CrossCallReturnLabel_90, ??CrossCallReturnLabel_77, ??CrossCallReturnLabel_16
          CFI (cfiCond233) R6 load(1, XDATA, add(CFA_XSP16, literal(-22)))
          CFI (cfiCond233) VB load(1, XDATA, add(CFA_XSP16, literal(-21)))
          CFI (cfiCond233) V0 load(1, XDATA, add(CFA_XSP16, literal(-20)))
          CFI (cfiCond233) V1 load(1, XDATA, add(CFA_XSP16, literal(-19)))
          CFI (cfiCond233) V2 load(1, XDATA, add(CFA_XSP16, literal(-18)))
          CFI (cfiCond233) V3 load(1, XDATA, add(CFA_XSP16, literal(-17)))
          CFI (cfiCond233) V4 load(1, XDATA, add(CFA_XSP16, literal(-16)))
          CFI (cfiCond233) V5 load(1, XDATA, add(CFA_XSP16, literal(-15)))
          CFI (cfiCond233) V6 load(1, XDATA, add(CFA_XSP16, literal(-14)))
          CFI (cfiCond233) V7 load(1, XDATA, add(CFA_XSP16, literal(-13)))
          CFI (cfiCond233) V8 load(1, XDATA, add(CFA_XSP16, literal(-12)))
          CFI (cfiCond233) V9 load(1, XDATA, add(CFA_XSP16, literal(-11)))
          CFI (cfiCond233) V10 load(1, XDATA, add(CFA_XSP16, literal(-10)))
          CFI (cfiCond233) V11 load(1, XDATA, add(CFA_XSP16, literal(-9)))
          CFI (cfiCond233) V12 load(1, XDATA, add(CFA_XSP16, literal(-8)))
          CFI (cfiCond233) V13 load(1, XDATA, add(CFA_XSP16, literal(-7)))
          CFI (cfiCond233) R7 load(1, XDATA, add(CFA_XSP16, literal(-6)))
          CFI (cfiCond233) ?RET_LOW load(1, XDATA, add(CFA_XSP16, literal(-5)))
          CFI (cfiCond233) ?RET_HIGH load(1, XDATA, add(CFA_XSP16, literal(-4)))
          CFI (cfiCond233) ?BRET_EXT load(1, XDATA, add(CFA_XSP16, literal(-3)))
          CFI (cfiCond233) DPL0 load(1, XDATA, add(CFA_XSP16, literal(-2)))
          CFI (cfiCond233) DPH0 load(1, XDATA, add(CFA_XSP16, literal(-1)))
          CFI (cfiCond233) CFA_SP SP+-8
          CFI (cfiCond233) CFA_XSP16 add(XSP16, 39)
          CFI Block cfiCond234 Using cfiCommon0
          CFI (cfiCond234) Function zclController_ProcessInReportCmd
          CFI (cfiCond234) Conditional ??CrossCallReturnLabel_100, ??CrossCallReturnLabel_90, ??CrossCallReturnLabel_77, ??CrossCallReturnLabel_17
          CFI (cfiCond234) R6 load(1, XDATA, add(CFA_XSP16, literal(-18)))
          CFI (cfiCond234) VB load(1, XDATA, add(CFA_XSP16, literal(-17)))
          CFI (cfiCond234) V0 load(1, XDATA, add(CFA_XSP16, literal(-16)))
          CFI (cfiCond234) V1 load(1, XDATA, add(CFA_XSP16, literal(-15)))
          CFI (cfiCond234) V2 load(1, XDATA, add(CFA_XSP16, literal(-14)))
          CFI (cfiCond234) V3 load(1, XDATA, add(CFA_XSP16, literal(-13)))
          CFI (cfiCond234) V4 load(1, XDATA, add(CFA_XSP16, literal(-12)))
          CFI (cfiCond234) V5 load(1, XDATA, add(CFA_XSP16, literal(-11)))
          CFI (cfiCond234) V6 load(1, XDATA, add(CFA_XSP16, literal(-10)))
          CFI (cfiCond234) V7 load(1, XDATA, add(CFA_XSP16, literal(-9)))
          CFI (cfiCond234) V8 load(1, XDATA, add(CFA_XSP16, literal(-8)))
          CFI (cfiCond234) V9 load(1, XDATA, add(CFA_XSP16, literal(-7)))
          CFI (cfiCond234) R7 load(1, XDATA, add(CFA_XSP16, literal(-6)))
          CFI (cfiCond234) ?RET_LOW load(1, XDATA, add(CFA_XSP16, literal(-5)))
          CFI (cfiCond234) ?RET_HIGH load(1, XDATA, add(CFA_XSP16, literal(-4)))
          CFI (cfiCond234) ?BRET_EXT load(1, XDATA, add(CFA_XSP16, literal(-3)))
          CFI (cfiCond234) DPL0 load(1, XDATA, add(CFA_XSP16, literal(-2)))
          CFI (cfiCond234) DPH0 load(1, XDATA, add(CFA_XSP16, literal(-1)))
          CFI (cfiCond234) CFA_SP SP+-8
          CFI (cfiCond234) CFA_XSP16 add(XSP16, 35)
          CFI Block cfiCond235 Using cfiCommon0
          CFI (cfiCond235) Function zclController_ProcessInReadRspCmd
          CFI (cfiCond235) Conditional ??CrossCallReturnLabel_100, ??CrossCallReturnLabel_91, ??CrossCallReturnLabel_74, ??CrossCallReturnLabel_4
          CFI (cfiCond235) R6 load(1, XDATA, add(CFA_XSP16, literal(-22)))
          CFI (cfiCond235) VB load(1, XDATA, add(CFA_XSP16, literal(-21)))
          CFI (cfiCond235) V0 load(1, XDATA, add(CFA_XSP16, literal(-20)))
          CFI (cfiCond235) V1 load(1, XDATA, add(CFA_XSP16, literal(-19)))
          CFI (cfiCond235) V2 load(1, XDATA, add(CFA_XSP16, literal(-18)))
          CFI (cfiCond235) V3 load(1, XDATA, add(CFA_XSP16, literal(-17)))
          CFI (cfiCond235) V4 load(1, XDATA, add(CFA_XSP16, literal(-16)))
          CFI (cfiCond235) V5 load(1, XDATA, add(CFA_XSP16, literal(-15)))
          CFI (cfiCond235) V6 load(1, XDATA, add(CFA_XSP16, literal(-14)))
          CFI (cfiCond235) V7 load(1, XDATA, add(CFA_XSP16, literal(-13)))
          CFI (cfiCond235) V8 load(1, XDATA, add(CFA_XSP16, literal(-12)))
          CFI (cfiCond235) V9 load(1, XDATA, add(CFA_XSP16, literal(-11)))
          CFI (cfiCond235) V10 load(1, XDATA, add(CFA_XSP16, literal(-10)))
          CFI (cfiCond235) V11 load(1, XDATA, add(CFA_XSP16, literal(-9)))
          CFI (cfiCond235) V12 load(1, XDATA, add(CFA_XSP16, literal(-8)))
          CFI (cfiCond235) V13 load(1, XDATA, add(CFA_XSP16, literal(-7)))
          CFI (cfiCond235) R7 load(1, XDATA, add(CFA_XSP16, literal(-6)))
          CFI (cfiCond235) ?RET_LOW load(1, XDATA, add(CFA_XSP16, literal(-5)))
          CFI (cfiCond235) ?RET_HIGH load(1, XDATA, add(CFA_XSP16, literal(-4)))
          CFI (cfiCond235) ?BRET_EXT load(1, XDATA, add(CFA_XSP16, literal(-3)))
          CFI (cfiCond235) DPL0 load(1, XDATA, add(CFA_XSP16, literal(-2)))
          CFI (cfiCond235) DPH0 load(1, XDATA, add(CFA_XSP16, literal(-1)))
          CFI (cfiCond235) CFA_SP SP+-8
          CFI (cfiCond235) CFA_XSP16 add(XSP16, 39)
          CFI Block cfiCond236 Using cfiCommon0
          CFI (cfiCond236) Function zclController_ProcessInReportCmd
          CFI (cfiCond236) Conditional ??CrossCallReturnLabel_100, ??CrossCallReturnLabel_91, ??CrossCallReturnLabel_74, ??CrossCallReturnLabel_5
          CFI (cfiCond236) R6 load(1, XDATA, add(CFA_XSP16, literal(-18)))
          CFI (cfiCond236) VB load(1, XDATA, add(CFA_XSP16, literal(-17)))
          CFI (cfiCond236) V0 load(1, XDATA, add(CFA_XSP16, literal(-16)))
          CFI (cfiCond236) V1 load(1, XDATA, add(CFA_XSP16, literal(-15)))
          CFI (cfiCond236) V2 load(1, XDATA, add(CFA_XSP16, literal(-14)))
          CFI (cfiCond236) V3 load(1, XDATA, add(CFA_XSP16, literal(-13)))
          CFI (cfiCond236) V4 load(1, XDATA, add(CFA_XSP16, literal(-12)))
          CFI (cfiCond236) V5 load(1, XDATA, add(CFA_XSP16, literal(-11)))
          CFI (cfiCond236) V6 load(1, XDATA, add(CFA_XSP16, literal(-10)))
          CFI (cfiCond236) V7 load(1, XDATA, add(CFA_XSP16, literal(-9)))
          CFI (cfiCond236) V8 load(1, XDATA, add(CFA_XSP16, literal(-8)))
          CFI (cfiCond236) V9 load(1, XDATA, add(CFA_XSP16, literal(-7)))
          CFI (cfiCond236) R7 load(1, XDATA, add(CFA_XSP16, literal(-6)))
          CFI (cfiCond236) ?RET_LOW load(1, XDATA, add(CFA_XSP16, literal(-5)))
          CFI (cfiCond236) ?RET_HIGH load(1, XDATA, add(CFA_XSP16, literal(-4)))
          CFI (cfiCond236) ?BRET_EXT load(1, XDATA, add(CFA_XSP16, literal(-3)))
          CFI (cfiCond236) DPL0 load(1, XDATA, add(CFA_XSP16, literal(-2)))
          CFI (cfiCond236) DPH0 load(1, XDATA, add(CFA_XSP16, literal(-1)))
          CFI (cfiCond236) CFA_SP SP+-8
          CFI (cfiCond236) CFA_XSP16 add(XSP16, 35)
          CFI Block cfiCond237 Using cfiCommon0
          CFI (cfiCond237) Function zclController_ProcessInReadRspCmd
          CFI (cfiCond237) Conditional ??CrossCallReturnLabel_100, ??CrossCallReturnLabel_91, ??CrossCallReturnLabel_75, ??CrossCallReturnLabel_0
          CFI (cfiCond237) R6 load(1, XDATA, add(CFA_XSP16, literal(-22)))
          CFI (cfiCond237) VB load(1, XDATA, add(CFA_XSP16, literal(-21)))
          CFI (cfiCond237) V0 load(1, XDATA, add(CFA_XSP16, literal(-20)))
          CFI (cfiCond237) V1 load(1, XDATA, add(CFA_XSP16, literal(-19)))
          CFI (cfiCond237) V2 load(1, XDATA, add(CFA_XSP16, literal(-18)))
          CFI (cfiCond237) V3 load(1, XDATA, add(CFA_XSP16, literal(-17)))
          CFI (cfiCond237) V4 load(1, XDATA, add(CFA_XSP16, literal(-16)))
          CFI (cfiCond237) V5 load(1, XDATA, add(CFA_XSP16, literal(-15)))
          CFI (cfiCond237) V6 load(1, XDATA, add(CFA_XSP16, literal(-14)))
          CFI (cfiCond237) V7 load(1, XDATA, add(CFA_XSP16, literal(-13)))
          CFI (cfiCond237) V8 load(1, XDATA, add(CFA_XSP16, literal(-12)))
          CFI (cfiCond237) V9 load(1, XDATA, add(CFA_XSP16, literal(-11)))
          CFI (cfiCond237) V10 load(1, XDATA, add(CFA_XSP16, literal(-10)))
          CFI (cfiCond237) V11 load(1, XDATA, add(CFA_XSP16, literal(-9)))
          CFI (cfiCond237) V12 load(1, XDATA, add(CFA_XSP16, literal(-8)))
          CFI (cfiCond237) V13 load(1, XDATA, add(CFA_XSP16, literal(-7)))
          CFI (cfiCond237) R7 load(1, XDATA, add(CFA_XSP16, literal(-6)))
          CFI (cfiCond237) ?RET_LOW load(1, XDATA, add(CFA_XSP16, literal(-5)))
          CFI (cfiCond237) ?RET_HIGH load(1, XDATA, add(CFA_XSP16, literal(-4)))
          CFI (cfiCond237) ?BRET_EXT load(1, XDATA, add(CFA_XSP16, literal(-3)))
          CFI (cfiCond237) DPL0 load(1, XDATA, add(CFA_XSP16, literal(-2)))
          CFI (cfiCond237) DPH0 load(1, XDATA, add(CFA_XSP16, literal(-1)))
          CFI (cfiCond237) CFA_SP SP+-8
          CFI (cfiCond237) CFA_XSP16 add(XSP16, 39)
          CFI Block cfiCond238 Using cfiCommon0
          CFI (cfiCond238) Function zclController_ProcessInReportCmd
          CFI (cfiCond238) Conditional ??CrossCallReturnLabel_100, ??CrossCallReturnLabel_91, ??CrossCallReturnLabel_75, ??CrossCallReturnLabel_1
          CFI (cfiCond238) R6 load(1, XDATA, add(CFA_XSP16, literal(-18)))
          CFI (cfiCond238) VB load(1, XDATA, add(CFA_XSP16, literal(-17)))
          CFI (cfiCond238) V0 load(1, XDATA, add(CFA_XSP16, literal(-16)))
          CFI (cfiCond238) V1 load(1, XDATA, add(CFA_XSP16, literal(-15)))
          CFI (cfiCond238) V2 load(1, XDATA, add(CFA_XSP16, literal(-14)))
          CFI (cfiCond238) V3 load(1, XDATA, add(CFA_XSP16, literal(-13)))
          CFI (cfiCond238) V4 load(1, XDATA, add(CFA_XSP16, literal(-12)))
          CFI (cfiCond238) V5 load(1, XDATA, add(CFA_XSP16, literal(-11)))
          CFI (cfiCond238) V6 load(1, XDATA, add(CFA_XSP16, literal(-10)))
          CFI (cfiCond238) V7 load(1, XDATA, add(CFA_XSP16, literal(-9)))
          CFI (cfiCond238) V8 load(1, XDATA, add(CFA_XSP16, literal(-8)))
          CFI (cfiCond238) V9 load(1, XDATA, add(CFA_XSP16, literal(-7)))
          CFI (cfiCond238) R7 load(1, XDATA, add(CFA_XSP16, literal(-6)))
          CFI (cfiCond238) ?RET_LOW load(1, XDATA, add(CFA_XSP16, literal(-5)))
          CFI (cfiCond238) ?RET_HIGH load(1, XDATA, add(CFA_XSP16, literal(-4)))
          CFI (cfiCond238) ?BRET_EXT load(1, XDATA, add(CFA_XSP16, literal(-3)))
          CFI (cfiCond238) DPL0 load(1, XDATA, add(CFA_XSP16, literal(-2)))
          CFI (cfiCond238) DPH0 load(1, XDATA, add(CFA_XSP16, literal(-1)))
          CFI (cfiCond238) CFA_SP SP+-8
          CFI (cfiCond238) CFA_XSP16 add(XSP16, 35)
          CFI Block cfiPicker239 Using cfiCommon1
          CFI (cfiPicker239) NoFunction
          CFI (cfiPicker239) Picker
        LCALL     `??AT_Int8toChar::?relay`; Banked call to: AT_Int8toChar
        ; Setup parameters for call to function AT_Uart0_Send
        ; Setup parameters for call to function AT_Uart0_Send
        ; Setup parameters for call to function AT_Uart0_Send
        ; Setup parameters for call to function AT_Uart0_Send
        ; Setup parameters for call to function AT_Uart0_Send
        ; Setup parameters for call to function AT_Uart0_Send
        ; Setup parameters for call to function AT_Uart0_Send
        ; Setup parameters for call to function AT_Uart0_Send
        ; Setup parameters for call to function AT_Uart0_Send
        MOV       R4,#0x2
        MOV       R5,#0x0
        MOV       R2,?XSP + 0
        MOV       R3,?XSP + 1
        RET
          CFI EndBlock cfiCond230
          CFI EndBlock cfiCond231
          CFI EndBlock cfiCond232
          CFI EndBlock cfiCond233
          CFI EndBlock cfiCond234
          CFI EndBlock cfiCond235
          CFI EndBlock cfiCond236
          CFI EndBlock cfiCond237
          CFI EndBlock cfiCond238
          CFI EndBlock cfiPicker239

        RSEG BANKED_CODE:HUGECODE:NOROOT(0)
?Subroutine9:
          CFI Block cfiCond240 Using cfiCommon0
          CFI Function zclController_ProcessInReadRspCmd
          CFI Conditional ??CrossCallReturnLabel_6
          CFI R6 load(1, XDATA, add(CFA_XSP16, literal(-22)))
          CFI VB load(1, XDATA, add(CFA_XSP16, literal(-21)))
          CFI V0 load(1, XDATA, add(CFA_XSP16, literal(-20)))
          CFI V1 load(1, XDATA, add(CFA_XSP16, literal(-19)))
          CFI V2 load(1, XDATA, add(CFA_XSP16, literal(-18)))
          CFI V3 load(1, XDATA, add(CFA_XSP16, literal(-17)))
          CFI V4 load(1, XDATA, add(CFA_XSP16, literal(-16)))
          CFI V5 load(1, XDATA, add(CFA_XSP16, literal(-15)))
          CFI V6 load(1, XDATA, add(CFA_XSP16, literal(-14)))
          CFI V7 load(1, XDATA, add(CFA_XSP16, literal(-13)))
          CFI V8 load(1, XDATA, add(CFA_XSP16, literal(-12)))
          CFI V9 load(1, XDATA, add(CFA_XSP16, literal(-11)))
          CFI V10 load(1, XDATA, add(CFA_XSP16, literal(-10)))
          CFI V11 load(1, XDATA, add(CFA_XSP16, literal(-9)))
          CFI V12 load(1, XDATA, add(CFA_XSP16, literal(-8)))
          CFI V13 load(1, XDATA, add(CFA_XSP16, literal(-7)))
          CFI R7 load(1, XDATA, add(CFA_XSP16, literal(-6)))
          CFI ?RET_LOW load(1, XDATA, add(CFA_XSP16, literal(-5)))
          CFI ?RET_HIGH load(1, XDATA, add(CFA_XSP16, literal(-4)))
          CFI ?BRET_EXT load(1, XDATA, add(CFA_XSP16, literal(-3)))
          CFI DPL0 load(1, XDATA, add(CFA_XSP16, literal(-2)))
          CFI DPH0 load(1, XDATA, add(CFA_XSP16, literal(-1)))
          CFI CFA_SP SP+-2
          CFI CFA_XSP16 add(XSP16, 39)
          CFI Block cfiCond241 Using cfiCommon0
          CFI (cfiCond241) Function zclController_ProcessInReportCmd
          CFI (cfiCond241) Conditional ??CrossCallReturnLabel_7
          CFI (cfiCond241) R6 load(1, XDATA, add(CFA_XSP16, literal(-18)))
          CFI (cfiCond241) VB load(1, XDATA, add(CFA_XSP16, literal(-17)))
          CFI (cfiCond241) V0 load(1, XDATA, add(CFA_XSP16, literal(-16)))
          CFI (cfiCond241) V1 load(1, XDATA, add(CFA_XSP16, literal(-15)))
          CFI (cfiCond241) V2 load(1, XDATA, add(CFA_XSP16, literal(-14)))
          CFI (cfiCond241) V3 load(1, XDATA, add(CFA_XSP16, literal(-13)))
          CFI (cfiCond241) V4 load(1, XDATA, add(CFA_XSP16, literal(-12)))
          CFI (cfiCond241) V5 load(1, XDATA, add(CFA_XSP16, literal(-11)))
          CFI (cfiCond241) V6 load(1, XDATA, add(CFA_XSP16, literal(-10)))
          CFI (cfiCond241) V7 load(1, XDATA, add(CFA_XSP16, literal(-9)))
          CFI (cfiCond241) V8 load(1, XDATA, add(CFA_XSP16, literal(-8)))
          CFI (cfiCond241) V9 load(1, XDATA, add(CFA_XSP16, literal(-7)))
          CFI (cfiCond241) R7 load(1, XDATA, add(CFA_XSP16, literal(-6)))
          CFI (cfiCond241) ?RET_LOW load(1, XDATA, add(CFA_XSP16, literal(-5)))
          CFI (cfiCond241) ?RET_HIGH load(1, XDATA, add(CFA_XSP16, literal(-4)))
          CFI (cfiCond241) ?BRET_EXT load(1, XDATA, add(CFA_XSP16, literal(-3)))
          CFI (cfiCond241) DPL0 load(1, XDATA, add(CFA_XSP16, literal(-2)))
          CFI (cfiCond241) DPH0 load(1, XDATA, add(CFA_XSP16, literal(-1)))
          CFI (cfiCond241) CFA_SP SP+-2
          CFI (cfiCond241) CFA_XSP16 add(XSP16, 35)
          CFI Block cfiPicker242 Using cfiCommon1
          CFI (cfiPicker242) NoFunction
          CFI (cfiPicker242) Picker
        LCALL     ?Subroutine39 & 0xFFFF
??CrossCallReturnLabel_72:
        RET
          CFI EndBlock cfiCond240
          CFI EndBlock cfiCond241
          CFI EndBlock cfiPicker242

        RSEG BANKED_CODE:HUGECODE:NOROOT(0)
?Subroutine39:
          CFI Block cfiCond243 Using cfiCommon0
          CFI Function zclController_ProcessInReadRspCmd
          CFI Conditional ??CrossCallReturnLabel_72, ??CrossCallReturnLabel_6
          CFI R6 load(1, XDATA, add(CFA_XSP16, literal(-22)))
          CFI VB load(1, XDATA, add(CFA_XSP16, literal(-21)))
          CFI V0 load(1, XDATA, add(CFA_XSP16, literal(-20)))
          CFI V1 load(1, XDATA, add(CFA_XSP16, literal(-19)))
          CFI V2 load(1, XDATA, add(CFA_XSP16, literal(-18)))
          CFI V3 load(1, XDATA, add(CFA_XSP16, literal(-17)))
          CFI V4 load(1, XDATA, add(CFA_XSP16, literal(-16)))
          CFI V5 load(1, XDATA, add(CFA_XSP16, literal(-15)))
          CFI V6 load(1, XDATA, add(CFA_XSP16, literal(-14)))
          CFI V7 load(1, XDATA, add(CFA_XSP16, literal(-13)))
          CFI V8 load(1, XDATA, add(CFA_XSP16, literal(-12)))
          CFI V9 load(1, XDATA, add(CFA_XSP16, literal(-11)))
          CFI V10 load(1, XDATA, add(CFA_XSP16, literal(-10)))
          CFI V11 load(1, XDATA, add(CFA_XSP16, literal(-9)))
          CFI V12 load(1, XDATA, add(CFA_XSP16, literal(-8)))
          CFI V13 load(1, XDATA, add(CFA_XSP16, literal(-7)))
          CFI R7 load(1, XDATA, add(CFA_XSP16, literal(-6)))
          CFI ?RET_LOW load(1, XDATA, add(CFA_XSP16, literal(-5)))
          CFI ?RET_HIGH load(1, XDATA, add(CFA_XSP16, literal(-4)))
          CFI ?BRET_EXT load(1, XDATA, add(CFA_XSP16, literal(-3)))
          CFI DPL0 load(1, XDATA, add(CFA_XSP16, literal(-2)))
          CFI DPH0 load(1, XDATA, add(CFA_XSP16, literal(-1)))
          CFI CFA_SP SP+-4
          CFI CFA_XSP16 add(XSP16, 39)
          CFI Block cfiCond244 Using cfiCommon0
          CFI (cfiCond244) Function zclController_ProcessInReportCmd
          CFI (cfiCond244) Conditional ??CrossCallReturnLabel_72, ??CrossCallReturnLabel_7
          CFI (cfiCond244) R6 load(1, XDATA, add(CFA_XSP16, literal(-18)))
          CFI (cfiCond244) VB load(1, XDATA, add(CFA_XSP16, literal(-17)))
          CFI (cfiCond244) V0 load(1, XDATA, add(CFA_XSP16, literal(-16)))
          CFI (cfiCond244) V1 load(1, XDATA, add(CFA_XSP16, literal(-15)))
          CFI (cfiCond244) V2 load(1, XDATA, add(CFA_XSP16, literal(-14)))
          CFI (cfiCond244) V3 load(1, XDATA, add(CFA_XSP16, literal(-13)))
          CFI (cfiCond244) V4 load(1, XDATA, add(CFA_XSP16, literal(-12)))
          CFI (cfiCond244) V5 load(1, XDATA, add(CFA_XSP16, literal(-11)))
          CFI (cfiCond244) V6 load(1, XDATA, add(CFA_XSP16, literal(-10)))
          CFI (cfiCond244) V7 load(1, XDATA, add(CFA_XSP16, literal(-9)))
          CFI (cfiCond244) V8 load(1, XDATA, add(CFA_XSP16, literal(-8)))
          CFI (cfiCond244) V9 load(1, XDATA, add(CFA_XSP16, literal(-7)))
          CFI (cfiCond244) R7 load(1, XDATA, add(CFA_XSP16, literal(-6)))
          CFI (cfiCond244) ?RET_LOW load(1, XDATA, add(CFA_XSP16, literal(-5)))
          CFI (cfiCond244) ?RET_HIGH load(1, XDATA, add(CFA_XSP16, literal(-4)))
          CFI (cfiCond244) ?BRET_EXT load(1, XDATA, add(CFA_XSP16, literal(-3)))
          CFI (cfiCond244) DPL0 load(1, XDATA, add(CFA_XSP16, literal(-2)))
          CFI (cfiCond244) DPH0 load(1, XDATA, add(CFA_XSP16, literal(-1)))
          CFI (cfiCond244) CFA_SP SP+-4
          CFI (cfiCond244) CFA_XSP16 add(XSP16, 35)
          CFI Block cfiCond245 Using cfiCommon0
          CFI (cfiCond245) Function zclController_ProcessInReadRspCmd
          CFI (cfiCond245) Conditional ??CrossCallReturnLabel_73, ??CrossCallReturnLabel_2
          CFI (cfiCond245) R6 load(1, XDATA, add(CFA_XSP16, literal(-22)))
          CFI (cfiCond245) VB load(1, XDATA, add(CFA_XSP16, literal(-21)))
          CFI (cfiCond245) V0 load(1, XDATA, add(CFA_XSP16, literal(-20)))
          CFI (cfiCond245) V1 load(1, XDATA, add(CFA_XSP16, literal(-19)))
          CFI (cfiCond245) V2 load(1, XDATA, add(CFA_XSP16, literal(-18)))
          CFI (cfiCond245) V3 load(1, XDATA, add(CFA_XSP16, literal(-17)))
          CFI (cfiCond245) V4 load(1, XDATA, add(CFA_XSP16, literal(-16)))
          CFI (cfiCond245) V5 load(1, XDATA, add(CFA_XSP16, literal(-15)))
          CFI (cfiCond245) V6 load(1, XDATA, add(CFA_XSP16, literal(-14)))
          CFI (cfiCond245) V7 load(1, XDATA, add(CFA_XSP16, literal(-13)))
          CFI (cfiCond245) V8 load(1, XDATA, add(CFA_XSP16, literal(-12)))
          CFI (cfiCond245) V9 load(1, XDATA, add(CFA_XSP16, literal(-11)))
          CFI (cfiCond245) V10 load(1, XDATA, add(CFA_XSP16, literal(-10)))
          CFI (cfiCond245) V11 load(1, XDATA, add(CFA_XSP16, literal(-9)))
          CFI (cfiCond245) V12 load(1, XDATA, add(CFA_XSP16, literal(-8)))
          CFI (cfiCond245) V13 load(1, XDATA, add(CFA_XSP16, literal(-7)))
          CFI (cfiCond245) R7 load(1, XDATA, add(CFA_XSP16, literal(-6)))
          CFI (cfiCond245) ?RET_LOW load(1, XDATA, add(CFA_XSP16, literal(-5)))
          CFI (cfiCond245) ?RET_HIGH load(1, XDATA, add(CFA_XSP16, literal(-4)))
          CFI (cfiCond245) ?BRET_EXT load(1, XDATA, add(CFA_XSP16, literal(-3)))
          CFI (cfiCond245) DPL0 load(1, XDATA, add(CFA_XSP16, literal(-2)))
          CFI (cfiCond245) DPH0 load(1, XDATA, add(CFA_XSP16, literal(-1)))
          CFI (cfiCond245) CFA_SP SP+-4
          CFI (cfiCond245) CFA_XSP16 add(XSP16, 39)
          CFI Block cfiCond246 Using cfiCommon0
          CFI (cfiCond246) Function zclController_ProcessInReportCmd
          CFI (cfiCond246) Conditional ??CrossCallReturnLabel_73, ??CrossCallReturnLabel_3
          CFI (cfiCond246) R6 load(1, XDATA, add(CFA_XSP16, literal(-18)))
          CFI (cfiCond246) VB load(1, XDATA, add(CFA_XSP16, literal(-17)))
          CFI (cfiCond246) V0 load(1, XDATA, add(CFA_XSP16, literal(-16)))
          CFI (cfiCond246) V1 load(1, XDATA, add(CFA_XSP16, literal(-15)))
          CFI (cfiCond246) V2 load(1, XDATA, add(CFA_XSP16, literal(-14)))
          CFI (cfiCond246) V3 load(1, XDATA, add(CFA_XSP16, literal(-13)))
          CFI (cfiCond246) V4 load(1, XDATA, add(CFA_XSP16, literal(-12)))
          CFI (cfiCond246) V5 load(1, XDATA, add(CFA_XSP16, literal(-11)))
          CFI (cfiCond246) V6 load(1, XDATA, add(CFA_XSP16, literal(-10)))
          CFI (cfiCond246) V7 load(1, XDATA, add(CFA_XSP16, literal(-9)))
          CFI (cfiCond246) V8 load(1, XDATA, add(CFA_XSP16, literal(-8)))
          CFI (cfiCond246) V9 load(1, XDATA, add(CFA_XSP16, literal(-7)))
          CFI (cfiCond246) R7 load(1, XDATA, add(CFA_XSP16, literal(-6)))
          CFI (cfiCond246) ?RET_LOW load(1, XDATA, add(CFA_XSP16, literal(-5)))
          CFI (cfiCond246) ?RET_HIGH load(1, XDATA, add(CFA_XSP16, literal(-4)))
          CFI (cfiCond246) ?BRET_EXT load(1, XDATA, add(CFA_XSP16, literal(-3)))
          CFI (cfiCond246) DPL0 load(1, XDATA, add(CFA_XSP16, literal(-2)))
          CFI (cfiCond246) DPH0 load(1, XDATA, add(CFA_XSP16, literal(-1)))
          CFI (cfiCond246) CFA_SP SP+-4
          CFI (cfiCond246) CFA_XSP16 add(XSP16, 35)
          CFI Block cfiPicker247 Using cfiCommon1
          CFI (cfiPicker247) NoFunction
          CFI (cfiPicker247) Picker
        INC       DPTR
        LCALL     ?Subroutine50 & 0xFFFF
??CrossCallReturnLabel_121:
        LCALL     ?Subroutine52 & 0xFFFF
??CrossCallReturnLabel_95:
        RET
          CFI EndBlock cfiCond243
          CFI EndBlock cfiCond244
          CFI EndBlock cfiCond245
          CFI EndBlock cfiCond246
          CFI EndBlock cfiPicker247

        RSEG BANKED_CODE:HUGECODE:NOROOT(0)
?Subroutine52:
          CFI Block cfiCond248 Using cfiCommon0
          CFI Function zclController_ProcessInReadRspCmd
          CFI Conditional ??CrossCallReturnLabel_94, ??CrossCallReturnLabel_50
          CFI R6 load(1, XDATA, add(CFA_XSP16, literal(-22)))
          CFI VB load(1, XDATA, add(CFA_XSP16, literal(-21)))
          CFI V0 load(1, XDATA, add(CFA_XSP16, literal(-20)))
          CFI V1 load(1, XDATA, add(CFA_XSP16, literal(-19)))
          CFI V2 load(1, XDATA, add(CFA_XSP16, literal(-18)))
          CFI V3 load(1, XDATA, add(CFA_XSP16, literal(-17)))
          CFI V4 load(1, XDATA, add(CFA_XSP16, literal(-16)))
          CFI V5 load(1, XDATA, add(CFA_XSP16, literal(-15)))
          CFI V6 load(1, XDATA, add(CFA_XSP16, literal(-14)))
          CFI V7 load(1, XDATA, add(CFA_XSP16, literal(-13)))
          CFI V8 load(1, XDATA, add(CFA_XSP16, literal(-12)))
          CFI V9 load(1, XDATA, add(CFA_XSP16, literal(-11)))
          CFI V10 load(1, XDATA, add(CFA_XSP16, literal(-10)))
          CFI V11 load(1, XDATA, add(CFA_XSP16, literal(-9)))
          CFI V12 load(1, XDATA, add(CFA_XSP16, literal(-8)))
          CFI V13 load(1, XDATA, add(CFA_XSP16, literal(-7)))
          CFI R7 load(1, XDATA, add(CFA_XSP16, literal(-6)))
          CFI ?RET_LOW load(1, XDATA, add(CFA_XSP16, literal(-5)))
          CFI ?RET_HIGH load(1, XDATA, add(CFA_XSP16, literal(-4)))
          CFI ?BRET_EXT load(1, XDATA, add(CFA_XSP16, literal(-3)))
          CFI DPL0 load(1, XDATA, add(CFA_XSP16, literal(-2)))
          CFI DPH0 load(1, XDATA, add(CFA_XSP16, literal(-1)))
          CFI CFA_SP SP+-4
          CFI CFA_XSP16 add(XSP16, 39)
          CFI Block cfiCond249 Using cfiCommon0
          CFI (cfiCond249) Function zclController_ProcessInReportCmd
          CFI (cfiCond249) Conditional ??CrossCallReturnLabel_94, ??CrossCallReturnLabel_51
          CFI (cfiCond249) R6 load(1, XDATA, add(CFA_XSP16, literal(-18)))
          CFI (cfiCond249) VB load(1, XDATA, add(CFA_XSP16, literal(-17)))
          CFI (cfiCond249) V0 load(1, XDATA, add(CFA_XSP16, literal(-16)))
          CFI (cfiCond249) V1 load(1, XDATA, add(CFA_XSP16, literal(-15)))
          CFI (cfiCond249) V2 load(1, XDATA, add(CFA_XSP16, literal(-14)))
          CFI (cfiCond249) V3 load(1, XDATA, add(CFA_XSP16, literal(-13)))
          CFI (cfiCond249) V4 load(1, XDATA, add(CFA_XSP16, literal(-12)))
          CFI (cfiCond249) V5 load(1, XDATA, add(CFA_XSP16, literal(-11)))
          CFI (cfiCond249) V6 load(1, XDATA, add(CFA_XSP16, literal(-10)))
          CFI (cfiCond249) V7 load(1, XDATA, add(CFA_XSP16, literal(-9)))
          CFI (cfiCond249) V8 load(1, XDATA, add(CFA_XSP16, literal(-8)))
          CFI (cfiCond249) V9 load(1, XDATA, add(CFA_XSP16, literal(-7)))
          CFI (cfiCond249) R7 load(1, XDATA, add(CFA_XSP16, literal(-6)))
          CFI (cfiCond249) ?RET_LOW load(1, XDATA, add(CFA_XSP16, literal(-5)))
          CFI (cfiCond249) ?RET_HIGH load(1, XDATA, add(CFA_XSP16, literal(-4)))
          CFI (cfiCond249) ?BRET_EXT load(1, XDATA, add(CFA_XSP16, literal(-3)))
          CFI (cfiCond249) DPL0 load(1, XDATA, add(CFA_XSP16, literal(-2)))
          CFI (cfiCond249) DPH0 load(1, XDATA, add(CFA_XSP16, literal(-1)))
          CFI (cfiCond249) CFA_SP SP+-4
          CFI (cfiCond249) CFA_XSP16 add(XSP16, 35)
          CFI Block cfiCond250 Using cfiCommon0
          CFI (cfiCond250) Function zclController_ProcessInReadRspCmd
          CFI (cfiCond250) Conditional ??CrossCallReturnLabel_95, ??CrossCallReturnLabel_72, ??CrossCallReturnLabel_6
          CFI (cfiCond250) R6 load(1, XDATA, add(CFA_XSP16, literal(-22)))
          CFI (cfiCond250) VB load(1, XDATA, add(CFA_XSP16, literal(-21)))
          CFI (cfiCond250) V0 load(1, XDATA, add(CFA_XSP16, literal(-20)))
          CFI (cfiCond250) V1 load(1, XDATA, add(CFA_XSP16, literal(-19)))
          CFI (cfiCond250) V2 load(1, XDATA, add(CFA_XSP16, literal(-18)))
          CFI (cfiCond250) V3 load(1, XDATA, add(CFA_XSP16, literal(-17)))
          CFI (cfiCond250) V4 load(1, XDATA, add(CFA_XSP16, literal(-16)))
          CFI (cfiCond250) V5 load(1, XDATA, add(CFA_XSP16, literal(-15)))
          CFI (cfiCond250) V6 load(1, XDATA, add(CFA_XSP16, literal(-14)))
          CFI (cfiCond250) V7 load(1, XDATA, add(CFA_XSP16, literal(-13)))
          CFI (cfiCond250) V8 load(1, XDATA, add(CFA_XSP16, literal(-12)))
          CFI (cfiCond250) V9 load(1, XDATA, add(CFA_XSP16, literal(-11)))
          CFI (cfiCond250) V10 load(1, XDATA, add(CFA_XSP16, literal(-10)))
          CFI (cfiCond250) V11 load(1, XDATA, add(CFA_XSP16, literal(-9)))
          CFI (cfiCond250) V12 load(1, XDATA, add(CFA_XSP16, literal(-8)))
          CFI (cfiCond250) V13 load(1, XDATA, add(CFA_XSP16, literal(-7)))
          CFI (cfiCond250) R7 load(1, XDATA, add(CFA_XSP16, literal(-6)))
          CFI (cfiCond250) ?RET_LOW load(1, XDATA, add(CFA_XSP16, literal(-5)))
          CFI (cfiCond250) ?RET_HIGH load(1, XDATA, add(CFA_XSP16, literal(-4)))
          CFI (cfiCond250) ?BRET_EXT load(1, XDATA, add(CFA_XSP16, literal(-3)))
          CFI (cfiCond250) DPL0 load(1, XDATA, add(CFA_XSP16, literal(-2)))
          CFI (cfiCond250) DPH0 load(1, XDATA, add(CFA_XSP16, literal(-1)))
          CFI (cfiCond250) CFA_SP SP+-6
          CFI (cfiCond250) CFA_XSP16 add(XSP16, 39)
          CFI Block cfiCond251 Using cfiCommon0
          CFI (cfiCond251) Function zclController_ProcessInReportCmd
          CFI (cfiCond251) Conditional ??CrossCallReturnLabel_95, ??CrossCallReturnLabel_72, ??CrossCallReturnLabel_7
          CFI (cfiCond251) R6 load(1, XDATA, add(CFA_XSP16, literal(-18)))
          CFI (cfiCond251) VB load(1, XDATA, add(CFA_XSP16, literal(-17)))
          CFI (cfiCond251) V0 load(1, XDATA, add(CFA_XSP16, literal(-16)))
          CFI (cfiCond251) V1 load(1, XDATA, add(CFA_XSP16, literal(-15)))
          CFI (cfiCond251) V2 load(1, XDATA, add(CFA_XSP16, literal(-14)))
          CFI (cfiCond251) V3 load(1, XDATA, add(CFA_XSP16, literal(-13)))
          CFI (cfiCond251) V4 load(1, XDATA, add(CFA_XSP16, literal(-12)))
          CFI (cfiCond251) V5 load(1, XDATA, add(CFA_XSP16, literal(-11)))
          CFI (cfiCond251) V6 load(1, XDATA, add(CFA_XSP16, literal(-10)))
          CFI (cfiCond251) V7 load(1, XDATA, add(CFA_XSP16, literal(-9)))
          CFI (cfiCond251) V8 load(1, XDATA, add(CFA_XSP16, literal(-8)))
          CFI (cfiCond251) V9 load(1, XDATA, add(CFA_XSP16, literal(-7)))
          CFI (cfiCond251) R7 load(1, XDATA, add(CFA_XSP16, literal(-6)))
          CFI (cfiCond251) ?RET_LOW load(1, XDATA, add(CFA_XSP16, literal(-5)))
          CFI (cfiCond251) ?RET_HIGH load(1, XDATA, add(CFA_XSP16, literal(-4)))
          CFI (cfiCond251) ?BRET_EXT load(1, XDATA, add(CFA_XSP16, literal(-3)))
          CFI (cfiCond251) DPL0 load(1, XDATA, add(CFA_XSP16, literal(-2)))
          CFI (cfiCond251) DPH0 load(1, XDATA, add(CFA_XSP16, literal(-1)))
          CFI (cfiCond251) CFA_SP SP+-6
          CFI (cfiCond251) CFA_XSP16 add(XSP16, 35)
          CFI Block cfiCond252 Using cfiCommon0
          CFI (cfiCond252) Function zclController_ProcessInReadRspCmd
          CFI (cfiCond252) Conditional ??CrossCallReturnLabel_95, ??CrossCallReturnLabel_73, ??CrossCallReturnLabel_2
          CFI (cfiCond252) R6 load(1, XDATA, add(CFA_XSP16, literal(-22)))
          CFI (cfiCond252) VB load(1, XDATA, add(CFA_XSP16, literal(-21)))
          CFI (cfiCond252) V0 load(1, XDATA, add(CFA_XSP16, literal(-20)))
          CFI (cfiCond252) V1 load(1, XDATA, add(CFA_XSP16, literal(-19)))
          CFI (cfiCond252) V2 load(1, XDATA, add(CFA_XSP16, literal(-18)))
          CFI (cfiCond252) V3 load(1, XDATA, add(CFA_XSP16, literal(-17)))
          CFI (cfiCond252) V4 load(1, XDATA, add(CFA_XSP16, literal(-16)))
          CFI (cfiCond252) V5 load(1, XDATA, add(CFA_XSP16, literal(-15)))
          CFI (cfiCond252) V6 load(1, XDATA, add(CFA_XSP16, literal(-14)))
          CFI (cfiCond252) V7 load(1, XDATA, add(CFA_XSP16, literal(-13)))
          CFI (cfiCond252) V8 load(1, XDATA, add(CFA_XSP16, literal(-12)))
          CFI (cfiCond252) V9 load(1, XDATA, add(CFA_XSP16, literal(-11)))
          CFI (cfiCond252) V10 load(1, XDATA, add(CFA_XSP16, literal(-10)))
          CFI (cfiCond252) V11 load(1, XDATA, add(CFA_XSP16, literal(-9)))
          CFI (cfiCond252) V12 load(1, XDATA, add(CFA_XSP16, literal(-8)))
          CFI (cfiCond252) V13 load(1, XDATA, add(CFA_XSP16, literal(-7)))
          CFI (cfiCond252) R7 load(1, XDATA, add(CFA_XSP16, literal(-6)))
          CFI (cfiCond252) ?RET_LOW load(1, XDATA, add(CFA_XSP16, literal(-5)))
          CFI (cfiCond252) ?RET_HIGH load(1, XDATA, add(CFA_XSP16, literal(-4)))
          CFI (cfiCond252) ?BRET_EXT load(1, XDATA, add(CFA_XSP16, literal(-3)))
          CFI (cfiCond252) DPL0 load(1, XDATA, add(CFA_XSP16, literal(-2)))
          CFI (cfiCond252) DPH0 load(1, XDATA, add(CFA_XSP16, literal(-1)))
          CFI (cfiCond252) CFA_SP SP+-6
          CFI (cfiCond252) CFA_XSP16 add(XSP16, 39)
          CFI Block cfiCond253 Using cfiCommon0
          CFI (cfiCond253) Function zclController_ProcessInReportCmd
          CFI (cfiCond253) Conditional ??CrossCallReturnLabel_95, ??CrossCallReturnLabel_73, ??CrossCallReturnLabel_3
          CFI (cfiCond253) R6 load(1, XDATA, add(CFA_XSP16, literal(-18)))
          CFI (cfiCond253) VB load(1, XDATA, add(CFA_XSP16, literal(-17)))
          CFI (cfiCond253) V0 load(1, XDATA, add(CFA_XSP16, literal(-16)))
          CFI (cfiCond253) V1 load(1, XDATA, add(CFA_XSP16, literal(-15)))
          CFI (cfiCond253) V2 load(1, XDATA, add(CFA_XSP16, literal(-14)))
          CFI (cfiCond253) V3 load(1, XDATA, add(CFA_XSP16, literal(-13)))
          CFI (cfiCond253) V4 load(1, XDATA, add(CFA_XSP16, literal(-12)))
          CFI (cfiCond253) V5 load(1, XDATA, add(CFA_XSP16, literal(-11)))
          CFI (cfiCond253) V6 load(1, XDATA, add(CFA_XSP16, literal(-10)))
          CFI (cfiCond253) V7 load(1, XDATA, add(CFA_XSP16, literal(-9)))
          CFI (cfiCond253) V8 load(1, XDATA, add(CFA_XSP16, literal(-8)))
          CFI (cfiCond253) V9 load(1, XDATA, add(CFA_XSP16, literal(-7)))
          CFI (cfiCond253) R7 load(1, XDATA, add(CFA_XSP16, literal(-6)))
          CFI (cfiCond253) ?RET_LOW load(1, XDATA, add(CFA_XSP16, literal(-5)))
          CFI (cfiCond253) ?RET_HIGH load(1, XDATA, add(CFA_XSP16, literal(-4)))
          CFI (cfiCond253) ?BRET_EXT load(1, XDATA, add(CFA_XSP16, literal(-3)))
          CFI (cfiCond253) DPL0 load(1, XDATA, add(CFA_XSP16, literal(-2)))
          CFI (cfiCond253) DPH0 load(1, XDATA, add(CFA_XSP16, literal(-1)))
          CFI (cfiCond253) CFA_SP SP+-6
          CFI (cfiCond253) CFA_XSP16 add(XSP16, 35)
          CFI Block cfiPicker254 Using cfiCommon1
          CFI (cfiPicker254) NoFunction
          CFI (cfiPicker254) Picker
        MOV       R5,#0x0
        MOV       R2,?XSP + 0
        MOV       R3,?XSP + 1
        LCALL     `??AT_Uart0_Send::?relay`; Banked call to: AT_Uart0_Send
        ; Setup parameters for call to function AT_Uart0_Send
        ; Setup parameters for call to function AT_Uart0_Send
        ; Setup parameters for call to function AT_Uart0_Send
        ; Setup parameters for call to function AT_Uart0_Send
        ; Setup parameters for call to function AT_Uart0_Send
        ; Setup parameters for call to function AT_Uart0_Send
        MOV       R4,#0x1
        MOV       R5,#0x0
        MOV       R2,#`?<Constant ",">` & 0xff
        MOV       R3,#(`?<Constant ",">` >> 8) & 0xff
        LCALL     `??AT_Uart0_Send::?relay`; Banked call to: AT_Uart0_Send
        RET
          CFI EndBlock cfiCond248
          CFI EndBlock cfiCond249
          CFI EndBlock cfiCond250
          CFI EndBlock cfiCond251
          CFI EndBlock cfiCond252
          CFI EndBlock cfiCond253
          CFI EndBlock cfiPicker254

        RSEG BANKED_CODE:HUGECODE:NOROOT(0)
?Subroutine8:
          CFI Block cfiCond255 Using cfiCommon0
          CFI Function zclController_ProcessInReadRspCmd
          CFI Conditional ??CrossCallReturnLabel_4
          CFI R6 load(1, XDATA, add(CFA_XSP16, literal(-22)))
          CFI VB load(1, XDATA, add(CFA_XSP16, literal(-21)))
          CFI V0 load(1, XDATA, add(CFA_XSP16, literal(-20)))
          CFI V1 load(1, XDATA, add(CFA_XSP16, literal(-19)))
          CFI V2 load(1, XDATA, add(CFA_XSP16, literal(-18)))
          CFI V3 load(1, XDATA, add(CFA_XSP16, literal(-17)))
          CFI V4 load(1, XDATA, add(CFA_XSP16, literal(-16)))
          CFI V5 load(1, XDATA, add(CFA_XSP16, literal(-15)))
          CFI V6 load(1, XDATA, add(CFA_XSP16, literal(-14)))
          CFI V7 load(1, XDATA, add(CFA_XSP16, literal(-13)))
          CFI V8 load(1, XDATA, add(CFA_XSP16, literal(-12)))
          CFI V9 load(1, XDATA, add(CFA_XSP16, literal(-11)))
          CFI V10 load(1, XDATA, add(CFA_XSP16, literal(-10)))
          CFI V11 load(1, XDATA, add(CFA_XSP16, literal(-9)))
          CFI V12 load(1, XDATA, add(CFA_XSP16, literal(-8)))
          CFI V13 load(1, XDATA, add(CFA_XSP16, literal(-7)))
          CFI R7 load(1, XDATA, add(CFA_XSP16, literal(-6)))
          CFI ?RET_LOW load(1, XDATA, add(CFA_XSP16, literal(-5)))
          CFI ?RET_HIGH load(1, XDATA, add(CFA_XSP16, literal(-4)))
          CFI ?BRET_EXT load(1, XDATA, add(CFA_XSP16, literal(-3)))
          CFI DPL0 load(1, XDATA, add(CFA_XSP16, literal(-2)))
          CFI DPH0 load(1, XDATA, add(CFA_XSP16, literal(-1)))
          CFI CFA_SP SP+-2
          CFI CFA_XSP16 add(XSP16, 39)
          CFI Block cfiCond256 Using cfiCommon0
          CFI (cfiCond256) Function zclController_ProcessInReportCmd
          CFI (cfiCond256) Conditional ??CrossCallReturnLabel_5
          CFI (cfiCond256) R6 load(1, XDATA, add(CFA_XSP16, literal(-18)))
          CFI (cfiCond256) VB load(1, XDATA, add(CFA_XSP16, literal(-17)))
          CFI (cfiCond256) V0 load(1, XDATA, add(CFA_XSP16, literal(-16)))
          CFI (cfiCond256) V1 load(1, XDATA, add(CFA_XSP16, literal(-15)))
          CFI (cfiCond256) V2 load(1, XDATA, add(CFA_XSP16, literal(-14)))
          CFI (cfiCond256) V3 load(1, XDATA, add(CFA_XSP16, literal(-13)))
          CFI (cfiCond256) V4 load(1, XDATA, add(CFA_XSP16, literal(-12)))
          CFI (cfiCond256) V5 load(1, XDATA, add(CFA_XSP16, literal(-11)))
          CFI (cfiCond256) V6 load(1, XDATA, add(CFA_XSP16, literal(-10)))
          CFI (cfiCond256) V7 load(1, XDATA, add(CFA_XSP16, literal(-9)))
          CFI (cfiCond256) V8 load(1, XDATA, add(CFA_XSP16, literal(-8)))
          CFI (cfiCond256) V9 load(1, XDATA, add(CFA_XSP16, literal(-7)))
          CFI (cfiCond256) R7 load(1, XDATA, add(CFA_XSP16, literal(-6)))
          CFI (cfiCond256) ?RET_LOW load(1, XDATA, add(CFA_XSP16, literal(-5)))
          CFI (cfiCond256) ?RET_HIGH load(1, XDATA, add(CFA_XSP16, literal(-4)))
          CFI (cfiCond256) ?BRET_EXT load(1, XDATA, add(CFA_XSP16, literal(-3)))
          CFI (cfiCond256) DPL0 load(1, XDATA, add(CFA_XSP16, literal(-2)))
          CFI (cfiCond256) DPH0 load(1, XDATA, add(CFA_XSP16, literal(-1)))
          CFI (cfiCond256) CFA_SP SP+-2
          CFI (cfiCond256) CFA_XSP16 add(XSP16, 35)
          CFI Block cfiPicker257 Using cfiCommon1
          CFI (cfiPicker257) NoFunction
          CFI (cfiPicker257) Picker
        LCALL     ?Subroutine40 & 0xFFFF
??CrossCallReturnLabel_74:
        ; Setup parameters for call to function AT_Int16toChar
        ; Setup parameters for call to function AT_Int16toChar
        MOV       R4,?XSP + 0
        MOV       R5,?XSP + 1
        RET
          CFI EndBlock cfiCond255
          CFI EndBlock cfiCond256
          CFI EndBlock cfiPicker257

        RSEG BANKED_CODE:HUGECODE:NOROOT(0)
?Subroutine7:
          CFI Block cfiCond258 Using cfiCommon0
          CFI Function zclController_ProcessInReadRspCmd
          CFI Conditional ??CrossCallReturnLabel_2
          CFI R6 load(1, XDATA, add(CFA_XSP16, literal(-22)))
          CFI VB load(1, XDATA, add(CFA_XSP16, literal(-21)))
          CFI V0 load(1, XDATA, add(CFA_XSP16, literal(-20)))
          CFI V1 load(1, XDATA, add(CFA_XSP16, literal(-19)))
          CFI V2 load(1, XDATA, add(CFA_XSP16, literal(-18)))
          CFI V3 load(1, XDATA, add(CFA_XSP16, literal(-17)))
          CFI V4 load(1, XDATA, add(CFA_XSP16, literal(-16)))
          CFI V5 load(1, XDATA, add(CFA_XSP16, literal(-15)))
          CFI V6 load(1, XDATA, add(CFA_XSP16, literal(-14)))
          CFI V7 load(1, XDATA, add(CFA_XSP16, literal(-13)))
          CFI V8 load(1, XDATA, add(CFA_XSP16, literal(-12)))
          CFI V9 load(1, XDATA, add(CFA_XSP16, literal(-11)))
          CFI V10 load(1, XDATA, add(CFA_XSP16, literal(-10)))
          CFI V11 load(1, XDATA, add(CFA_XSP16, literal(-9)))
          CFI V12 load(1, XDATA, add(CFA_XSP16, literal(-8)))
          CFI V13 load(1, XDATA, add(CFA_XSP16, literal(-7)))
          CFI R7 load(1, XDATA, add(CFA_XSP16, literal(-6)))
          CFI ?RET_LOW load(1, XDATA, add(CFA_XSP16, literal(-5)))
          CFI ?RET_HIGH load(1, XDATA, add(CFA_XSP16, literal(-4)))
          CFI ?BRET_EXT load(1, XDATA, add(CFA_XSP16, literal(-3)))
          CFI DPL0 load(1, XDATA, add(CFA_XSP16, literal(-2)))
          CFI DPH0 load(1, XDATA, add(CFA_XSP16, literal(-1)))
          CFI CFA_SP SP+-2
          CFI CFA_XSP16 add(XSP16, 39)
          CFI Block cfiCond259 Using cfiCommon0
          CFI (cfiCond259) Function zclController_ProcessInReportCmd
          CFI (cfiCond259) Conditional ??CrossCallReturnLabel_3
          CFI (cfiCond259) R6 load(1, XDATA, add(CFA_XSP16, literal(-18)))
          CFI (cfiCond259) VB load(1, XDATA, add(CFA_XSP16, literal(-17)))
          CFI (cfiCond259) V0 load(1, XDATA, add(CFA_XSP16, literal(-16)))
          CFI (cfiCond259) V1 load(1, XDATA, add(CFA_XSP16, literal(-15)))
          CFI (cfiCond259) V2 load(1, XDATA, add(CFA_XSP16, literal(-14)))
          CFI (cfiCond259) V3 load(1, XDATA, add(CFA_XSP16, literal(-13)))
          CFI (cfiCond259) V4 load(1, XDATA, add(CFA_XSP16, literal(-12)))
          CFI (cfiCond259) V5 load(1, XDATA, add(CFA_XSP16, literal(-11)))
          CFI (cfiCond259) V6 load(1, XDATA, add(CFA_XSP16, literal(-10)))
          CFI (cfiCond259) V7 load(1, XDATA, add(CFA_XSP16, literal(-9)))
          CFI (cfiCond259) V8 load(1, XDATA, add(CFA_XSP16, literal(-8)))
          CFI (cfiCond259) V9 load(1, XDATA, add(CFA_XSP16, literal(-7)))
          CFI (cfiCond259) R7 load(1, XDATA, add(CFA_XSP16, literal(-6)))
          CFI (cfiCond259) ?RET_LOW load(1, XDATA, add(CFA_XSP16, literal(-5)))
          CFI (cfiCond259) ?RET_HIGH load(1, XDATA, add(CFA_XSP16, literal(-4)))
          CFI (cfiCond259) ?BRET_EXT load(1, XDATA, add(CFA_XSP16, literal(-3)))
          CFI (cfiCond259) DPL0 load(1, XDATA, add(CFA_XSP16, literal(-2)))
          CFI (cfiCond259) DPH0 load(1, XDATA, add(CFA_XSP16, literal(-1)))
          CFI (cfiCond259) CFA_SP SP+-2
          CFI (cfiCond259) CFA_XSP16 add(XSP16, 35)
          CFI Block cfiPicker260 Using cfiCommon1
          CFI (cfiPicker260) NoFunction
          CFI (cfiPicker260) Picker
        LCALL     ?Subroutine39 & 0xFFFF
??CrossCallReturnLabel_73:
        ; Setup parameters for call to function AT_Int8toChar
        ; Setup parameters for call to function AT_Int8toChar
        MOV       R2,?XSP + 0
        MOV       R3,?XSP + 1
        RET
          CFI EndBlock cfiCond258
          CFI EndBlock cfiCond259
          CFI EndBlock cfiPicker260

        RSEG BANKED_CODE:HUGECODE:NOROOT(0)
?Subroutine6:
          CFI Block cfiCond261 Using cfiCommon0
          CFI Function zclController_ProcessInReadRspCmd
          CFI Conditional ??CrossCallReturnLabel_0
          CFI R6 load(1, XDATA, add(CFA_XSP16, literal(-22)))
          CFI VB load(1, XDATA, add(CFA_XSP16, literal(-21)))
          CFI V0 load(1, XDATA, add(CFA_XSP16, literal(-20)))
          CFI V1 load(1, XDATA, add(CFA_XSP16, literal(-19)))
          CFI V2 load(1, XDATA, add(CFA_XSP16, literal(-18)))
          CFI V3 load(1, XDATA, add(CFA_XSP16, literal(-17)))
          CFI V4 load(1, XDATA, add(CFA_XSP16, literal(-16)))
          CFI V5 load(1, XDATA, add(CFA_XSP16, literal(-15)))
          CFI V6 load(1, XDATA, add(CFA_XSP16, literal(-14)))
          CFI V7 load(1, XDATA, add(CFA_XSP16, literal(-13)))
          CFI V8 load(1, XDATA, add(CFA_XSP16, literal(-12)))
          CFI V9 load(1, XDATA, add(CFA_XSP16, literal(-11)))
          CFI V10 load(1, XDATA, add(CFA_XSP16, literal(-10)))
          CFI V11 load(1, XDATA, add(CFA_XSP16, literal(-9)))
          CFI V12 load(1, XDATA, add(CFA_XSP16, literal(-8)))
          CFI V13 load(1, XDATA, add(CFA_XSP16, literal(-7)))
          CFI R7 load(1, XDATA, add(CFA_XSP16, literal(-6)))
          CFI ?RET_LOW load(1, XDATA, add(CFA_XSP16, literal(-5)))
          CFI ?RET_HIGH load(1, XDATA, add(CFA_XSP16, literal(-4)))
          CFI ?BRET_EXT load(1, XDATA, add(CFA_XSP16, literal(-3)))
          CFI DPL0 load(1, XDATA, add(CFA_XSP16, literal(-2)))
          CFI DPH0 load(1, XDATA, add(CFA_XSP16, literal(-1)))
          CFI CFA_SP SP+-2
          CFI CFA_XSP16 add(XSP16, 39)
          CFI Block cfiCond262 Using cfiCommon0
          CFI (cfiCond262) Function zclController_ProcessInReportCmd
          CFI (cfiCond262) Conditional ??CrossCallReturnLabel_1
          CFI (cfiCond262) R6 load(1, XDATA, add(CFA_XSP16, literal(-18)))
          CFI (cfiCond262) VB load(1, XDATA, add(CFA_XSP16, literal(-17)))
          CFI (cfiCond262) V0 load(1, XDATA, add(CFA_XSP16, literal(-16)))
          CFI (cfiCond262) V1 load(1, XDATA, add(CFA_XSP16, literal(-15)))
          CFI (cfiCond262) V2 load(1, XDATA, add(CFA_XSP16, literal(-14)))
          CFI (cfiCond262) V3 load(1, XDATA, add(CFA_XSP16, literal(-13)))
          CFI (cfiCond262) V4 load(1, XDATA, add(CFA_XSP16, literal(-12)))
          CFI (cfiCond262) V5 load(1, XDATA, add(CFA_XSP16, literal(-11)))
          CFI (cfiCond262) V6 load(1, XDATA, add(CFA_XSP16, literal(-10)))
          CFI (cfiCond262) V7 load(1, XDATA, add(CFA_XSP16, literal(-9)))
          CFI (cfiCond262) V8 load(1, XDATA, add(CFA_XSP16, literal(-8)))
          CFI (cfiCond262) V9 load(1, XDATA, add(CFA_XSP16, literal(-7)))
          CFI (cfiCond262) R7 load(1, XDATA, add(CFA_XSP16, literal(-6)))
          CFI (cfiCond262) ?RET_LOW load(1, XDATA, add(CFA_XSP16, literal(-5)))
          CFI (cfiCond262) ?RET_HIGH load(1, XDATA, add(CFA_XSP16, literal(-4)))
          CFI (cfiCond262) ?BRET_EXT load(1, XDATA, add(CFA_XSP16, literal(-3)))
          CFI (cfiCond262) DPL0 load(1, XDATA, add(CFA_XSP16, literal(-2)))
          CFI (cfiCond262) DPH0 load(1, XDATA, add(CFA_XSP16, literal(-1)))
          CFI (cfiCond262) CFA_SP SP+-2
          CFI (cfiCond262) CFA_XSP16 add(XSP16, 35)
          CFI Block cfiPicker263 Using cfiCommon1
          CFI (cfiPicker263) NoFunction
          CFI (cfiPicker263) Picker
        MOV       ?V4,A
        CLR       A
        ADDC      A,?V1
        MOV       ?V5,A
        ; Setup parameters for call to function AT_Int8toChar
        ; Setup parameters for call to function AT_Int8toChar
        MOV       R2,?XSP + 0
        MOV       R3,?XSP + 1
        MOV       DPL,?V4
        LCALL     ?Subroutine40 & 0xFFFF
??CrossCallReturnLabel_75:
        MOV       DPL,?V4
        MOV       DPH,?V5
        MOVX      A,@DPTR
        MOV       R0,A
        MOV       A,?V0
        RET
          CFI EndBlock cfiCond261
          CFI EndBlock cfiCond262
          CFI EndBlock cfiPicker263

        RSEG BANKED_CODE:HUGECODE:NOROOT(0)
?Subroutine40:
          CFI Block cfiCond264 Using cfiCommon0
          CFI Function zclController_ProcessInReadRspCmd
          CFI Conditional ??CrossCallReturnLabel_74, ??CrossCallReturnLabel_4
          CFI R6 load(1, XDATA, add(CFA_XSP16, literal(-22)))
          CFI VB load(1, XDATA, add(CFA_XSP16, literal(-21)))
          CFI V0 load(1, XDATA, add(CFA_XSP16, literal(-20)))
          CFI V1 load(1, XDATA, add(CFA_XSP16, literal(-19)))
          CFI V2 load(1, XDATA, add(CFA_XSP16, literal(-18)))
          CFI V3 load(1, XDATA, add(CFA_XSP16, literal(-17)))
          CFI V4 load(1, XDATA, add(CFA_XSP16, literal(-16)))
          CFI V5 load(1, XDATA, add(CFA_XSP16, literal(-15)))
          CFI V6 load(1, XDATA, add(CFA_XSP16, literal(-14)))
          CFI V7 load(1, XDATA, add(CFA_XSP16, literal(-13)))
          CFI V8 load(1, XDATA, add(CFA_XSP16, literal(-12)))
          CFI V9 load(1, XDATA, add(CFA_XSP16, literal(-11)))
          CFI V10 load(1, XDATA, add(CFA_XSP16, literal(-10)))
          CFI V11 load(1, XDATA, add(CFA_XSP16, literal(-9)))
          CFI V12 load(1, XDATA, add(CFA_XSP16, literal(-8)))
          CFI V13 load(1, XDATA, add(CFA_XSP16, literal(-7)))
          CFI R7 load(1, XDATA, add(CFA_XSP16, literal(-6)))
          CFI ?RET_LOW load(1, XDATA, add(CFA_XSP16, literal(-5)))
          CFI ?RET_HIGH load(1, XDATA, add(CFA_XSP16, literal(-4)))
          CFI ?BRET_EXT load(1, XDATA, add(CFA_XSP16, literal(-3)))
          CFI DPL0 load(1, XDATA, add(CFA_XSP16, literal(-2)))
          CFI DPH0 load(1, XDATA, add(CFA_XSP16, literal(-1)))
          CFI CFA_SP SP+-4
          CFI CFA_XSP16 add(XSP16, 39)
          CFI Block cfiCond265 Using cfiCommon0
          CFI (cfiCond265) Function zclController_ProcessInReportCmd
          CFI (cfiCond265) Conditional ??CrossCallReturnLabel_74, ??CrossCallReturnLabel_5
          CFI (cfiCond265) R6 load(1, XDATA, add(CFA_XSP16, literal(-18)))
          CFI (cfiCond265) VB load(1, XDATA, add(CFA_XSP16, literal(-17)))
          CFI (cfiCond265) V0 load(1, XDATA, add(CFA_XSP16, literal(-16)))
          CFI (cfiCond265) V1 load(1, XDATA, add(CFA_XSP16, literal(-15)))
          CFI (cfiCond265) V2 load(1, XDATA, add(CFA_XSP16, literal(-14)))
          CFI (cfiCond265) V3 load(1, XDATA, add(CFA_XSP16, literal(-13)))
          CFI (cfiCond265) V4 load(1, XDATA, add(CFA_XSP16, literal(-12)))
          CFI (cfiCond265) V5 load(1, XDATA, add(CFA_XSP16, literal(-11)))
          CFI (cfiCond265) V6 load(1, XDATA, add(CFA_XSP16, literal(-10)))
          CFI (cfiCond265) V7 load(1, XDATA, add(CFA_XSP16, literal(-9)))
          CFI (cfiCond265) V8 load(1, XDATA, add(CFA_XSP16, literal(-8)))
          CFI (cfiCond265) V9 load(1, XDATA, add(CFA_XSP16, literal(-7)))
          CFI (cfiCond265) R7 load(1, XDATA, add(CFA_XSP16, literal(-6)))
          CFI (cfiCond265) ?RET_LOW load(1, XDATA, add(CFA_XSP16, literal(-5)))
          CFI (cfiCond265) ?RET_HIGH load(1, XDATA, add(CFA_XSP16, literal(-4)))
          CFI (cfiCond265) ?BRET_EXT load(1, XDATA, add(CFA_XSP16, literal(-3)))
          CFI (cfiCond265) DPL0 load(1, XDATA, add(CFA_XSP16, literal(-2)))
          CFI (cfiCond265) DPH0 load(1, XDATA, add(CFA_XSP16, literal(-1)))
          CFI (cfiCond265) CFA_SP SP+-4
          CFI (cfiCond265) CFA_XSP16 add(XSP16, 35)
          CFI Block cfiCond266 Using cfiCommon0
          CFI (cfiCond266) Function zclController_ProcessInReadRspCmd
          CFI (cfiCond266) Conditional ??CrossCallReturnLabel_75, ??CrossCallReturnLabel_0
          CFI (cfiCond266) R6 load(1, XDATA, add(CFA_XSP16, literal(-22)))
          CFI (cfiCond266) VB load(1, XDATA, add(CFA_XSP16, literal(-21)))
          CFI (cfiCond266) V0 load(1, XDATA, add(CFA_XSP16, literal(-20)))
          CFI (cfiCond266) V1 load(1, XDATA, add(CFA_XSP16, literal(-19)))
          CFI (cfiCond266) V2 load(1, XDATA, add(CFA_XSP16, literal(-18)))
          CFI (cfiCond266) V3 load(1, XDATA, add(CFA_XSP16, literal(-17)))
          CFI (cfiCond266) V4 load(1, XDATA, add(CFA_XSP16, literal(-16)))
          CFI (cfiCond266) V5 load(1, XDATA, add(CFA_XSP16, literal(-15)))
          CFI (cfiCond266) V6 load(1, XDATA, add(CFA_XSP16, literal(-14)))
          CFI (cfiCond266) V7 load(1, XDATA, add(CFA_XSP16, literal(-13)))
          CFI (cfiCond266) V8 load(1, XDATA, add(CFA_XSP16, literal(-12)))
          CFI (cfiCond266) V9 load(1, XDATA, add(CFA_XSP16, literal(-11)))
          CFI (cfiCond266) V10 load(1, XDATA, add(CFA_XSP16, literal(-10)))
          CFI (cfiCond266) V11 load(1, XDATA, add(CFA_XSP16, literal(-9)))
          CFI (cfiCond266) V12 load(1, XDATA, add(CFA_XSP16, literal(-8)))
          CFI (cfiCond266) V13 load(1, XDATA, add(CFA_XSP16, literal(-7)))
          CFI (cfiCond266) R7 load(1, XDATA, add(CFA_XSP16, literal(-6)))
          CFI (cfiCond266) ?RET_LOW load(1, XDATA, add(CFA_XSP16, literal(-5)))
          CFI (cfiCond266) ?RET_HIGH load(1, XDATA, add(CFA_XSP16, literal(-4)))
          CFI (cfiCond266) ?BRET_EXT load(1, XDATA, add(CFA_XSP16, literal(-3)))
          CFI (cfiCond266) DPL0 load(1, XDATA, add(CFA_XSP16, literal(-2)))
          CFI (cfiCond266) DPH0 load(1, XDATA, add(CFA_XSP16, literal(-1)))
          CFI (cfiCond266) CFA_SP SP+-4
          CFI (cfiCond266) CFA_XSP16 add(XSP16, 39)
          CFI Block cfiCond267 Using cfiCommon0
          CFI (cfiCond267) Function zclController_ProcessInReportCmd
          CFI (cfiCond267) Conditional ??CrossCallReturnLabel_75, ??CrossCallReturnLabel_1
          CFI (cfiCond267) R6 load(1, XDATA, add(CFA_XSP16, literal(-18)))
          CFI (cfiCond267) VB load(1, XDATA, add(CFA_XSP16, literal(-17)))
          CFI (cfiCond267) V0 load(1, XDATA, add(CFA_XSP16, literal(-16)))
          CFI (cfiCond267) V1 load(1, XDATA, add(CFA_XSP16, literal(-15)))
          CFI (cfiCond267) V2 load(1, XDATA, add(CFA_XSP16, literal(-14)))
          CFI (cfiCond267) V3 load(1, XDATA, add(CFA_XSP16, literal(-13)))
          CFI (cfiCond267) V4 load(1, XDATA, add(CFA_XSP16, literal(-12)))
          CFI (cfiCond267) V5 load(1, XDATA, add(CFA_XSP16, literal(-11)))
          CFI (cfiCond267) V6 load(1, XDATA, add(CFA_XSP16, literal(-10)))
          CFI (cfiCond267) V7 load(1, XDATA, add(CFA_XSP16, literal(-9)))
          CFI (cfiCond267) V8 load(1, XDATA, add(CFA_XSP16, literal(-8)))
          CFI (cfiCond267) V9 load(1, XDATA, add(CFA_XSP16, literal(-7)))
          CFI (cfiCond267) R7 load(1, XDATA, add(CFA_XSP16, literal(-6)))
          CFI (cfiCond267) ?RET_LOW load(1, XDATA, add(CFA_XSP16, literal(-5)))
          CFI (cfiCond267) ?RET_HIGH load(1, XDATA, add(CFA_XSP16, literal(-4)))
          CFI (cfiCond267) ?BRET_EXT load(1, XDATA, add(CFA_XSP16, literal(-3)))
          CFI (cfiCond267) DPL0 load(1, XDATA, add(CFA_XSP16, literal(-2)))
          CFI (cfiCond267) DPH0 load(1, XDATA, add(CFA_XSP16, literal(-1)))
          CFI (cfiCond267) CFA_SP SP+-4
          CFI (cfiCond267) CFA_XSP16 add(XSP16, 35)
          CFI Block cfiPicker268 Using cfiCommon1
          CFI (cfiPicker268) NoFunction
          CFI (cfiPicker268) Picker
        MOV       DPH,A
        LCALL     ?Subroutine49 & 0xFFFF
??CrossCallReturnLabel_91:
        ; Setup parameters for call to function AT_Uart0_Send
        ; Setup parameters for call to function AT_Uart0_Send
        ; Setup parameters for call to function AT_Uart0_Send
        ; Setup parameters for call to function AT_Uart0_Send
        MOV       R4,#0x1
        MOV       R5,#0x0
        MOV       R2,#`?<Constant ",">` & 0xff
        MOV       R3,#(`?<Constant ",">` >> 8) & 0xff
        LCALL     `??AT_Uart0_Send::?relay`; Banked call to: AT_Uart0_Send
        RET
          CFI EndBlock cfiCond264
          CFI EndBlock cfiCond265
          CFI EndBlock cfiCond266
          CFI EndBlock cfiCond267
          CFI EndBlock cfiPicker268
// 1075 #endif  // ZCL_REPORT_DESTINATION_DEVICE
// 1076 
// 1077 /*********************************************************************
// 1078  * @fn      zclController_ProcessInDefaultRspCmd
// 1079  *
// 1080  * @brief   Process the "Profile" Default Response Command
// 1081  *
// 1082  * @param   pInMsg - incoming message to process
// 1083  *
// 1084  * @return  none
// 1085  ********************************************************************/
// 1086 static uint8 zclController_ProcessInDefaultRspCmd( zclIncomingMsg_t *pInMsg )
// 1087 {
// 1088   zclDefaultRspCmd_t *defaultRspCmd;
// 1089   uint16 nodeId   = pInMsg->srcAddr.addr.shortAddr;
// 1090   uint8  endpoint = pInMsg->srcAddr.endPoint;
// 1091   uint16 cID = pInMsg->clusterId;
// 1092 
// 1093   defaultRspCmd = (zclDefaultRspCmd_t *)pInMsg->attrCmd;
// 1094   AT_NEW_LINE();
// 1095   printf("DFTRSP:%04X,%02X,%04X,%02X,%02X", nodeId, endpoint, cID, defaultRspCmd->commandID,
// 1096   									defaultRspCmd->statusCode);
// 1097   AT_NEW_LINE();
// 1098 
// 1099   return ( TRUE );
// 1100 }
// 1101 
// 1102 #ifdef ZCL_DISCOVER
// 1103 /*********************************************************************
// 1104  * @fn      zclController_ProcessInDiscCmdsRspCmd
// 1105  *
// 1106  * @brief   Process the Discover Commands Response Command
// 1107  *
// 1108  * @param   pInMsg - incoming message to process
// 1109  *
// 1110  * @return  none
// 1111  ********************************************************************/

        RSEG BANKED_CODE:HUGECODE:NOROOT(0)
// 1112 static uint8 zclController_ProcessInDiscCmdsRspCmd( zclIncomingMsg_t *pInMsg )
zclController_ProcessInDiscCmdsRspCmd:
          CFI Block cfiBlock269 Using cfiCommon0
          CFI Function zclController_ProcessInDiscCmdsRspCmd
        CODE
// 1113 {
        PUSH      DPL
          CFI DPL0 Frame(CFA_SP, 4)
          CFI CFA_SP SP+-4
        PUSH      DPH
          CFI DPH0 Frame(CFA_SP, 5)
          CFI CFA_SP SP+-5
        ; Saved register size: 2
        ; Auto size: 0
// 1114   zclDiscoverCmdsCmdRsp_t *discoverRspCmd;
// 1115   uint8 i;
// 1116 
// 1117   discoverRspCmd = (zclDiscoverCmdsCmdRsp_t *)pInMsg->attrCmd;
        LCALL     ?Subroutine36 & 0xFFFF
??CrossCallReturnLabel_62:
        ADDC      A,R3
        MOV       DPH,A
        LCALL     ??Subroutine62_0 & 0xFFFF
??CrossCallReturnLabel_130:
        MOV       R1,A
// 1118   for ( i = 0; i < discoverRspCmd->numCmd; i++ )
        MOV       R2,#0x0
        SJMP      ??zclController_ProcessInDiscCmdsRspCmd_0
??zclController_ProcessInDiscCmdsRspCmd_1:
        INC       R2
??zclController_ProcessInDiscCmdsRspCmd_0:
        MOV       DPL,R0
        MOV       DPH,R1
        INC       DPTR
        INC       DPTR
        MOVX      A,@DPTR
        MOV       R3,A
        MOV       A,R2
        CLR       C
        SUBB      A,R3
        JC        ??zclController_ProcessInDiscCmdsRspCmd_1
// 1119   {
// 1120     // Device is notified of the result of its attribute discovery command.
// 1121   }
// 1122 
// 1123   return ( TRUE );
        MOV       R1,#0x1
        POP       DPH
          CFI DPH0 SameValue
          CFI CFA_SP SP+-4
        POP       DPL
          CFI DPL0 SameValue
          CFI CFA_SP SP+-3
        LJMP      ?BRET
// 1124 }
          CFI EndBlock cfiBlock269

        RSEG BANKED_CODE:HUGECODE:NOROOT(0)
?Subroutine36:
          CFI Block cfiCond270 Using cfiCommon0
          CFI Function zclController_ProcessInReadRspCmd
          CFI Conditional ??CrossCallReturnLabel_60
          CFI R6 load(1, XDATA, add(CFA_XSP16, literal(-22)))
          CFI VB load(1, XDATA, add(CFA_XSP16, literal(-21)))
          CFI V0 load(1, XDATA, add(CFA_XSP16, literal(-20)))
          CFI V1 load(1, XDATA, add(CFA_XSP16, literal(-19)))
          CFI V2 load(1, XDATA, add(CFA_XSP16, literal(-18)))
          CFI V3 load(1, XDATA, add(CFA_XSP16, literal(-17)))
          CFI V4 load(1, XDATA, add(CFA_XSP16, literal(-16)))
          CFI V5 load(1, XDATA, add(CFA_XSP16, literal(-15)))
          CFI V6 load(1, XDATA, add(CFA_XSP16, literal(-14)))
          CFI V7 load(1, XDATA, add(CFA_XSP16, literal(-13)))
          CFI V8 load(1, XDATA, add(CFA_XSP16, literal(-12)))
          CFI V9 load(1, XDATA, add(CFA_XSP16, literal(-11)))
          CFI V10 load(1, XDATA, add(CFA_XSP16, literal(-10)))
          CFI V11 load(1, XDATA, add(CFA_XSP16, literal(-9)))
          CFI V12 load(1, XDATA, add(CFA_XSP16, literal(-8)))
          CFI V13 load(1, XDATA, add(CFA_XSP16, literal(-7)))
          CFI R7 load(1, XDATA, add(CFA_XSP16, literal(-6)))
          CFI ?RET_LOW load(1, XDATA, add(CFA_XSP16, literal(-5)))
          CFI ?RET_HIGH load(1, XDATA, add(CFA_XSP16, literal(-4)))
          CFI ?BRET_EXT load(1, XDATA, add(CFA_XSP16, literal(-3)))
          CFI DPL0 load(1, XDATA, add(CFA_XSP16, literal(-2)))
          CFI DPH0 load(1, XDATA, add(CFA_XSP16, literal(-1)))
          CFI CFA_SP SP+-2
          CFI CFA_XSP16 add(XSP16, 39)
          CFI Block cfiCond271 Using cfiCommon0
          CFI (cfiCond271) Function zclController_ProcessInWriteRspCmd
          CFI (cfiCond271) Conditional ??CrossCallReturnLabel_61
          CFI (cfiCond271) R6 load(1, XDATA, add(CFA_XSP16, literal(-22)))
          CFI (cfiCond271) VB load(1, XDATA, add(CFA_XSP16, literal(-21)))
          CFI (cfiCond271) V0 load(1, XDATA, add(CFA_XSP16, literal(-20)))
          CFI (cfiCond271) V1 load(1, XDATA, add(CFA_XSP16, literal(-19)))
          CFI (cfiCond271) V2 load(1, XDATA, add(CFA_XSP16, literal(-18)))
          CFI (cfiCond271) V3 load(1, XDATA, add(CFA_XSP16, literal(-17)))
          CFI (cfiCond271) V4 load(1, XDATA, add(CFA_XSP16, literal(-16)))
          CFI (cfiCond271) V5 load(1, XDATA, add(CFA_XSP16, literal(-15)))
          CFI (cfiCond271) V6 load(1, XDATA, add(CFA_XSP16, literal(-14)))
          CFI (cfiCond271) V7 load(1, XDATA, add(CFA_XSP16, literal(-13)))
          CFI (cfiCond271) V8 load(1, XDATA, add(CFA_XSP16, literal(-12)))
          CFI (cfiCond271) V9 load(1, XDATA, add(CFA_XSP16, literal(-11)))
          CFI (cfiCond271) V10 load(1, XDATA, add(CFA_XSP16, literal(-10)))
          CFI (cfiCond271) V11 load(1, XDATA, add(CFA_XSP16, literal(-9)))
          CFI (cfiCond271) V12 load(1, XDATA, add(CFA_XSP16, literal(-8)))
          CFI (cfiCond271) V13 load(1, XDATA, add(CFA_XSP16, literal(-7)))
          CFI (cfiCond271) R7 load(1, XDATA, add(CFA_XSP16, literal(-6)))
          CFI (cfiCond271) ?RET_LOW load(1, XDATA, add(CFA_XSP16, literal(-5)))
          CFI (cfiCond271) ?RET_HIGH load(1, XDATA, add(CFA_XSP16, literal(-4)))
          CFI (cfiCond271) ?BRET_EXT load(1, XDATA, add(CFA_XSP16, literal(-3)))
          CFI (cfiCond271) DPL0 load(1, XDATA, add(CFA_XSP16, literal(-2)))
          CFI (cfiCond271) DPH0 load(1, XDATA, add(CFA_XSP16, literal(-1)))
          CFI (cfiCond271) CFA_SP SP+-2
          CFI (cfiCond271) CFA_XSP16 add(XSP16, 39)
          CFI Block cfiCond272 Using cfiCommon0
          CFI (cfiCond272) Function zclController_ProcessInDiscCmdsRspCmd
          CFI (cfiCond272) Conditional ??CrossCallReturnLabel_62
          CFI (cfiCond272) DPL0 Frame(CFA_SP, 4)
          CFI (cfiCond272) DPH0 Frame(CFA_SP, 5)
          CFI (cfiCond272) CFA_SP SP+-7
          CFI Block cfiCond273 Using cfiCommon0
          CFI (cfiCond273) Function zclController_ProcessInDiscAttrsRspCmd
          CFI (cfiCond273) Conditional ??CrossCallReturnLabel_63
          CFI (cfiCond273) R6 load(1, XDATA, add(CFA_XSP16, literal(-20)))
          CFI (cfiCond273) VB load(1, XDATA, add(CFA_XSP16, literal(-19)))
          CFI (cfiCond273) V0 load(1, XDATA, add(CFA_XSP16, literal(-18)))
          CFI (cfiCond273) V1 load(1, XDATA, add(CFA_XSP16, literal(-17)))
          CFI (cfiCond273) V2 load(1, XDATA, add(CFA_XSP16, literal(-16)))
          CFI (cfiCond273) V3 load(1, XDATA, add(CFA_XSP16, literal(-15)))
          CFI (cfiCond273) V4 load(1, XDATA, add(CFA_XSP16, literal(-14)))
          CFI (cfiCond273) V5 load(1, XDATA, add(CFA_XSP16, literal(-13)))
          CFI (cfiCond273) V6 load(1, XDATA, add(CFA_XSP16, literal(-12)))
          CFI (cfiCond273) V7 load(1, XDATA, add(CFA_XSP16, literal(-11)))
          CFI (cfiCond273) V8 load(1, XDATA, add(CFA_XSP16, literal(-10)))
          CFI (cfiCond273) V9 load(1, XDATA, add(CFA_XSP16, literal(-9)))
          CFI (cfiCond273) V10 load(1, XDATA, add(CFA_XSP16, literal(-8)))
          CFI (cfiCond273) V11 load(1, XDATA, add(CFA_XSP16, literal(-7)))
          CFI (cfiCond273) R7 load(1, XDATA, add(CFA_XSP16, literal(-6)))
          CFI (cfiCond273) ?RET_LOW load(1, XDATA, add(CFA_XSP16, literal(-5)))
          CFI (cfiCond273) ?RET_HIGH load(1, XDATA, add(CFA_XSP16, literal(-4)))
          CFI (cfiCond273) ?BRET_EXT load(1, XDATA, add(CFA_XSP16, literal(-3)))
          CFI (cfiCond273) DPL0 load(1, XDATA, add(CFA_XSP16, literal(-2)))
          CFI (cfiCond273) DPH0 load(1, XDATA, add(CFA_XSP16, literal(-1)))
          CFI (cfiCond273) CFA_SP SP+-2
          CFI (cfiCond273) CFA_XSP16 add(XSP16, 20)
          CFI Block cfiPicker274 Using cfiCommon1
          CFI (cfiPicker274) NoFunction
          CFI (cfiPicker274) Picker
        MOV       A,R2
        ADD       A,#0x17
        MOV       DPL,A
        CLR       A
        RET
          CFI EndBlock cfiCond270
          CFI EndBlock cfiCond271
          CFI EndBlock cfiCond272
          CFI EndBlock cfiCond273
          CFI EndBlock cfiPicker274
// 1125 
// 1126 /*********************************************************************
// 1127  * @fn      zclController_ProcessInDiscAttrsRspCmd
// 1128  *
// 1129  * @brief   Process the "Profile" Discover Attributes Response Command
// 1130  *
// 1131  * @param   pInMsg - incoming message to process
// 1132  *
// 1133  * @return  none
// 1134  ********************************************************************/

        RSEG BANKED_CODE:HUGECODE:NOROOT(0)
// 1135 static uint8 zclController_ProcessInDiscAttrsRspCmd( zclIncomingMsg_t *pInMsg )
zclController_ProcessInDiscAttrsRspCmd:
          CFI Block cfiBlock275 Using cfiCommon0
          CFI Function zclController_ProcessInDiscAttrsRspCmd
        CODE
// 1136 {
        FUNCALL zclController_ProcessInDiscAttrsRspCmd, AT_Uart0_Send
        LOCFRAME ISTACK, 0, STACK
        LOCFRAME PSTACK, 0, STACK
        LOCFRAME XSTACK, 20, STACK
        LOCFRAME IOVERLAY, 0, STATIC
        LOCFRAME DOVERLAY, 0, STATIC
        ARGFRAME ISTACK, 0, STACK
        ARGFRAME PSTACK, 0, STACK
        ARGFRAME XSTACK, 20, STACK
        ARGFRAME IOVERLAY, 0, STATIC
        ARGFRAME DOVERLAY, 0, STATIC
        FUNCALL zclController_ProcessInDiscAttrsRspCmd, printf
        LOCFRAME ISTACK, 0, STACK
        LOCFRAME PSTACK, 0, STACK
        LOCFRAME XSTACK, 28, STACK
        LOCFRAME IOVERLAY, 0, STATIC
        LOCFRAME DOVERLAY, 0, STATIC
        ARGFRAME ISTACK, 0, STACK
        ARGFRAME PSTACK, 0, STACK
        ARGFRAME XSTACK, 28, STACK
        ARGFRAME IOVERLAY, 0, STATIC
        ARGFRAME DOVERLAY, 0, STATIC
        FUNCALL zclController_ProcessInDiscAttrsRspCmd, AT_Uart0_Send
        LOCFRAME ISTACK, 0, STACK
        LOCFRAME PSTACK, 0, STACK
        LOCFRAME XSTACK, 20, STACK
        LOCFRAME IOVERLAY, 0, STATIC
        LOCFRAME DOVERLAY, 0, STATIC
        ARGFRAME ISTACK, 0, STACK
        ARGFRAME PSTACK, 0, STACK
        ARGFRAME XSTACK, 20, STACK
        ARGFRAME IOVERLAY, 0, STATIC
        ARGFRAME DOVERLAY, 0, STATIC
        FUNCALL zclController_ProcessInDiscAttrsRspCmd, printf
        LOCFRAME ISTACK, 0, STACK
        LOCFRAME PSTACK, 0, STACK
        LOCFRAME XSTACK, 26, STACK
        LOCFRAME IOVERLAY, 0, STATIC
        LOCFRAME DOVERLAY, 0, STATIC
        ARGFRAME ISTACK, 0, STACK
        ARGFRAME PSTACK, 0, STACK
        ARGFRAME XSTACK, 26, STACK
        ARGFRAME IOVERLAY, 0, STATIC
        ARGFRAME DOVERLAY, 0, STATIC
        FUNCALL zclController_ProcessInDiscAttrsRspCmd, AT_Uart0_Send
        LOCFRAME ISTACK, 0, STACK
        LOCFRAME PSTACK, 0, STACK
        LOCFRAME XSTACK, 20, STACK
        LOCFRAME IOVERLAY, 0, STATIC
        LOCFRAME DOVERLAY, 0, STATIC
        ARGFRAME ISTACK, 0, STACK
        ARGFRAME PSTACK, 0, STACK
        ARGFRAME XSTACK, 20, STACK
        ARGFRAME IOVERLAY, 0, STATIC
        ARGFRAME DOVERLAY, 0, STATIC
        FUNCALL zclController_ProcessInDiscAttrsRspCmd, AT_Uart0_Send
        LOCFRAME ISTACK, 0, STACK
        LOCFRAME PSTACK, 0, STACK
        LOCFRAME XSTACK, 20, STACK
        LOCFRAME IOVERLAY, 0, STATIC
        LOCFRAME DOVERLAY, 0, STATIC
        ARGFRAME ISTACK, 0, STACK
        ARGFRAME PSTACK, 0, STACK
        ARGFRAME XSTACK, 20, STACK
        ARGFRAME IOVERLAY, 0, STATIC
        ARGFRAME DOVERLAY, 0, STATIC
        FUNCALL zclController_ProcessInDiscAttrsRspCmd, AT_Uart0_Send
        LOCFRAME ISTACK, 0, STACK
        LOCFRAME PSTACK, 0, STACK
        LOCFRAME XSTACK, 20, STACK
        LOCFRAME IOVERLAY, 0, STATIC
        LOCFRAME DOVERLAY, 0, STATIC
        ARGFRAME ISTACK, 0, STACK
        ARGFRAME PSTACK, 0, STACK
        ARGFRAME XSTACK, 20, STACK
        ARGFRAME IOVERLAY, 0, STATIC
        ARGFRAME DOVERLAY, 0, STATIC
        REQUIRE ?V0
        REQUIRE ?V1
        REQUIRE ?V2
        REQUIRE ?V3
        REQUIRE ?V4
        REQUIRE ?V5
        REQUIRE ?V6
        REQUIRE ?V7
        REQUIRE ?V8
        REQUIRE ?V9
        REQUIRE ?V10
        REQUIRE ?V11
        MOV       A,#-0x14
        LCALL     ?BANKED_ENTER_XDATA
          CFI DPH0 load(1, XDATA, add(CFA_XSP16, literal(-1)))
          CFI DPL0 load(1, XDATA, add(CFA_XSP16, literal(-2)))
          CFI ?BRET_EXT load(1, XDATA, add(CFA_XSP16, literal(-3)))
          CFI ?RET_HIGH load(1, XDATA, add(CFA_XSP16, literal(-4)))
          CFI ?RET_LOW load(1, XDATA, add(CFA_XSP16, literal(-5)))
          CFI R7 load(1, XDATA, add(CFA_XSP16, literal(-6)))
          CFI V11 load(1, XDATA, add(CFA_XSP16, literal(-7)))
          CFI V10 load(1, XDATA, add(CFA_XSP16, literal(-8)))
          CFI V9 load(1, XDATA, add(CFA_XSP16, literal(-9)))
          CFI V8 load(1, XDATA, add(CFA_XSP16, literal(-10)))
          CFI V7 load(1, XDATA, add(CFA_XSP16, literal(-11)))
          CFI V6 load(1, XDATA, add(CFA_XSP16, literal(-12)))
          CFI V5 load(1, XDATA, add(CFA_XSP16, literal(-13)))
          CFI V4 load(1, XDATA, add(CFA_XSP16, literal(-14)))
          CFI V3 load(1, XDATA, add(CFA_XSP16, literal(-15)))
          CFI V2 load(1, XDATA, add(CFA_XSP16, literal(-16)))
          CFI V1 load(1, XDATA, add(CFA_XSP16, literal(-17)))
          CFI V0 load(1, XDATA, add(CFA_XSP16, literal(-18)))
          CFI VB load(1, XDATA, add(CFA_XSP16, literal(-19)))
          CFI R6 load(1, XDATA, add(CFA_XSP16, literal(-20)))
          CFI CFA_SP SP+0
          CFI CFA_XSP16 add(XSP16, 20)
        ; Saved register size: 20
        ; Auto size: 0
        MOV       ?V0,R2
        MOV       ?V1,R3
// 1137   zclDiscoverAttrsRspCmd_t *discoverRspCmd;
// 1138   uint8 i;
// 1139   uint16 nodeId   = pInMsg->srcAddr.addr.shortAddr;
        MOV       DPL,R2
        MOV       DPH,R3
        INC       DPTR
        INC       DPTR
        LCALL     ?Subroutine19 & 0xFFFF
// 1140   uint8  endpoint = pInMsg->srcAddr.endPoint;
??CrossCallReturnLabel_112:
        MOV       A,R2
        ADD       A,#0x13
        LCALL     ?Subroutine30 & 0xFFFF
??CrossCallReturnLabel_49:
        MOVX      A,@DPTR
        MOV       ?V6,A
// 1141 
// 1142   discoverRspCmd = (zclDiscoverAttrsRspCmd_t *)pInMsg->attrCmd;
        LCALL     ?Subroutine36 & 0xFFFF
??CrossCallReturnLabel_63:
        ADDC      A,?V1
        LCALL     ?Subroutine13 & 0xFFFF
// 1143   AT_NEW_LINE();
// 1144   printf("DISCATTR:%04X,%02X,%02X,%02X", nodeId, endpoint, discoverRspCmd->numAttr,
// 1145   									discoverRspCmd->discComplete); // 0-Uncompleted 1-completed
??CrossCallReturnLabel_13:
        INC       DPTR
        MOV       ?V4,DPL
        MOV       ?V5,DPH
        ; Setup parameters for call to function printf
        MOV       DPL,?V2
        MOV       DPH,?V3
        LCALL     ?Subroutine21 & 0xFFFF
??CrossCallReturnLabel_28:
        LCALL     ?PUSH_XSTACK_I_TWO
          CFI CFA_XSP16 add(XSP16, 22)
        MOV       DPL,?V4
        MOV       DPH,?V5
        MOVX      A,@DPTR
        MOV       ?V10,A
        MOV       R0,#?V10
        LCALL     ?PUSH_XSTACK_I_TWO
          CFI CFA_XSP16 add(XSP16, 24)
        MOV       ?V7,#0x0
        MOV       R0,#?V6
        LCALL     ?PUSH_XSTACK_I_TWO
          CFI CFA_XSP16 add(XSP16, 26)
        MOV       R0,#?V8
        LCALL     ?PUSH_XSTACK_I_TWO
          CFI CFA_XSP16 add(XSP16, 28)
        MOV       R2,#`?<Constant "DISCATTR:%04X,%02X,%0...">` & 0xff
        MOV       R3,#(`?<Constant "DISCATTR:%04X,%02X,%0...">` >> 8) & 0xff
        LCALL     `??printf::?relay`; Banked call to: printf
        MOV       A,#0x8
        LCALL     ?DEALLOC_XSTACK8
          CFI CFA_XSP16 add(XSP16, 20)
// 1146   for ( i = 0; i < discoverRspCmd->numAttr; i++ )
        MOV       ?V6,#0x0
        SJMP      ??zclController_ProcessInDiscAttrsRspCmd_0
// 1147   {
// 1148     AT_NEXT_LINE();
??zclController_ProcessInDiscAttrsRspCmd_1:
        ; Setup parameters for call to function AT_Uart0_Send
        LCALL     `??AT_Uart0_Send::?relay`; Banked call to: AT_Uart0_Send
// 1149     printf("CLUS:%04X,ATTR:%04X,TYPE:%02X",
// 1150            pInMsg->clusterId,
// 1151            discoverRspCmd->attrList[i].attrID,
// 1152            discoverRspCmd->attrList[i].dataType);
        MOV       A,?V6
        MOV       B,#0x3
        MUL       AB
        MOV       R0,A
        MOV       R1,B
        MOV       A,?V2
        ADD       A,R0
        MOV       R0,A
        MOV       A,?V3
        ADDC      A,R1
        MOV       R1,A
        MOV       A,R0
        MOV       R2,A
        MOV       A,R1
        ; Setup parameters for call to function printf
        MOV       DPL,R0
        MOV       DPH,A
        INC       DPTR
        INC       DPTR
        INC       DPTR
        INC       DPTR
        LCALL     ?Subroutine26 & 0xFFFF
// 1153   }
??CrossCallReturnLabel_39:
        LCALL     ?PUSH_XSTACK_I_TWO
          CFI CFA_XSP16 add(XSP16, 22)
        MOV       DPL,R2
        MOV       DPH,R1
        INC       DPTR
        INC       DPTR
        LCALL     ?PUSH_XSTACK8_X_TWO
          CFI CFA_XSP16 add(XSP16, 24)
        MOV       DPL,?V0
        MOV       DPH,?V1
        INC       DPTR
        INC       DPTR
        INC       DPTR
        INC       DPTR
        INC       DPTR
        INC       DPTR
        INC       DPTR
        INC       DPTR
        LCALL     ?PUSH_XSTACK8_X_TWO
          CFI CFA_XSP16 add(XSP16, 26)
        MOV       R2,#`?<Constant "CLUS:%04X,ATTR:%04X,T...">` & 0xff
        MOV       R3,#(`?<Constant "CLUS:%04X,ATTR:%04X,T...">` >> 8) & 0xff
        LCALL     ?Subroutine38 & 0xFFFF
??CrossCallReturnLabel_71:
        LCALL     ?DEALLOC_XSTACK8
          CFI CFA_XSP16 add(XSP16, 20)
        INC       ?V6
??zclController_ProcessInDiscAttrsRspCmd_0:
        MOV       DPL,?V4
        MOV       DPH,?V5
        MOVX      A,@DPTR
        MOV       R0,A
        MOV       A,?V6
        CLR       C
        SUBB      A,R0
        MOV       R4,#0x2
        MOV       R5,#0x0
        MOV       R2,#`?<Constant "\\r\\n">` & 0xff
        MOV       R3,#(`?<Constant "\\r\\n">` >> 8) & 0xff
        JC        ??zclController_ProcessInDiscAttrsRspCmd_1
// 1154   AT_NEXT_LINE();
        ; Setup parameters for call to function AT_Uart0_Send
        LJMP      ?Subroutine5 & 0xFFFF
// 1155   AT_RESP("END\r\n", 5);
// 1156   AT_NEW_LINE();
// 1157 
// 1158   return ( TRUE );
// 1159 }
          CFI EndBlock cfiBlock275

        RSEG BANKED_CODE:HUGECODE:NOROOT(0)
?Subroutine26:
          CFI Block cfiCond276 Using cfiCommon0
          CFI Function zclController_ProcessInReadReportCfgRspCmd
          CFI Conditional ??CrossCallReturnLabel_38
          CFI R6 load(1, XDATA, add(CFA_XSP16, literal(-20)))
          CFI VB load(1, XDATA, add(CFA_XSP16, literal(-19)))
          CFI V0 load(1, XDATA, add(CFA_XSP16, literal(-18)))
          CFI V1 load(1, XDATA, add(CFA_XSP16, literal(-17)))
          CFI V2 load(1, XDATA, add(CFA_XSP16, literal(-16)))
          CFI V3 load(1, XDATA, add(CFA_XSP16, literal(-15)))
          CFI V4 load(1, XDATA, add(CFA_XSP16, literal(-14)))
          CFI V5 load(1, XDATA, add(CFA_XSP16, literal(-13)))
          CFI V6 load(1, XDATA, add(CFA_XSP16, literal(-12)))
          CFI V7 load(1, XDATA, add(CFA_XSP16, literal(-11)))
          CFI V8 load(1, XDATA, add(CFA_XSP16, literal(-10)))
          CFI V9 load(1, XDATA, add(CFA_XSP16, literal(-9)))
          CFI V10 load(1, XDATA, add(CFA_XSP16, literal(-8)))
          CFI V11 load(1, XDATA, add(CFA_XSP16, literal(-7)))
          CFI R7 load(1, XDATA, add(CFA_XSP16, literal(-6)))
          CFI ?RET_LOW load(1, XDATA, add(CFA_XSP16, literal(-5)))
          CFI ?RET_HIGH load(1, XDATA, add(CFA_XSP16, literal(-4)))
          CFI ?BRET_EXT load(1, XDATA, add(CFA_XSP16, literal(-3)))
          CFI DPL0 load(1, XDATA, add(CFA_XSP16, literal(-2)))
          CFI DPH0 load(1, XDATA, add(CFA_XSP16, literal(-1)))
          CFI CFA_SP SP+-2
          CFI CFA_XSP16 add(XSP16, 20)
          CFI Block cfiCond277 Using cfiCommon0
          CFI (cfiCond277) Function zclController_ProcessInDiscAttrsRspCmd
          CFI (cfiCond277) Conditional ??CrossCallReturnLabel_39
          CFI (cfiCond277) R6 load(1, XDATA, add(CFA_XSP16, literal(-20)))
          CFI (cfiCond277) VB load(1, XDATA, add(CFA_XSP16, literal(-19)))
          CFI (cfiCond277) V0 load(1, XDATA, add(CFA_XSP16, literal(-18)))
          CFI (cfiCond277) V1 load(1, XDATA, add(CFA_XSP16, literal(-17)))
          CFI (cfiCond277) V2 load(1, XDATA, add(CFA_XSP16, literal(-16)))
          CFI (cfiCond277) V3 load(1, XDATA, add(CFA_XSP16, literal(-15)))
          CFI (cfiCond277) V4 load(1, XDATA, add(CFA_XSP16, literal(-14)))
          CFI (cfiCond277) V5 load(1, XDATA, add(CFA_XSP16, literal(-13)))
          CFI (cfiCond277) V6 load(1, XDATA, add(CFA_XSP16, literal(-12)))
          CFI (cfiCond277) V7 load(1, XDATA, add(CFA_XSP16, literal(-11)))
          CFI (cfiCond277) V8 load(1, XDATA, add(CFA_XSP16, literal(-10)))
          CFI (cfiCond277) V9 load(1, XDATA, add(CFA_XSP16, literal(-9)))
          CFI (cfiCond277) V10 load(1, XDATA, add(CFA_XSP16, literal(-8)))
          CFI (cfiCond277) V11 load(1, XDATA, add(CFA_XSP16, literal(-7)))
          CFI (cfiCond277) R7 load(1, XDATA, add(CFA_XSP16, literal(-6)))
          CFI (cfiCond277) ?RET_LOW load(1, XDATA, add(CFA_XSP16, literal(-5)))
          CFI (cfiCond277) ?RET_HIGH load(1, XDATA, add(CFA_XSP16, literal(-4)))
          CFI (cfiCond277) ?BRET_EXT load(1, XDATA, add(CFA_XSP16, literal(-3)))
          CFI (cfiCond277) DPL0 load(1, XDATA, add(CFA_XSP16, literal(-2)))
          CFI (cfiCond277) DPH0 load(1, XDATA, add(CFA_XSP16, literal(-1)))
          CFI (cfiCond277) CFA_SP SP+-2
          CFI (cfiCond277) CFA_XSP16 add(XSP16, 20)
          CFI Block cfiPicker278 Using cfiCommon1
          CFI (cfiPicker278) NoFunction
          CFI (cfiPicker278) Picker
        MOVX      A,@DPTR
        MOV       ?V8,A
        MOV       ?V9,#0x0
        MOV       R0,#?V8
        RET
          CFI EndBlock cfiCond276
          CFI EndBlock cfiCond277
          CFI EndBlock cfiPicker278

        RSEG BANKED_CODE:HUGECODE:NOROOT(0)
?Subroutine13:
          CFI Block cfiCond279 Using cfiCommon0
          CFI Function zclController_ProcessInReadReportCfgRspCmd
          CFI Conditional ??CrossCallReturnLabel_12
          CFI R6 load(1, XDATA, add(CFA_XSP16, literal(-20)))
          CFI VB load(1, XDATA, add(CFA_XSP16, literal(-19)))
          CFI V0 load(1, XDATA, add(CFA_XSP16, literal(-18)))
          CFI V1 load(1, XDATA, add(CFA_XSP16, literal(-17)))
          CFI V2 load(1, XDATA, add(CFA_XSP16, literal(-16)))
          CFI V3 load(1, XDATA, add(CFA_XSP16, literal(-15)))
          CFI V4 load(1, XDATA, add(CFA_XSP16, literal(-14)))
          CFI V5 load(1, XDATA, add(CFA_XSP16, literal(-13)))
          CFI V6 load(1, XDATA, add(CFA_XSP16, literal(-12)))
          CFI V7 load(1, XDATA, add(CFA_XSP16, literal(-11)))
          CFI V8 load(1, XDATA, add(CFA_XSP16, literal(-10)))
          CFI V9 load(1, XDATA, add(CFA_XSP16, literal(-9)))
          CFI V10 load(1, XDATA, add(CFA_XSP16, literal(-8)))
          CFI V11 load(1, XDATA, add(CFA_XSP16, literal(-7)))
          CFI R7 load(1, XDATA, add(CFA_XSP16, literal(-6)))
          CFI ?RET_LOW load(1, XDATA, add(CFA_XSP16, literal(-5)))
          CFI ?RET_HIGH load(1, XDATA, add(CFA_XSP16, literal(-4)))
          CFI ?BRET_EXT load(1, XDATA, add(CFA_XSP16, literal(-3)))
          CFI DPL0 load(1, XDATA, add(CFA_XSP16, literal(-2)))
          CFI DPH0 load(1, XDATA, add(CFA_XSP16, literal(-1)))
          CFI CFA_SP SP+-2
          CFI CFA_XSP16 add(XSP16, 20)
          CFI Block cfiCond280 Using cfiCommon0
          CFI (cfiCond280) Function zclController_ProcessInDiscAttrsRspCmd
          CFI (cfiCond280) Conditional ??CrossCallReturnLabel_13
          CFI (cfiCond280) R6 load(1, XDATA, add(CFA_XSP16, literal(-20)))
          CFI (cfiCond280) VB load(1, XDATA, add(CFA_XSP16, literal(-19)))
          CFI (cfiCond280) V0 load(1, XDATA, add(CFA_XSP16, literal(-18)))
          CFI (cfiCond280) V1 load(1, XDATA, add(CFA_XSP16, literal(-17)))
          CFI (cfiCond280) V2 load(1, XDATA, add(CFA_XSP16, literal(-16)))
          CFI (cfiCond280) V3 load(1, XDATA, add(CFA_XSP16, literal(-15)))
          CFI (cfiCond280) V4 load(1, XDATA, add(CFA_XSP16, literal(-14)))
          CFI (cfiCond280) V5 load(1, XDATA, add(CFA_XSP16, literal(-13)))
          CFI (cfiCond280) V6 load(1, XDATA, add(CFA_XSP16, literal(-12)))
          CFI (cfiCond280) V7 load(1, XDATA, add(CFA_XSP16, literal(-11)))
          CFI (cfiCond280) V8 load(1, XDATA, add(CFA_XSP16, literal(-10)))
          CFI (cfiCond280) V9 load(1, XDATA, add(CFA_XSP16, literal(-9)))
          CFI (cfiCond280) V10 load(1, XDATA, add(CFA_XSP16, literal(-8)))
          CFI (cfiCond280) V11 load(1, XDATA, add(CFA_XSP16, literal(-7)))
          CFI (cfiCond280) R7 load(1, XDATA, add(CFA_XSP16, literal(-6)))
          CFI (cfiCond280) ?RET_LOW load(1, XDATA, add(CFA_XSP16, literal(-5)))
          CFI (cfiCond280) ?RET_HIGH load(1, XDATA, add(CFA_XSP16, literal(-4)))
          CFI (cfiCond280) ?BRET_EXT load(1, XDATA, add(CFA_XSP16, literal(-3)))
          CFI (cfiCond280) DPL0 load(1, XDATA, add(CFA_XSP16, literal(-2)))
          CFI (cfiCond280) DPH0 load(1, XDATA, add(CFA_XSP16, literal(-1)))
          CFI (cfiCond280) CFA_SP SP+-2
          CFI (cfiCond280) CFA_XSP16 add(XSP16, 20)
          CFI Block cfiPicker281 Using cfiCommon1
          CFI (cfiPicker281) NoFunction
          CFI (cfiPicker281) Picker
        MOV       DPH,A
        MOVX      A,@DPTR
        MOV       ?V2,A
        INC       DPTR
        MOVX      A,@DPTR
        LCALL     ?Subroutine48 & 0xFFFF
??CrossCallReturnLabel_89:
        RET
          CFI EndBlock cfiCond279
          CFI EndBlock cfiCond280
          CFI EndBlock cfiPicker281

        RSEG BANKED_CODE:HUGECODE:NOROOT(0)
?Subroutine48:
          CFI Block cfiCond282 Using cfiCommon0
          CFI Function AT_zclController_ProcessIncomingMsg
          CFI Conditional ??CrossCallReturnLabel_88
          CFI R6 load(1, XDATA, add(CFA_XSP16, literal(-20)))
          CFI VB load(1, XDATA, add(CFA_XSP16, literal(-19)))
          CFI V0 load(1, XDATA, add(CFA_XSP16, literal(-18)))
          CFI V1 load(1, XDATA, add(CFA_XSP16, literal(-17)))
          CFI V2 load(1, XDATA, add(CFA_XSP16, literal(-16)))
          CFI V3 load(1, XDATA, add(CFA_XSP16, literal(-15)))
          CFI V4 load(1, XDATA, add(CFA_XSP16, literal(-14)))
          CFI V5 load(1, XDATA, add(CFA_XSP16, literal(-13)))
          CFI V6 load(1, XDATA, add(CFA_XSP16, literal(-12)))
          CFI V7 load(1, XDATA, add(CFA_XSP16, literal(-11)))
          CFI V8 load(1, XDATA, add(CFA_XSP16, literal(-10)))
          CFI V9 load(1, XDATA, add(CFA_XSP16, literal(-9)))
          CFI V10 load(1, XDATA, add(CFA_XSP16, literal(-8)))
          CFI V11 load(1, XDATA, add(CFA_XSP16, literal(-7)))
          CFI R7 load(1, XDATA, add(CFA_XSP16, literal(-6)))
          CFI ?RET_LOW load(1, XDATA, add(CFA_XSP16, literal(-5)))
          CFI ?RET_HIGH load(1, XDATA, add(CFA_XSP16, literal(-4)))
          CFI ?BRET_EXT load(1, XDATA, add(CFA_XSP16, literal(-3)))
          CFI DPL0 load(1, XDATA, add(CFA_XSP16, literal(-2)))
          CFI DPH0 load(1, XDATA, add(CFA_XSP16, literal(-1)))
          CFI CFA_SP SP+-2
          CFI CFA_XSP16 add(XSP16, 20)
          CFI Block cfiCond283 Using cfiCommon0
          CFI (cfiCond283) Function zclController_ProcessInReadReportCfgRspCmd
          CFI (cfiCond283) Conditional ??CrossCallReturnLabel_89, ??CrossCallReturnLabel_12
          CFI (cfiCond283) R6 load(1, XDATA, add(CFA_XSP16, literal(-20)))
          CFI (cfiCond283) VB load(1, XDATA, add(CFA_XSP16, literal(-19)))
          CFI (cfiCond283) V0 load(1, XDATA, add(CFA_XSP16, literal(-18)))
          CFI (cfiCond283) V1 load(1, XDATA, add(CFA_XSP16, literal(-17)))
          CFI (cfiCond283) V2 load(1, XDATA, add(CFA_XSP16, literal(-16)))
          CFI (cfiCond283) V3 load(1, XDATA, add(CFA_XSP16, literal(-15)))
          CFI (cfiCond283) V4 load(1, XDATA, add(CFA_XSP16, literal(-14)))
          CFI (cfiCond283) V5 load(1, XDATA, add(CFA_XSP16, literal(-13)))
          CFI (cfiCond283) V6 load(1, XDATA, add(CFA_XSP16, literal(-12)))
          CFI (cfiCond283) V7 load(1, XDATA, add(CFA_XSP16, literal(-11)))
          CFI (cfiCond283) V8 load(1, XDATA, add(CFA_XSP16, literal(-10)))
          CFI (cfiCond283) V9 load(1, XDATA, add(CFA_XSP16, literal(-9)))
          CFI (cfiCond283) V10 load(1, XDATA, add(CFA_XSP16, literal(-8)))
          CFI (cfiCond283) V11 load(1, XDATA, add(CFA_XSP16, literal(-7)))
          CFI (cfiCond283) R7 load(1, XDATA, add(CFA_XSP16, literal(-6)))
          CFI (cfiCond283) ?RET_LOW load(1, XDATA, add(CFA_XSP16, literal(-5)))
          CFI (cfiCond283) ?RET_HIGH load(1, XDATA, add(CFA_XSP16, literal(-4)))
          CFI (cfiCond283) ?BRET_EXT load(1, XDATA, add(CFA_XSP16, literal(-3)))
          CFI (cfiCond283) DPL0 load(1, XDATA, add(CFA_XSP16, literal(-2)))
          CFI (cfiCond283) DPH0 load(1, XDATA, add(CFA_XSP16, literal(-1)))
          CFI (cfiCond283) CFA_SP SP+-4
          CFI (cfiCond283) CFA_XSP16 add(XSP16, 20)
          CFI Block cfiCond284 Using cfiCommon0
          CFI (cfiCond284) Function zclController_ProcessInDiscAttrsRspCmd
          CFI (cfiCond284) Conditional ??CrossCallReturnLabel_89, ??CrossCallReturnLabel_13
          CFI (cfiCond284) R6 load(1, XDATA, add(CFA_XSP16, literal(-20)))
          CFI (cfiCond284) VB load(1, XDATA, add(CFA_XSP16, literal(-19)))
          CFI (cfiCond284) V0 load(1, XDATA, add(CFA_XSP16, literal(-18)))
          CFI (cfiCond284) V1 load(1, XDATA, add(CFA_XSP16, literal(-17)))
          CFI (cfiCond284) V2 load(1, XDATA, add(CFA_XSP16, literal(-16)))
          CFI (cfiCond284) V3 load(1, XDATA, add(CFA_XSP16, literal(-15)))
          CFI (cfiCond284) V4 load(1, XDATA, add(CFA_XSP16, literal(-14)))
          CFI (cfiCond284) V5 load(1, XDATA, add(CFA_XSP16, literal(-13)))
          CFI (cfiCond284) V6 load(1, XDATA, add(CFA_XSP16, literal(-12)))
          CFI (cfiCond284) V7 load(1, XDATA, add(CFA_XSP16, literal(-11)))
          CFI (cfiCond284) V8 load(1, XDATA, add(CFA_XSP16, literal(-10)))
          CFI (cfiCond284) V9 load(1, XDATA, add(CFA_XSP16, literal(-9)))
          CFI (cfiCond284) V10 load(1, XDATA, add(CFA_XSP16, literal(-8)))
          CFI (cfiCond284) V11 load(1, XDATA, add(CFA_XSP16, literal(-7)))
          CFI (cfiCond284) R7 load(1, XDATA, add(CFA_XSP16, literal(-6)))
          CFI (cfiCond284) ?RET_LOW load(1, XDATA, add(CFA_XSP16, literal(-5)))
          CFI (cfiCond284) ?RET_HIGH load(1, XDATA, add(CFA_XSP16, literal(-4)))
          CFI (cfiCond284) ?BRET_EXT load(1, XDATA, add(CFA_XSP16, literal(-3)))
          CFI (cfiCond284) DPL0 load(1, XDATA, add(CFA_XSP16, literal(-2)))
          CFI (cfiCond284) DPH0 load(1, XDATA, add(CFA_XSP16, literal(-1)))
          CFI (cfiCond284) CFA_SP SP+-4
          CFI (cfiCond284) CFA_XSP16 add(XSP16, 20)
          CFI Block cfiPicker285 Using cfiCommon1
          CFI (cfiPicker285) NoFunction
          CFI (cfiPicker285) Picker
        MOV       ?V3,A
        ; Setup parameters for call to function AT_Uart0_Send
        ; Setup parameters for call to function AT_Uart0_Send
        ; Setup parameters for call to function AT_Uart0_Send
        MOV       R4,#0x2
        MOV       R5,#0x0
        MOV       R2,#`?<Constant "\\r\\n">` & 0xff
        MOV       R3,#(`?<Constant "\\r\\n">` >> 8) & 0xff
        LCALL     `??AT_Uart0_Send::?relay`; Banked call to: AT_Uart0_Send
        ; Setup parameters for call to function printf
        ; Setup parameters for call to function printf
        MOV       DPL,?V2
        MOV       DPH,?V3
        RET
          CFI EndBlock cfiCond282
          CFI EndBlock cfiCond283
          CFI EndBlock cfiCond284
          CFI EndBlock cfiPicker285

        RSEG XDATA_ID:CODE:NOROOT(0)
`?<Initializer for zclController_SimpleDesc>`:
        DATA8
        DB 100
        DATA16
        DW 260
        DW 6
        DATA8
        DB 0
        DB 0
        DATA16
        DW 0H
        DATA8
        DB 0
        DATA16
        DW 0H

        RSEG BANK_RELAYS:CODE:REORDER:NOROOT(0)
`??AT_zclController_Init::?relay`:
        CODE
        LCALL   ?BDISPATCH
        DATA24
        DC24    AT_zclController_Init

        RSEG BANK_RELAYS:CODE:REORDER:NOROOT(0)
`??AT_Endpoint_Register::?relay`:
        CODE
        LCALL   ?BDISPATCH
        DATA24
        DC24    AT_Endpoint_Register

        RSEG BANK_RELAYS:CODE:REORDER:NOROOT(0)
`??AT_Endpoint_Controller::?relay`:
        CODE
        LCALL   ?BDISPATCH
        DATA24
        DC24    AT_Endpoint_Controller

        RSEG BANK_RELAYS:CODE:REORDER:NOROOT(0)
`??ATApp_MessageMSGCB::?relay`:
        CODE
        LCALL   ?BDISPATCH
        DATA24
        DC24    ATApp_MessageMSGCB

        RSEG BANK_RELAYS:CODE:REORDER:NOROOT(0)
`??AT_zclCtrl_REpCtrl_req::?relay`:
        CODE
        LCALL   ?BDISPATCH
        DATA24
        DC24    AT_zclCtrl_REpCtrl_req

        RSEG BANK_RELAYS:CODE:REORDER:NOROOT(0)
`??AT_zclCtrl_REpCtrl_rsp::?relay`:
        CODE
        LCALL   ?BDISPATCH
        DATA24
        DC24    AT_zclCtrl_REpCtrl_rsp

        RSEG BANK_RELAYS:CODE:REORDER:NOROOT(0)
`??AT_SendCmd::?relay`:
        CODE
        LCALL   ?BDISPATCH
        DATA24
        DC24    AT_SendCmd

        RSEG BANK_RELAYS:CODE:REORDER:NOROOT(0)
`??AT_SendEPCtrl::?relay`:
        CODE
        LCALL   ?BDISPATCH
        DATA24
        DC24    AT_SendEPCtrl

        RSEG BANK_RELAYS:CODE:REORDER:NOROOT(0)
`??AT_SendEPCtrl_rsp::?relay`:
        CODE
        LCALL   ?BDISPATCH
        DATA24
        DC24    AT_SendEPCtrl_rsp

        RSEG BANK_RELAYS:CODE:REORDER:NOROOT(0)
`??AT_zclController_ProcessIncomingMsg::?relay`:
        CODE
        LCALL   ?BDISPATCH
        DATA24
        DC24    AT_zclController_ProcessIncomingMsg

        RSEG BANK_RELAYS:CODE:REORDER:NOROOT(0)
`??zclController_PrintfAttrData::?relay`:
        CODE
        LCALL   ?BDISPATCH
        DATA24
        DC24    zclController_PrintfAttrData

        RSEG BANK_RELAYS:CODE:REORDER:NOROOT(0)
`??zclController_ProcessInReadRspCmd::?relay`:
        CODE
        LCALL   ?BDISPATCH
        DATA24
        DC24    zclController_ProcessInReadRspCmd

        RSEG BANK_RELAYS:CODE:REORDER:NOROOT(0)
`??zclController_ProcessInWriteRspCmd::?relay`:
        CODE
        LCALL   ?BDISPATCH
        DATA24
        DC24    zclController_ProcessInWriteRspCmd

        RSEG BANK_RELAYS:CODE:REORDER:NOROOT(0)
`??zclController_ProcessInReadReportCfgRspCmd::?`:
        CODE
        LCALL   ?BDISPATCH
        DATA24
        DC24    zclController_ProcessInReadReportCfgRspCmd

        RSEG BANK_RELAYS:CODE:REORDER:NOROOT(0)
`??zclController_ProcessInConfigReportRspCmd::?r`:
        CODE
        LCALL   ?BDISPATCH
        DATA24
        DC24    zclController_ProcessInConfigReportRspCmd

        RSEG BANK_RELAYS:CODE:REORDER:NOROOT(0)
`??zclController_ProcessInReportCmd::?relay`:
        CODE
        LCALL   ?BDISPATCH
        DATA24
        DC24    zclController_ProcessInReportCmd

        RSEG BANK_RELAYS:CODE:REORDER:NOROOT(0)
`??zclController_ProcessInDiscCmdsRspCmd::?relay`:
        CODE
        LCALL   ?BDISPATCH
        DATA24
        DC24    zclController_ProcessInDiscCmdsRspCmd

        RSEG BANK_RELAYS:CODE:REORDER:NOROOT(0)
`??zclController_ProcessInDiscAttrsRspCmd::?rela`:
        CODE
        LCALL   ?BDISPATCH
        DATA24
        DC24    zclController_ProcessInDiscAttrsRspCmd

        RSEG XDATA_ROM_C:CONST:REORDER:NOROOT(0)
        DATA8
`?<Constant "\\r\\n">`:
        DB "\015\012"

        RSEG XDATA_ROM_C:CONST:REORDER:NOROOT(0)
        DATA8
`?<Constant "REMOTE RESPONSE:">`:
        DB "REMOTE RESPONSE:"

        RSEG XDATA_ROM_C:CONST:REORDER:NOROOT(0)
        DATA8
`?<Constant "ENABLED:">`:
        DB "ENABLED:"

        RSEG XDATA_ROM_C:CONST:REORDER:NOROOT(0)
        DATA8
`?<Constant "DISABLED:">`:
        DB "DISABLED:"

        RSEG XDATA_ROM_C:CONST:REORDER:NOROOT(0)
        DATA8
`?<Constant "UNKNOWNEP ERROR">`:
        DB "UNKNOWNEP ERROR"

        RSEG XDATA_ROM_C:CONST:REORDER:NOROOT(0)
        DATA8
`?<Constant "\\r\\nOK\\r\\n">`:
        DB "\015\012OK\015\012"

        RSEG XDATA_ROM_C:CONST:REORDER:NOROOT(0)
        DATA8
`?<Constant "---------ADDR,EP,C_ID...">`:
        DB "---------ADDR,EP,C_ID,A_ID,ST,DT,DV"

        RSEG XDATA_ROM_C:CONST:REORDER:NOROOT(0)
        DATA8
`?<Constant "ReadAttr:">`:
        DB "ReadAttr:"

        RSEG XDATA_ROM_C:CONST:REORDER:NOROOT(0)
        DATA16
`?<Constant ",">`:
        DB ","

        RSEG XDATA_ROM_C:CONST:REORDER:NOROOT(0)
        DATA8
`?<Constant "----------ADDR,EP,C_I...">`:
        DB "----------ADDR,EP,C_ID,ST"

        RSEG XDATA_ROM_C:CONST:REORDER:NOROOT(0)
        DATA8
`?<Constant "WriteAttr:">`:
        DB "WriteAttr:"

        RSEG XDATA_ROM_C:CONST:REORDER:NOROOT(0)
        DATA8
`?<Constant "READRCFGRSP:%04X,%02X...">`:
        DB "READRCFGRSP:%04X,%02X,%04X,%02X"

        RSEG XDATA_ROM_C:CONST:REORDER:NOROOT(0)
        DATA8
`?<Constant "ATTR%02X:%02X,%02X,%04X">`:
        DB "ATTR%02X:%02X,%02X,%04X"

        RSEG XDATA_ROM_C:CONST:REORDER:NOROOT(0)
        DATA8
`?<Constant ",%02X,%04X,%04X,">`:
        DB ",%02X,%04X,%04X,"

        RSEG XDATA_ROM_C:CONST:REORDER:NOROOT(0)
        DATA8
`?<Constant ",%04X">`:
        DB ",%04X"

        RSEG XDATA_ROM_C:CONST:REORDER:NOROOT(0)
        DATA8
`?<Constant "END\\r\\n">`:
        DB "END\015\012"

        RSEG XDATA_ROM_C:CONST:REORDER:NOROOT(0)
        DATA8
`?<Constant "CFGRPTRSP:%04X,%02X,%04X">`:
        DB "CFGRPTRSP:%04X,%02X,%04X"

        RSEG XDATA_ROM_C:CONST:REORDER:NOROOT(0)
        DATA32
`?<Constant ",00">`:
        DB ",00"

        RSEG XDATA_ROM_C:CONST:REORDER:NOROOT(0)
        DATA8
`?<Constant ",%02X,%02X,%04X">`:
        DB ",%02X,%02X,%04X"

        RSEG XDATA_ROM_C:CONST:REORDER:NOROOT(0)
        DATA8
`?<Constant "REPORT:">`:
        DB "REPORT:"

        RSEG XDATA_ROM_C:CONST:REORDER:NOROOT(0)
        DATA8
`?<Constant "RPTATTR:">`:
        DB "RPTATTR:"

        RSEG XDATA_ROM_C:CONST:REORDER:NOROOT(0)
        DATA8
`?<Constant "DFTRSP:%04X,%02X,%04X...">`:
        DB "DFTRSP:%04X,%02X,%04X,%02X,%02X"

        RSEG XDATA_ROM_C:CONST:REORDER:NOROOT(0)
        DATA8
`?<Constant "DISCATTR:%04X,%02X,%0...">`:
        DB "DISCATTR:%04X,%02X,%02X,%02X"

        RSEG XDATA_ROM_C:CONST:REORDER:NOROOT(0)
        DATA8
`?<Constant "CLUS:%04X,ATTR:%04X,T...">`:
        DB "CLUS:%04X,ATTR:%04X,TYPE:%02X"

        END
// 1160 
// 1161 /*********************************************************************
// 1162  * @fn      zclController_ProcessInDiscAttrsExtRspCmd
// 1163  *
// 1164  * @brief   Process the "Profile" Discover Attributes Extended Response Command
// 1165  *
// 1166  * @param   pInMsg - incoming message to process
// 1167  *
// 1168  * @return  none
// 1169  ********************************************************************/
// 1170 static uint8 zclController_ProcessInDiscAttrsExtRspCmd( zclIncomingMsg_t *pInMsg )
// 1171 {
// 1172   zclDiscoverAttrsExtRsp_t *discoverRspCmd;
// 1173   uint8 i;
// 1174 
// 1175   discoverRspCmd = (zclDiscoverAttrsExtRsp_t *)pInMsg->attrCmd;
// 1176   for ( i = 0; i < discoverRspCmd->numAttr; i++ )
// 1177   {
// 1178     // Device is notified of the result of its attribute discovery command.
// 1179   }
// 1180 
// 1181   return ( TRUE );
// 1182 }
// 1183 #endif // ZCL_DISCOVER
// 1184 
// 1185 /****************************************************************************
// 1186 ****************************************************************************/
// 
// 3 797 bytes in segment BANKED_CODE
//   108 bytes in segment BANK_RELAYS
//    12 bytes in segment XDATA_I
//    12 bytes in segment XDATA_ID
//   391 bytes in segment XDATA_ROM_C
//     3 bytes in segment XDATA_Z
// 
//   120 bytes of CODE     memory
//   391 bytes of CONST    memory
// 3 797 bytes of HUGECODE memory
//    15 bytes of XDATA    memory
//
//Errors: none
//Warnings: none
